ARM GAS  C:\Users\Brian\AppData\Local\Temp\ccNQoqIU.s 			page 1


   1              		.syntax unified
   2              		.cpu cortex-m0plus
   3              		.fpu softvfp
   4              		.eabi_attribute 20, 1
   5              		.eabi_attribute 21, 1
   6              		.eabi_attribute 23, 3
   7              		.eabi_attribute 24, 1
   8              		.eabi_attribute 25, 1
   9              		.eabi_attribute 26, 1
  10              		.eabi_attribute 30, 1
  11              		.eabi_attribute 34, 0
  12              		.eabi_attribute 18, 4
  13              		.thumb
  14              		.syntax unified
  15              		.file	"bluetooth.c"
  16              		.text
  17              	.Ltext0:
  18              		.cfi_sections	.debug_frame
  19              		.section	.text.write_event_to_server,"ax",%progbits
  20              		.align	2
  21              		.global	write_event_to_server
  22              		.code	16
  23              		.thumb_func
  24              		.type	write_event_to_server, %function
  25              	write_event_to_server:
  26              	.LFB445:
  27              		.file 1 "bluetooth.c"
   1:bluetooth.c   **** /* ========================================
   2:bluetooth.c   ****  *
   3:bluetooth.c   ****  * SEL VOLTAGE MONITOR
   4:bluetooth.c   ****  * TEAM REMBRANDT
   5:bluetooth.c   ****  *
   6:bluetooth.c   ****  * blemonitor.c
   7:bluetooth.c   ****  *
   8:bluetooth.c   ****  * This file contains functions and event handlers for initializing
   9:bluetooth.c   ****  * and operating the BLE server for the SEL Voltage Monitor.
  10:bluetooth.c   ****  *
  11:bluetooth.c   ****  * ========================================
  12:bluetooth.c   **** */
  13:bluetooth.c   **** #include "bluetooth.h"
  14:bluetooth.c   **** 
  15:bluetooth.c   **** const uint8_t** flashPtrs;
  16:bluetooth.c   **** uint16_t events[10][160];
  17:bluetooth.c   **** uint8_t num_events;
  18:bluetooth.c   **** uint8_t upper_thresh[2];
  19:bluetooth.c   **** uint8_t lower_thresh[2];
  20:bluetooth.c   **** 
  21:bluetooth.c   **** void init_ble(const uint8** Ptrs)
  22:bluetooth.c   **** {
  23:bluetooth.c   ****     // Set flash pointers address
  24:bluetooth.c   ****     flashPtrs = Ptrs;
  25:bluetooth.c   ****     
  26:bluetooth.c   ****     // Enable global interrupts.
  27:bluetooth.c   **** 	__enable_irq();
  28:bluetooth.c   ****     
  29:bluetooth.c   ****     // Enable CM4.
  30:bluetooth.c   ****     Cy_SysEnableCM4(CY_CORTEX_M4_APPL_ADDR);
ARM GAS  C:\Users\Brian\AppData\Local\Temp\ccNQoqIU.s 			page 2


  31:bluetooth.c   ****     
  32:bluetooth.c   ****     // Start the UART Debug Output
  33:bluetooth.c   ****     UART_Start();
  34:bluetooth.c   ****     setvbuf(stdin, NULL, _IONBF, 0);
  35:bluetooth.c   ****     printf("***********************************\r\n");
  36:bluetooth.c   ****     printf("***     SEL VOLTAGE MONITOR     ***\r\n");
  37:bluetooth.c   ****     printf("***       TEAM REMBRANDT        ***\r\n");
  38:bluetooth.c   ****     printf("*** WASHINGTON STATE UNIVERSITY ***\r\n");
  39:bluetooth.c   ****     printf("***            2020             ***\r\n");
  40:bluetooth.c   ****     printf("***********************************\r\n\n");
  41:bluetooth.c   **** 
  42:bluetooth.c   ****     
  43:bluetooth.c   ****     // Register the IPC Callback Function.
  44:bluetooth.c   ****     Cy_IPC_Pipe_RegisterCallback(CY_IPC_EP_CYPIPE_ADDR,
  45:bluetooth.c   ****                          CM0_MessageCallback,
  46:bluetooth.c   ****                          IPC_CM4_TO_CM0_CLIENT_ID);
  47:bluetooth.c   ****     
  48:bluetooth.c   ****     // Pull number of events, thresholds, and events from flash storage
  49:bluetooth.c   ****     // if data has been written before.
  50:bluetooth.c   ****     if(flashPtrs[0][0] == 'W' && flashPtrs[0][1] == 'S' && flashPtrs[0][2] == 'U')
  51:bluetooth.c   ****     {
  52:bluetooth.c   ****         printf("Flash Data Present\r\n");
  53:bluetooth.c   ****         // W S U indicates that flash data has been previously written
  54:bluetooth.c   ****         // Pull thresholds
  55:bluetooth.c   ****         upper_thresh[0] = flashPtrs[0][3];
  56:bluetooth.c   ****         upper_thresh[1] = flashPtrs[0][4];
  57:bluetooth.c   ****         lower_thresh[0] = flashPtrs[0][5];
  58:bluetooth.c   ****         lower_thresh[1] = flashPtrs[0][6];
  59:bluetooth.c   ****         // Pull events and number of events
  60:bluetooth.c   ****         // A 1 at the beginning of the event array indicates that an event has been stored
  61:bluetooth.c   ****         // in flash at that location
  62:bluetooth.c   ****         num_events = 0;
  63:bluetooth.c   ****         for(uint8_t i = 0; i < 10; ++i)
  64:bluetooth.c   ****         {
  65:bluetooth.c   ****             num_events += flashPtrs[i+1][0];
  66:bluetooth.c   ****             for(uint16_t j = 0; j < 160; ++j)
  67:bluetooth.c   ****             {
  68:bluetooth.c   ****                 events[i][j] = flashPtrs[i+1][2 * j + 2] + 256 * flashPtrs[i+1][2 * j + 3];
  69:bluetooth.c   ****             }
  70:bluetooth.c   ****         }
  71:bluetooth.c   ****     }
  72:bluetooth.c   ****     else
  73:bluetooth.c   ****     {
  74:bluetooth.c   ****         printf("Flash Data NOT Present\r\n");
  75:bluetooth.c   ****         // Flash data not present, writing default values to flash
  76:bluetooth.c   ****         num_events = 0;
  77:bluetooth.c   ****         // Default upper threshold = 130V
  78:bluetooth.c   ****         upper_thresh[0] = 0x55;
  79:bluetooth.c   ****         upper_thresh[1] = 0x04;
  80:bluetooth.c   ****         // Default lower threshold = 120V
  81:bluetooth.c   ****         lower_thresh[0] = 0xAB;
  82:bluetooth.c   ****         lower_thresh[1] = 0x03;
  83:bluetooth.c   ****         // Initialize events
  84:bluetooth.c   ****         for(uint8_t i = 0; i < 10; ++i)
  85:bluetooth.c   ****         {
  86:bluetooth.c   ****             for(uint16_t j = 0; j < 160; ++j)
  87:bluetooth.c   ****             {
ARM GAS  C:\Users\Brian\AppData\Local\Temp\ccNQoqIU.s 			page 3


  88:bluetooth.c   ****                 events[i][j] = 0;
  89:bluetooth.c   ****             }
  90:bluetooth.c   ****         }
  91:bluetooth.c   ****         // Write config values to flash
  92:bluetooth.c   ****         update_flash_config();
  93:bluetooth.c   ****         // Initialize events in flash
  94:bluetooth.c   ****         uint8_t ramData[CY_FLASH_SIZEOF_ROW];
  95:bluetooth.c   ****         for (uint16_t i = 0; i < CY_FLASH_SIZEOF_ROW; ++i)
  96:bluetooth.c   ****         {
  97:bluetooth.c   ****             ramData[i] = 0;
  98:bluetooth.c   ****         }
  99:bluetooth.c   ****         for (uint8_t i =1; i < 11; ++i)
 100:bluetooth.c   ****         {
 101:bluetooth.c   ****             Cy_Flash_WriteRow((uint32_t)flashPtrs[i],(const uint32_t *)ramData);
 102:bluetooth.c   ****         }
 103:bluetooth.c   ****     }
 104:bluetooth.c   **** 
 105:bluetooth.c   **** 	// Start the BLE stack, register the event handler.
 106:bluetooth.c   ****     Cy_BLE_Start(BluetoothEventHandler); 
 107:bluetooth.c   ****     while(Cy_BLE_GetState() != CY_BLE_STATE_ON)
 108:bluetooth.c   ****     {
 109:bluetooth.c   ****         Cy_BLE_ProcessEvents();
 110:bluetooth.c   ****     }
 111:bluetooth.c   ****     
 112:bluetooth.c   ****     send_threshold(upper_thresh, type_upper_threshold);
 113:bluetooth.c   ****     send_threshold(lower_thresh, type_lower_threshold);
 114:bluetooth.c   ****     
 115:bluetooth.c   ****     // Send config values to BLE Server
 116:bluetooth.c   ****     write_num_events_to_server(&num_events);
 117:bluetooth.c   ****     write_threshold_to_server(upper_thresh, 'u');
 118:bluetooth.c   ****     write_threshold_to_server(lower_thresh, 'l');
 119:bluetooth.c   **** }
 120:bluetooth.c   **** 
 121:bluetooth.c   **** void BluetoothEventHandler(uint32 event, void *eventParam)
 122:bluetooth.c   **** {
 123:bluetooth.c   ****     cy_stc_ble_gattc_write_cmd_req_t *writeReqParam;
 124:bluetooth.c   ****     switch(event) 
 125:bluetooth.c   ****     {
 126:bluetooth.c   ****         case CY_BLE_EVT_STACK_ON:
 127:bluetooth.c   ****         case CY_BLE_EVT_GAP_DEVICE_DISCONNECTED:
 128:bluetooth.c   ****             printf("BLE device DISCONNECTED, starting advertisement\r\n");
 129:bluetooth.c   ****             // Turn off connection LED
 130:bluetooth.c   ****             Cy_GPIO_Write(Connection_LED_0_PORT, Connection_LED_0_NUM, 0);
 131:bluetooth.c   ****             // Start advertising again
 132:bluetooth.c   ****             Cy_BLE_GAPP_StartAdvertisement(CY_BLE_ADVERTISING_FAST, CY_BLE_PERIPHERAL_CONFIGURATION
 133:bluetooth.c   ****             break;
 134:bluetooth.c   ****             
 135:bluetooth.c   ****         case CY_BLE_EVT_GATT_CONNECT_IND:
 136:bluetooth.c   ****             printf("BLE device CONNECTED\r\n");
 137:bluetooth.c   ****             // Turn on connection LED
 138:bluetooth.c   ****             Cy_GPIO_Write(Connection_LED_0_PORT, Connection_LED_0_NUM, 1);
 139:bluetooth.c   ****             break;
 140:bluetooth.c   ****             
 141:bluetooth.c   ****         case CY_BLE_EVT_GATTS_WRITE_REQ:
 142:bluetooth.c   ****             writeReqParam = (cy_stc_ble_gattc_write_cmd_req_t *)eventParam;
 143:bluetooth.c   ****             if (writeReqParam->handleValPair.attrHandle == CY_BLE_CONTROL_ENABLE_CHAR_HANDLE)
 144:bluetooth.c   ****             {
ARM GAS  C:\Users\Brian\AppData\Local\Temp\ccNQoqIU.s 			page 4


 145:bluetooth.c   ****                 bool enable = writeReqParam->handleValPair.value.val[0];
 146:bluetooth.c   ****                 if (enable)
 147:bluetooth.c   ****                 {
 148:bluetooth.c   ****                     printf("Enabling voltage monitor...\r\n");
 149:bluetooth.c   ****                 }
 150:bluetooth.c   ****                 else
 151:bluetooth.c   ****                 {
 152:bluetooth.c   ****                     printf("Disabling voltage monitor...\r\n");
 153:bluetooth.c   ****                 }
 154:bluetooth.c   ****                 // Send enable to CM4
 155:bluetooth.c   ****                 send_enable(enable);
 156:bluetooth.c   ****                 // Write enable to GATT server
 157:bluetooth.c   ****                 Cy_BLE_GATTS_WriteAttributeValuePeer(&writeReqParam->connHandle, &writeReqParam->ha
 158:bluetooth.c   ****             }
 159:bluetooth.c   ****             else if (writeReqParam->handleValPair.attrHandle == CY_BLE_CONTROL_EVENT_NUMBER_CHAR_HA
 160:bluetooth.c   ****             {
 161:bluetooth.c   ****                 uint16_t event_num = writeReqParam->handleValPair.value.val[0];
 162:bluetooth.c   ****                 // Check for valid event number
 163:bluetooth.c   ****                 if (event_num <= num_events)
 164:bluetooth.c   ****                 {
 165:bluetooth.c   ****                     printf("Placing event %d in server...\r\n", event_num);
 166:bluetooth.c   ****                     // Place requested event in GATT server
 167:bluetooth.c   ****                     write_event_to_server((uint8_t *)events[event_num - 1]);
 168:bluetooth.c   ****                     // Write new event number to GATT server
 169:bluetooth.c   ****                     Cy_BLE_GATTS_WriteAttributeValuePeer(&writeReqParam->connHandle, &writeReqParam
 170:bluetooth.c   ****                 }
 171:bluetooth.c   ****             }
 172:bluetooth.c   ****             else if (writeReqParam->handleValPair.attrHandle == CY_BLE_CONTROL_UPPER_THRESHOLD_CHAR
 173:bluetooth.c   ****             {
 174:bluetooth.c   ****                 printf("Setting new upper threshold...\r\n");
 175:bluetooth.c   ****                 // Send threshold to CM4
 176:bluetooth.c   ****                 send_threshold(writeReqParam->handleValPair.value.val, (ipc_msg_datatype)type_upper
 177:bluetooth.c   ****                 // Write new threshold to flash
 178:bluetooth.c   ****                 upper_thresh[0] = writeReqParam->handleValPair.value.val[0];
 179:bluetooth.c   ****                 upper_thresh[1] = writeReqParam->handleValPair.value.val[1];
 180:bluetooth.c   ****                 update_flash_config();
 181:bluetooth.c   ****                 // Write new threshold to GATT server
 182:bluetooth.c   ****                 Cy_BLE_GATTS_WriteAttributeValuePeer(&writeReqParam->connHandle, &writeReqParam->ha
 183:bluetooth.c   ****             }
 184:bluetooth.c   ****             else if (writeReqParam->handleValPair.attrHandle == CY_BLE_CONTROL_LOWER_THRESHOLD_CHAR
 185:bluetooth.c   ****             {
 186:bluetooth.c   ****                 printf("Setting new lower threshold...\r\n");
 187:bluetooth.c   ****                 // Send threshold to CM4
 188:bluetooth.c   ****                 send_threshold(writeReqParam->handleValPair.value.val, (ipc_msg_datatype)type_lower
 189:bluetooth.c   ****                 // Write new threshold to flash
 190:bluetooth.c   ****                 lower_thresh[0] = writeReqParam->handleValPair.value.val[0];
 191:bluetooth.c   ****                 lower_thresh[1] = writeReqParam->handleValPair.value.val[1];
 192:bluetooth.c   ****                 update_flash_config();
 193:bluetooth.c   ****                 // Write new threshold to GATT server
 194:bluetooth.c   ****                 Cy_BLE_GATTS_WriteAttributeValuePeer(&writeReqParam->connHandle, &writeReqParam->ha
 195:bluetooth.c   ****             }
 196:bluetooth.c   ****             else if (writeReqParam->handleValPair.attrHandle == CY_BLE_CONTROL_TRIGGER_CHAR_HANDLE)
 197:bluetooth.c   ****             {
 198:bluetooth.c   ****                 printf("Triggering...\r\n");
 199:bluetooth.c   ****                 // Send trigger indication to CM4
 200:bluetooth.c   ****                 send_trigger();
 201:bluetooth.c   ****             }
ARM GAS  C:\Users\Brian\AppData\Local\Temp\ccNQoqIU.s 			page 5


 202:bluetooth.c   ****             // Send write response
 203:bluetooth.c   ****             Cy_BLE_GATTS_WriteRsp(writeReqParam->connHandle);
 204:bluetooth.c   ****             break;        
 205:bluetooth.c   ****         default:
 206:bluetooth.c   ****             break;
 207:bluetooth.c   ****     }
 208:bluetooth.c   **** }
 209:bluetooth.c   **** 
 210:bluetooth.c   **** void write_event_to_server(uint8_t *event_byte_arr)
 211:bluetooth.c   **** {
  28              		.loc 1 211 0
  29              		.cfi_startproc
  30              		@ args = 0, pretend = 0, frame = 16
  31              		@ frame_needed = 0, uses_anonymous_args = 0
  32              	.LVL0:
  33 0000 30B5     		push	{r4, r5, lr}
  34              		.cfi_def_cfa_offset 12
  35              		.cfi_offset 4, -12
  36              		.cfi_offset 5, -8
  37              		.cfi_offset 14, -4
  38 0002 85B0     		sub	sp, sp, #20
  39              		.cfi_def_cfa_offset 32
  40 0004 0500     		movs	r5, r0
 212:bluetooth.c   ****     cy_stc_ble_gatt_handle_value_pair_t handValPair;
 213:bluetooth.c   ****     handValPair.value.len = GATTS_EVENT_SIZE;
  41              		.loc 1 213 0
  42 0006 01AC     		add	r4, sp, #4
  43 0008 1423     		movs	r3, #20
  44 000a A380     		strh	r3, [r4, #4]
 214:bluetooth.c   ****     // Write each set of values to the GATT server
 215:bluetooth.c   ****     handValPair.attrHandle = CY_BLE_EVENT_ES_1_10_CHAR_HANDLE;
  45              		.loc 1 215 0
  46 000c 0133     		adds	r3, r3, #1
  47 000e 2381     		strh	r3, [r4, #8]
 216:bluetooth.c   ****     handValPair.value.val = event_byte_arr;
  48              		.loc 1 216 0
  49 0010 0190     		str	r0, [sp, #4]
 217:bluetooth.c   ****     Cy_BLE_GATTS_WriteAttributeValueLocal(&handValPair);
  50              		.loc 1 217 0
  51 0012 2000     		movs	r0, r4
  52              	.LVL1:
  53 0014 FFF7FEFF 		bl	Cy_BLE_GATTS_WriteAttributeValueLocal
  54              	.LVL2:
 218:bluetooth.c   ****     
 219:bluetooth.c   ****     handValPair.attrHandle = CY_BLE_EVENT_ES_11_20_CHAR_HANDLE;
  55              		.loc 1 219 0
  56 0018 1823     		movs	r3, #24
  57 001a 2381     		strh	r3, [r4, #8]
 220:bluetooth.c   ****     handValPair.value.val = event_byte_arr + 20;
  58              		.loc 1 220 0
  59 001c 2B00     		movs	r3, r5
  60 001e 1433     		adds	r3, r3, #20
  61 0020 0193     		str	r3, [sp, #4]
 221:bluetooth.c   ****     Cy_BLE_GATTS_WriteAttributeValueLocal(&handValPair);
  62              		.loc 1 221 0
  63 0022 2000     		movs	r0, r4
  64 0024 FFF7FEFF 		bl	Cy_BLE_GATTS_WriteAttributeValueLocal
ARM GAS  C:\Users\Brian\AppData\Local\Temp\ccNQoqIU.s 			page 6


  65              	.LVL3:
 222:bluetooth.c   ****     
 223:bluetooth.c   ****     handValPair.attrHandle = CY_BLE_EVENT_ES_21_30_CHAR_HANDLE;
  66              		.loc 1 223 0
  67 0028 1A23     		movs	r3, #26
  68 002a 2381     		strh	r3, [r4, #8]
 224:bluetooth.c   ****     handValPair.value.val = event_byte_arr + 40;
  69              		.loc 1 224 0
  70 002c 2B00     		movs	r3, r5
  71 002e 2833     		adds	r3, r3, #40
  72 0030 0193     		str	r3, [sp, #4]
 225:bluetooth.c   ****     Cy_BLE_GATTS_WriteAttributeValueLocal(&handValPair);
  73              		.loc 1 225 0
  74 0032 2000     		movs	r0, r4
  75 0034 FFF7FEFF 		bl	Cy_BLE_GATTS_WriteAttributeValueLocal
  76              	.LVL4:
 226:bluetooth.c   ****     
 227:bluetooth.c   ****     handValPair.attrHandle = CY_BLE_EVENT_ES_31_40_CHAR_HANDLE;
  77              		.loc 1 227 0
  78 0038 1C23     		movs	r3, #28
  79 003a 2381     		strh	r3, [r4, #8]
 228:bluetooth.c   ****     handValPair.value.val = event_byte_arr + 60;
  80              		.loc 1 228 0
  81 003c 2B00     		movs	r3, r5
  82 003e 3C33     		adds	r3, r3, #60
  83 0040 0193     		str	r3, [sp, #4]
 229:bluetooth.c   ****     Cy_BLE_GATTS_WriteAttributeValueLocal(&handValPair);
  84              		.loc 1 229 0
  85 0042 2000     		movs	r0, r4
  86 0044 FFF7FEFF 		bl	Cy_BLE_GATTS_WriteAttributeValueLocal
  87              	.LVL5:
 230:bluetooth.c   ****     
 231:bluetooth.c   ****     handValPair.attrHandle = CY_BLE_EVENT_ES_41_50_CHAR_HANDLE;
  88              		.loc 1 231 0
  89 0048 1E23     		movs	r3, #30
  90 004a 2381     		strh	r3, [r4, #8]
 232:bluetooth.c   ****     handValPair.value.val = event_byte_arr + 80;
  91              		.loc 1 232 0
  92 004c 2B00     		movs	r3, r5
  93 004e 5033     		adds	r3, r3, #80
  94 0050 0193     		str	r3, [sp, #4]
 233:bluetooth.c   ****     Cy_BLE_GATTS_WriteAttributeValueLocal(&handValPair);
  95              		.loc 1 233 0
  96 0052 2000     		movs	r0, r4
  97 0054 FFF7FEFF 		bl	Cy_BLE_GATTS_WriteAttributeValueLocal
  98              	.LVL6:
 234:bluetooth.c   ****     
 235:bluetooth.c   ****     handValPair.attrHandle = CY_BLE_EVENT_ES_51_60_CHAR_HANDLE;
  99              		.loc 1 235 0
 100 0058 2023     		movs	r3, #32
 101 005a 2381     		strh	r3, [r4, #8]
 236:bluetooth.c   ****     handValPair.value.val = event_byte_arr + 100;
 102              		.loc 1 236 0
 103 005c 2B00     		movs	r3, r5
 104 005e 6433     		adds	r3, r3, #100
 105 0060 0193     		str	r3, [sp, #4]
 237:bluetooth.c   ****     Cy_BLE_GATTS_WriteAttributeValueLocal(&handValPair);
ARM GAS  C:\Users\Brian\AppData\Local\Temp\ccNQoqIU.s 			page 7


 106              		.loc 1 237 0
 107 0062 2000     		movs	r0, r4
 108 0064 FFF7FEFF 		bl	Cy_BLE_GATTS_WriteAttributeValueLocal
 109              	.LVL7:
 238:bluetooth.c   ****     
 239:bluetooth.c   ****     handValPair.attrHandle = CY_BLE_EVENT_ES_61_70_CHAR_HANDLE;
 110              		.loc 1 239 0
 111 0068 2223     		movs	r3, #34
 112 006a 2381     		strh	r3, [r4, #8]
 240:bluetooth.c   ****     handValPair.value.val = event_byte_arr + 120;
 113              		.loc 1 240 0
 114 006c 2B00     		movs	r3, r5
 115 006e 7833     		adds	r3, r3, #120
 116 0070 0193     		str	r3, [sp, #4]
 241:bluetooth.c   ****     Cy_BLE_GATTS_WriteAttributeValueLocal(&handValPair);
 117              		.loc 1 241 0
 118 0072 2000     		movs	r0, r4
 119 0074 FFF7FEFF 		bl	Cy_BLE_GATTS_WriteAttributeValueLocal
 120              	.LVL8:
 242:bluetooth.c   ****     
 243:bluetooth.c   ****     handValPair.attrHandle = CY_BLE_EVENT_ES_71_80_CHAR_HANDLE;
 121              		.loc 1 243 0
 122 0078 2423     		movs	r3, #36
 123 007a 2381     		strh	r3, [r4, #8]
 244:bluetooth.c   ****     handValPair.value.val = event_byte_arr + 140;
 124              		.loc 1 244 0
 125 007c 2B00     		movs	r3, r5
 126 007e 8C33     		adds	r3, r3, #140
 127 0080 0193     		str	r3, [sp, #4]
 245:bluetooth.c   ****     Cy_BLE_GATTS_WriteAttributeValueLocal(&handValPair);
 128              		.loc 1 245 0
 129 0082 2000     		movs	r0, r4
 130 0084 FFF7FEFF 		bl	Cy_BLE_GATTS_WriteAttributeValueLocal
 131              	.LVL9:
 246:bluetooth.c   ****     
 247:bluetooth.c   ****     handValPair.attrHandle = CY_BLE_EVENT_ES_81_90_CHAR_HANDLE;
 132              		.loc 1 247 0
 133 0088 2623     		movs	r3, #38
 134 008a 2381     		strh	r3, [r4, #8]
 248:bluetooth.c   ****     handValPair.value.val = event_byte_arr + 160;
 135              		.loc 1 248 0
 136 008c 2B00     		movs	r3, r5
 137 008e A033     		adds	r3, r3, #160
 138 0090 0193     		str	r3, [sp, #4]
 249:bluetooth.c   ****     Cy_BLE_GATTS_WriteAttributeValueLocal(&handValPair);
 139              		.loc 1 249 0
 140 0092 2000     		movs	r0, r4
 141 0094 FFF7FEFF 		bl	Cy_BLE_GATTS_WriteAttributeValueLocal
 142              	.LVL10:
 250:bluetooth.c   ****     
 251:bluetooth.c   ****     handValPair.attrHandle = CY_BLE_EVENT_ES_91_100_CHAR_HANDLE;
 143              		.loc 1 251 0
 144 0098 2823     		movs	r3, #40
 145 009a 2381     		strh	r3, [r4, #8]
 252:bluetooth.c   ****     handValPair.value.val = event_byte_arr + 180;
 146              		.loc 1 252 0
 147 009c 2B00     		movs	r3, r5
ARM GAS  C:\Users\Brian\AppData\Local\Temp\ccNQoqIU.s 			page 8


 148 009e B433     		adds	r3, r3, #180
 149 00a0 0193     		str	r3, [sp, #4]
 253:bluetooth.c   ****     Cy_BLE_GATTS_WriteAttributeValueLocal(&handValPair);
 150              		.loc 1 253 0
 151 00a2 2000     		movs	r0, r4
 152 00a4 FFF7FEFF 		bl	Cy_BLE_GATTS_WriteAttributeValueLocal
 153              	.LVL11:
 254:bluetooth.c   ****     
 255:bluetooth.c   ****     handValPair.attrHandle = CY_BLE_EVENT_ES_101_110_CHAR_HANDLE;
 154              		.loc 1 255 0
 155 00a8 2A23     		movs	r3, #42
 156 00aa 2381     		strh	r3, [r4, #8]
 256:bluetooth.c   ****     handValPair.value.val = event_byte_arr + 200;
 157              		.loc 1 256 0
 158 00ac 2B00     		movs	r3, r5
 159 00ae C833     		adds	r3, r3, #200
 160 00b0 0193     		str	r3, [sp, #4]
 257:bluetooth.c   ****     Cy_BLE_GATTS_WriteAttributeValueLocal(&handValPair);
 161              		.loc 1 257 0
 162 00b2 2000     		movs	r0, r4
 163 00b4 FFF7FEFF 		bl	Cy_BLE_GATTS_WriteAttributeValueLocal
 164              	.LVL12:
 258:bluetooth.c   ****     
 259:bluetooth.c   ****     handValPair.attrHandle = CY_BLE_EVENT_ES_111_120_CHAR_HANDLE;
 165              		.loc 1 259 0
 166 00b8 2C23     		movs	r3, #44
 167 00ba 2381     		strh	r3, [r4, #8]
 260:bluetooth.c   ****     handValPair.value.val = event_byte_arr + 220;
 168              		.loc 1 260 0
 169 00bc 2B00     		movs	r3, r5
 170 00be DC33     		adds	r3, r3, #220
 171 00c0 0193     		str	r3, [sp, #4]
 261:bluetooth.c   ****     Cy_BLE_GATTS_WriteAttributeValueLocal(&handValPair);
 172              		.loc 1 261 0
 173 00c2 2000     		movs	r0, r4
 174 00c4 FFF7FEFF 		bl	Cy_BLE_GATTS_WriteAttributeValueLocal
 175              	.LVL13:
 262:bluetooth.c   ****     
 263:bluetooth.c   ****     handValPair.attrHandle = CY_BLE_EVENT_ES_121_130_CHAR_HANDLE;
 176              		.loc 1 263 0
 177 00c8 2E23     		movs	r3, #46
 178 00ca 2381     		strh	r3, [r4, #8]
 264:bluetooth.c   ****     handValPair.value.val = event_byte_arr + 240;
 179              		.loc 1 264 0
 180 00cc 2B00     		movs	r3, r5
 181 00ce F033     		adds	r3, r3, #240
 182 00d0 0193     		str	r3, [sp, #4]
 265:bluetooth.c   ****     Cy_BLE_GATTS_WriteAttributeValueLocal(&handValPair);
 183              		.loc 1 265 0
 184 00d2 2000     		movs	r0, r4
 185 00d4 FFF7FEFF 		bl	Cy_BLE_GATTS_WriteAttributeValueLocal
 186              	.LVL14:
 266:bluetooth.c   ****     
 267:bluetooth.c   ****     handValPair.attrHandle = CY_BLE_EVENT_ES_131_140_CHAR_HANDLE;
 187              		.loc 1 267 0
 188 00d8 3023     		movs	r3, #48
 189 00da 2381     		strh	r3, [r4, #8]
ARM GAS  C:\Users\Brian\AppData\Local\Temp\ccNQoqIU.s 			page 9


 268:bluetooth.c   ****     handValPair.value.val = event_byte_arr + 260;
 190              		.loc 1 268 0
 191 00dc 6B1D     		adds	r3, r5, #5
 192 00de FF33     		adds	r3, r3, #255
 193 00e0 0193     		str	r3, [sp, #4]
 269:bluetooth.c   ****     Cy_BLE_GATTS_WriteAttributeValueLocal(&handValPair);
 194              		.loc 1 269 0
 195 00e2 2000     		movs	r0, r4
 196 00e4 FFF7FEFF 		bl	Cy_BLE_GATTS_WriteAttributeValueLocal
 197              	.LVL15:
 270:bluetooth.c   ****     
 271:bluetooth.c   ****     handValPair.attrHandle = CY_BLE_EVENT_ES_141_144_CHAR_HANDLE;
 198              		.loc 1 271 0
 199 00e8 3223     		movs	r3, #50
 200 00ea 2381     		strh	r3, [r4, #8]
 272:bluetooth.c   ****     handValPair.value.val = event_byte_arr + 280;
 201              		.loc 1 272 0
 202 00ec 1935     		adds	r5, r5, #25
 203              	.LVL16:
 204 00ee FF35     		adds	r5, r5, #255
 205              	.LVL17:
 206 00f0 0195     		str	r5, [sp, #4]
 273:bluetooth.c   ****     Cy_BLE_GATTS_WriteAttributeValueLocal(&handValPair);
 207              		.loc 1 273 0
 208 00f2 2000     		movs	r0, r4
 209 00f4 FFF7FEFF 		bl	Cy_BLE_GATTS_WriteAttributeValueLocal
 210              	.LVL18:
 274:bluetooth.c   ****     printf("Event placed in server\r\n");
 211              		.loc 1 274 0
 212 00f8 0248     		ldr	r0, .L2
 213 00fa FFF7FEFF 		bl	puts
 214              	.LVL19:
 275:bluetooth.c   **** }
 215              		.loc 1 275 0
 216 00fe 05B0     		add	sp, sp, #20
 217              		@ sp needed
 218              	.LVL20:
 219 0100 30BD     		pop	{r4, r5, pc}
 220              	.L3:
 221 0102 C046     		.align	2
 222              	.L2:
 223 0104 00000000 		.word	.LC0
 224              		.cfi_endproc
 225              	.LFE445:
 226              		.size	write_event_to_server, .-write_event_to_server
 227              		.section	.text.write_num_events_to_server,"ax",%progbits
 228              		.align	2
 229              		.global	write_num_events_to_server
 230              		.code	16
 231              		.thumb_func
 232              		.type	write_num_events_to_server, %function
 233              	write_num_events_to_server:
 234              	.LFB446:
 276:bluetooth.c   **** 
 277:bluetooth.c   **** void write_num_events_to_server(uint8_t * num_events_ptr)
 278:bluetooth.c   **** {
 235              		.loc 1 278 0
ARM GAS  C:\Users\Brian\AppData\Local\Temp\ccNQoqIU.s 			page 10


 236              		.cfi_startproc
 237              		@ args = 0, pretend = 0, frame = 16
 238              		@ frame_needed = 0, uses_anonymous_args = 0
 239              	.LVL21:
 240 0000 10B5     		push	{r4, lr}
 241              		.cfi_def_cfa_offset 8
 242              		.cfi_offset 4, -8
 243              		.cfi_offset 14, -4
 244 0002 84B0     		sub	sp, sp, #16
 245              		.cfi_def_cfa_offset 24
 246 0004 0400     		movs	r4, r0
 279:bluetooth.c   ****     cy_stc_ble_gatt_handle_value_pair_t handValPair;
 280:bluetooth.c   ****     handValPair.attrHandle = CY_BLE_CONTROL_NUMBER_OF_EVENTS_CHAR_HANDLE;
 247              		.loc 1 280 0
 248 0006 01A8     		add	r0, sp, #4
 249              	.LVL22:
 250 0008 3D23     		movs	r3, #61
 251 000a 0381     		strh	r3, [r0, #8]
 281:bluetooth.c   ****     handValPair.value.val = num_events_ptr;
 252              		.loc 1 281 0
 253 000c 0194     		str	r4, [sp, #4]
 282:bluetooth.c   ****     handValPair.value.len = GATTS_NUM_EVENTS_SIZE;
 254              		.loc 1 282 0
 255 000e 3C3B     		subs	r3, r3, #60
 256 0010 8380     		strh	r3, [r0, #4]
 283:bluetooth.c   ****     Cy_BLE_GATTS_WriteAttributeValueLocal(&handValPair);
 257              		.loc 1 283 0
 258 0012 FFF7FEFF 		bl	Cy_BLE_GATTS_WriteAttributeValueLocal
 259              	.LVL23:
 284:bluetooth.c   ****     printf("Number of events updated in server: %d\r\n", *num_events_ptr);
 260              		.loc 1 284 0
 261 0016 2178     		ldrb	r1, [r4]
 262 0018 0248     		ldr	r0, .L5
 263 001a FFF7FEFF 		bl	printf
 264              	.LVL24:
 285:bluetooth.c   **** }
 265              		.loc 1 285 0
 266 001e 04B0     		add	sp, sp, #16
 267              		@ sp needed
 268              	.LVL25:
 269 0020 10BD     		pop	{r4, pc}
 270              	.L6:
 271 0022 C046     		.align	2
 272              	.L5:
 273 0024 18000000 		.word	.LC2
 274              		.cfi_endproc
 275              	.LFE446:
 276              		.size	write_num_events_to_server, .-write_num_events_to_server
 277              		.section	.text.write_voltage_to_server,"ax",%progbits
 278              		.align	2
 279              		.global	write_voltage_to_server
 280              		.code	16
 281              		.thumb_func
 282              		.type	write_voltage_to_server, %function
 283              	write_voltage_to_server:
 284              	.LFB447:
 286:bluetooth.c   **** 
ARM GAS  C:\Users\Brian\AppData\Local\Temp\ccNQoqIU.s 			page 11


 287:bluetooth.c   **** void write_voltage_to_server(uint8_t * voltage_ptr)
 288:bluetooth.c   **** {
 285              		.loc 1 288 0
 286              		.cfi_startproc
 287              		@ args = 0, pretend = 0, frame = 16
 288              		@ frame_needed = 0, uses_anonymous_args = 0
 289              	.LVL26:
 290 0000 00B5     		push	{lr}
 291              		.cfi_def_cfa_offset 4
 292              		.cfi_offset 14, -4
 293 0002 85B0     		sub	sp, sp, #20
 294              		.cfi_def_cfa_offset 24
 289:bluetooth.c   ****     cy_stc_ble_gatt_handle_value_pair_t handValPair;
 290:bluetooth.c   ****     handValPair.attrHandle = CY_BLE_METER_CURRENT_VOLTAGE_CHAR_HANDLE;
 295              		.loc 1 290 0
 296 0004 01AB     		add	r3, sp, #4
 297 0006 1222     		movs	r2, #18
 298 0008 1A81     		strh	r2, [r3, #8]
 291:bluetooth.c   ****     handValPair.value.val = voltage_ptr;
 299              		.loc 1 291 0
 300 000a 0190     		str	r0, [sp, #4]
 292:bluetooth.c   ****     handValPair.value.len = GATTS_VOLTAGE_SIZE;
 301              		.loc 1 292 0
 302 000c 103A     		subs	r2, r2, #16
 303 000e 9A80     		strh	r2, [r3, #4]
 293:bluetooth.c   ****     Cy_BLE_GATTS_WriteAttributeValueLocal(&handValPair);   
 304              		.loc 1 293 0
 305 0010 1800     		movs	r0, r3
 306              	.LVL27:
 307 0012 FFF7FEFF 		bl	Cy_BLE_GATTS_WriteAttributeValueLocal
 308              	.LVL28:
 294:bluetooth.c   **** }
 309              		.loc 1 294 0
 310 0016 05B0     		add	sp, sp, #20
 311              		@ sp needed
 312 0018 00BD     		pop	{pc}
 313              		.cfi_endproc
 314              	.LFE447:
 315              		.size	write_voltage_to_server, .-write_voltage_to_server
 316 001a C046     		.section	.text.write_threshold_to_server,"ax",%progbits
 317              		.align	2
 318              		.global	write_threshold_to_server
 319              		.code	16
 320              		.thumb_func
 321              		.type	write_threshold_to_server, %function
 322              	write_threshold_to_server:
 323              	.LFB448:
 295:bluetooth.c   **** 
 296:bluetooth.c   **** void write_threshold_to_server(uint8_t * threshold_ptr, char upper_or_lower)
 297:bluetooth.c   **** {
 324              		.loc 1 297 0
 325              		.cfi_startproc
 326              		@ args = 0, pretend = 0, frame = 16
 327              		@ frame_needed = 0, uses_anonymous_args = 0
 328              	.LVL29:
 329 0000 00B5     		push	{lr}
 330              		.cfi_def_cfa_offset 4
ARM GAS  C:\Users\Brian\AppData\Local\Temp\ccNQoqIU.s 			page 12


 331              		.cfi_offset 14, -4
 332 0002 85B0     		sub	sp, sp, #20
 333              		.cfi_def_cfa_offset 24
 298:bluetooth.c   ****     cy_stc_ble_gatt_handle_value_pair_t handValPair;
 299:bluetooth.c   ****     if (upper_or_lower == 'u')
 334              		.loc 1 299 0
 335 0004 7529     		cmp	r1, #117
 336 0006 03D1     		bne	.L9
 300:bluetooth.c   ****     {
 301:bluetooth.c   ****         handValPair.attrHandle = CY_BLE_CONTROL_UPPER_THRESHOLD_CHAR_HANDLE;
 337              		.loc 1 301 0
 338 0008 3922     		movs	r2, #57
 339 000a 01AB     		add	r3, sp, #4
 340 000c 1A81     		strh	r2, [r3, #8]
 341 000e 02E0     		b	.L10
 342              	.L9:
 302:bluetooth.c   ****     }
 303:bluetooth.c   ****     else
 304:bluetooth.c   ****     {
 305:bluetooth.c   ****         handValPair.attrHandle = CY_BLE_CONTROL_LOWER_THRESHOLD_CHAR_HANDLE;
 343              		.loc 1 305 0
 344 0010 3B22     		movs	r2, #59
 345 0012 01AB     		add	r3, sp, #4
 346 0014 1A81     		strh	r2, [r3, #8]
 347              	.L10:
 306:bluetooth.c   ****     }
 307:bluetooth.c   ****     handValPair.value.val = threshold_ptr;
 348              		.loc 1 307 0
 349 0016 01AB     		add	r3, sp, #4
 350 0018 0190     		str	r0, [sp, #4]
 308:bluetooth.c   ****     handValPair.value.len = GATTS_THRESHOLD_SIZE;
 351              		.loc 1 308 0
 352 001a 0222     		movs	r2, #2
 353 001c 9A80     		strh	r2, [r3, #4]
 309:bluetooth.c   ****     Cy_BLE_GATTS_WriteAttributeValueLocal(&handValPair);
 354              		.loc 1 309 0
 355 001e 1800     		movs	r0, r3
 356              	.LVL30:
 357 0020 FFF7FEFF 		bl	Cy_BLE_GATTS_WriteAttributeValueLocal
 358              	.LVL31:
 310:bluetooth.c   ****     printf("Threshold updated in server\r\n");
 359              		.loc 1 310 0
 360 0024 0248     		ldr	r0, .L11
 361 0026 FFF7FEFF 		bl	puts
 362              	.LVL32:
 311:bluetooth.c   **** }
 363              		.loc 1 311 0
 364 002a 05B0     		add	sp, sp, #20
 365              		@ sp needed
 366 002c 00BD     		pop	{pc}
 367              	.L12:
 368 002e C046     		.align	2
 369              	.L11:
 370 0030 44000000 		.word	.LC4
 371              		.cfi_endproc
 372              	.LFE448:
 373              		.size	write_threshold_to_server, .-write_threshold_to_server
ARM GAS  C:\Users\Brian\AppData\Local\Temp\ccNQoqIU.s 			page 13


 374              		.section	.text.update_flash_config,"ax",%progbits
 375              		.align	2
 376              		.global	update_flash_config
 377              		.code	16
 378              		.thumb_func
 379              		.type	update_flash_config, %function
 380              	update_flash_config:
 381              	.LFB449:
 312:bluetooth.c   **** 
 313:bluetooth.c   **** void update_flash_config(void)
 314:bluetooth.c   **** {
 382              		.loc 1 314 0
 383              		.cfi_startproc
 384              		@ args = 0, pretend = 0, frame = 512
 385              		@ frame_needed = 0, uses_anonymous_args = 0
 386 0000 81B5     		push	{r0, r7, lr}
 387              		.cfi_def_cfa_offset 12
 388              		.cfi_offset 0, -12
 389              		.cfi_offset 7, -8
 390              		.cfi_offset 14, -4
 391 0002 FFB0     		sub	sp, sp, #508
 392              		.cfi_def_cfa_offset 520
 393              	.LVL33:
 394              	.LBB17:
 315:bluetooth.c   ****     uint8_t ramData[CY_FLASH_SIZEOF_ROW];
 316:bluetooth.c   ****     for (uint16_t i = 0; i < CY_FLASH_SIZEOF_ROW; ++i)
 395              		.loc 1 316 0
 396 0004 0023     		movs	r3, #0
 397 0006 04E0     		b	.L14
 398              	.LVL34:
 399              	.L15:
 317:bluetooth.c   ****     {
 318:bluetooth.c   ****         ramData[i] = 0;
 400              		.loc 1 318 0 discriminator 3
 401 0008 0022     		movs	r2, #0
 402 000a 6946     		mov	r1, sp
 403 000c CA54     		strb	r2, [r1, r3]
 316:bluetooth.c   ****     {
 404              		.loc 1 316 0 discriminator 3
 405 000e 0133     		adds	r3, r3, #1
 406              	.LVL35:
 407 0010 9BB2     		uxth	r3, r3
 408              	.LVL36:
 409              	.L14:
 316:bluetooth.c   ****     {
 410              		.loc 1 316 0 is_stmt 0 discriminator 1
 411 0012 104A     		ldr	r2, .L17
 412 0014 9342     		cmp	r3, r2
 413 0016 F7D9     		bls	.L15
 414              	.LBE17:
 319:bluetooth.c   ****     }
 320:bluetooth.c   ****     ramData[0] = 'W';
 415              		.loc 1 320 0 is_stmt 1
 416 0018 5723     		movs	r3, #87
 417              	.LVL37:
 418 001a 6A46     		mov	r2, sp
 419 001c 1370     		strb	r3, [r2]
ARM GAS  C:\Users\Brian\AppData\Local\Temp\ccNQoqIU.s 			page 14


 321:bluetooth.c   ****     ramData[1] = 'S';
 420              		.loc 1 321 0
 421 001e 043B     		subs	r3, r3, #4
 422 0020 5370     		strb	r3, [r2, #1]
 322:bluetooth.c   ****     ramData[2] = 'U';
 423              		.loc 1 322 0
 424 0022 0233     		adds	r3, r3, #2
 425 0024 9370     		strb	r3, [r2, #2]
 323:bluetooth.c   ****     ramData[3] = upper_thresh[0];
 426              		.loc 1 323 0
 427 0026 0C4B     		ldr	r3, .L17+4
 428 0028 1A78     		ldrb	r2, [r3]
 429 002a 6946     		mov	r1, sp
 430 002c CA70     		strb	r2, [r1, #3]
 324:bluetooth.c   ****     ramData[4] = upper_thresh[1];
 431              		.loc 1 324 0
 432 002e 5B78     		ldrb	r3, [r3, #1]
 433 0030 0B71     		strb	r3, [r1, #4]
 325:bluetooth.c   ****     ramData[5] = lower_thresh[0];
 434              		.loc 1 325 0
 435 0032 0A4B     		ldr	r3, .L17+8
 436 0034 1A78     		ldrb	r2, [r3]
 437 0036 4A71     		strb	r2, [r1, #5]
 326:bluetooth.c   ****     ramData[6] = lower_thresh[1];
 438              		.loc 1 326 0
 439 0038 5B78     		ldrb	r3, [r3, #1]
 440 003a 8B71     		strb	r3, [r1, #6]
 327:bluetooth.c   ****     cy_en_flashdrv_status_t result;
 328:bluetooth.c   ****     result = Cy_Flash_WriteRow((uint32)flashPtrs[0],(const uint32_t *) ramData);
 441              		.loc 1 328 0
 442 003c 084B     		ldr	r3, .L17+12
 443 003e 1B68     		ldr	r3, [r3]
 444 0040 1868     		ldr	r0, [r3]
 445 0042 FFF7FEFF 		bl	Cy_Flash_WriteRow
 446              	.LVL38:
 329:bluetooth.c   ****     if(result == CY_FLASH_DRV_SUCCESS)
 447              		.loc 1 329 0
 448 0046 0028     		cmp	r0, #0
 449 0048 02D1     		bne	.L13
 330:bluetooth.c   ****     {
 331:bluetooth.c   ****         printf("Settings updated in flash\r\n");
 450              		.loc 1 331 0
 451 004a 0648     		ldr	r0, .L17+16
 452              	.LVL39:
 453 004c FFF7FEFF 		bl	puts
 454              	.LVL40:
 455              	.L13:
 332:bluetooth.c   ****     }
 333:bluetooth.c   **** }
 456              		.loc 1 333 0
 457 0050 7FB0     		add	sp, sp, #508
 458              		@ sp needed
 459 0052 81BD     		pop	{r0, r7, pc}
 460              	.L18:
 461              		.align	2
 462              	.L17:
 463 0054 FF010000 		.word	511
ARM GAS  C:\Users\Brian\AppData\Local\Temp\ccNQoqIU.s 			page 15


 464 0058 00000000 		.word	upper_thresh
 465 005c 00000000 		.word	lower_thresh
 466 0060 00000000 		.word	flashPtrs
 467 0064 64000000 		.word	.LC9
 468              		.cfi_endproc
 469              	.LFE449:
 470              		.size	update_flash_config, .-update_flash_config
 471              		.section	.text.init_ble,"ax",%progbits
 472              		.align	2
 473              		.global	init_ble
 474              		.code	16
 475              		.thumb_func
 476              		.type	init_ble, %function
 477              	init_ble:
 478              	.LFB443:
  22:bluetooth.c   ****     // Set flash pointers address
 479              		.loc 1 22 0
 480              		.cfi_startproc
 481              		@ args = 0, pretend = 0, frame = 512
 482              		@ frame_needed = 0, uses_anonymous_args = 0
 483              	.LVL41:
 484 0000 F0B5     		push	{r4, r5, r6, r7, lr}
 485              		.cfi_def_cfa_offset 20
 486              		.cfi_offset 4, -20
 487              		.cfi_offset 5, -16
 488              		.cfi_offset 6, -12
 489              		.cfi_offset 7, -8
 490              		.cfi_offset 14, -4
 491 0002 674C     		ldr	r4, .L36
 492 0004 A544     		add	sp, sp, r4
 493              		.cfi_def_cfa_offset 536
  24:bluetooth.c   ****     
 494              		.loc 1 24 0
 495 0006 674C     		ldr	r4, .L36+4
 496 0008 2060     		str	r0, [r4]
 497              	.LBB18:
 498              	.LBB19:
 499              		.file 2 "Generated_Source\\PSoC6\\pdl\\cmsis/include/cmsis_gcc.h"
   1:Generated_Source\PSoC6\pdl\cmsis/include/cmsis_gcc.h **** /**************************************************************************//**
   2:Generated_Source\PSoC6\pdl\cmsis/include/cmsis_gcc.h ****  * @file     cmsis_gcc.h
   3:Generated_Source\PSoC6\pdl\cmsis/include/cmsis_gcc.h ****  * @brief    CMSIS compiler GCC header file
   4:Generated_Source\PSoC6\pdl\cmsis/include/cmsis_gcc.h ****  * @version  V5.0.1
   5:Generated_Source\PSoC6\pdl\cmsis/include/cmsis_gcc.h ****  * @date     02. February 2017
   6:Generated_Source\PSoC6\pdl\cmsis/include/cmsis_gcc.h ****  ******************************************************************************/
   7:Generated_Source\PSoC6\pdl\cmsis/include/cmsis_gcc.h **** /*
   8:Generated_Source\PSoC6\pdl\cmsis/include/cmsis_gcc.h ****  * Copyright (c) 2009-2017 ARM Limited. All rights reserved.
   9:Generated_Source\PSoC6\pdl\cmsis/include/cmsis_gcc.h ****  *
  10:Generated_Source\PSoC6\pdl\cmsis/include/cmsis_gcc.h ****  * SPDX-License-Identifier: Apache-2.0
  11:Generated_Source\PSoC6\pdl\cmsis/include/cmsis_gcc.h ****  *
  12:Generated_Source\PSoC6\pdl\cmsis/include/cmsis_gcc.h ****  * Licensed under the Apache License, Version 2.0 (the License); you may
  13:Generated_Source\PSoC6\pdl\cmsis/include/cmsis_gcc.h ****  * not use this file except in compliance with the License.
  14:Generated_Source\PSoC6\pdl\cmsis/include/cmsis_gcc.h ****  * You may obtain a copy of the License at
  15:Generated_Source\PSoC6\pdl\cmsis/include/cmsis_gcc.h ****  *
  16:Generated_Source\PSoC6\pdl\cmsis/include/cmsis_gcc.h ****  * www.apache.org/licenses/LICENSE-2.0
  17:Generated_Source\PSoC6\pdl\cmsis/include/cmsis_gcc.h ****  *
  18:Generated_Source\PSoC6\pdl\cmsis/include/cmsis_gcc.h ****  * Unless required by applicable law or agreed to in writing, software
  19:Generated_Source\PSoC6\pdl\cmsis/include/cmsis_gcc.h ****  * distributed under the License is distributed on an AS IS BASIS, WITHOUT
ARM GAS  C:\Users\Brian\AppData\Local\Temp\ccNQoqIU.s 			page 16


  20:Generated_Source\PSoC6\pdl\cmsis/include/cmsis_gcc.h ****  * WARRANTIES OR CONDITIONS OF ANY KIND, either express or implied.
  21:Generated_Source\PSoC6\pdl\cmsis/include/cmsis_gcc.h ****  * See the License for the specific language governing permissions and
  22:Generated_Source\PSoC6\pdl\cmsis/include/cmsis_gcc.h ****  * limitations under the License.
  23:Generated_Source\PSoC6\pdl\cmsis/include/cmsis_gcc.h ****  */
  24:Generated_Source\PSoC6\pdl\cmsis/include/cmsis_gcc.h **** 
  25:Generated_Source\PSoC6\pdl\cmsis/include/cmsis_gcc.h **** #ifndef __CMSIS_GCC_H
  26:Generated_Source\PSoC6\pdl\cmsis/include/cmsis_gcc.h **** #define __CMSIS_GCC_H
  27:Generated_Source\PSoC6\pdl\cmsis/include/cmsis_gcc.h **** 
  28:Generated_Source\PSoC6\pdl\cmsis/include/cmsis_gcc.h **** /* ignore some GCC warnings */
  29:Generated_Source\PSoC6\pdl\cmsis/include/cmsis_gcc.h **** #pragma GCC diagnostic push
  30:Generated_Source\PSoC6\pdl\cmsis/include/cmsis_gcc.h **** #pragma GCC diagnostic ignored "-Wsign-conversion"
  31:Generated_Source\PSoC6\pdl\cmsis/include/cmsis_gcc.h **** #pragma GCC diagnostic ignored "-Wconversion"
  32:Generated_Source\PSoC6\pdl\cmsis/include/cmsis_gcc.h **** #pragma GCC diagnostic ignored "-Wunused-parameter"
  33:Generated_Source\PSoC6\pdl\cmsis/include/cmsis_gcc.h **** 
  34:Generated_Source\PSoC6\pdl\cmsis/include/cmsis_gcc.h **** /* CMSIS compiler specific defines */
  35:Generated_Source\PSoC6\pdl\cmsis/include/cmsis_gcc.h **** #ifndef   __ASM
  36:Generated_Source\PSoC6\pdl\cmsis/include/cmsis_gcc.h ****   #define __ASM                     __asm
  37:Generated_Source\PSoC6\pdl\cmsis/include/cmsis_gcc.h **** #endif
  38:Generated_Source\PSoC6\pdl\cmsis/include/cmsis_gcc.h **** #ifndef   __INLINE
  39:Generated_Source\PSoC6\pdl\cmsis/include/cmsis_gcc.h ****   #define __INLINE                  inline
  40:Generated_Source\PSoC6\pdl\cmsis/include/cmsis_gcc.h **** #endif
  41:Generated_Source\PSoC6\pdl\cmsis/include/cmsis_gcc.h **** #ifndef   __STATIC_INLINE
  42:Generated_Source\PSoC6\pdl\cmsis/include/cmsis_gcc.h ****   #define __STATIC_INLINE           static inline
  43:Generated_Source\PSoC6\pdl\cmsis/include/cmsis_gcc.h **** #endif
  44:Generated_Source\PSoC6\pdl\cmsis/include/cmsis_gcc.h **** #ifndef   __NO_RETURN
  45:Generated_Source\PSoC6\pdl\cmsis/include/cmsis_gcc.h ****   #define __NO_RETURN               __attribute__((noreturn))
  46:Generated_Source\PSoC6\pdl\cmsis/include/cmsis_gcc.h **** #endif
  47:Generated_Source\PSoC6\pdl\cmsis/include/cmsis_gcc.h **** #ifndef   __USED
  48:Generated_Source\PSoC6\pdl\cmsis/include/cmsis_gcc.h ****   #define __USED                    __attribute__((used))
  49:Generated_Source\PSoC6\pdl\cmsis/include/cmsis_gcc.h **** #endif
  50:Generated_Source\PSoC6\pdl\cmsis/include/cmsis_gcc.h **** #ifndef   __WEAK
  51:Generated_Source\PSoC6\pdl\cmsis/include/cmsis_gcc.h ****   #define __WEAK                    __attribute__((weak))
  52:Generated_Source\PSoC6\pdl\cmsis/include/cmsis_gcc.h **** #endif
  53:Generated_Source\PSoC6\pdl\cmsis/include/cmsis_gcc.h **** #ifndef   __UNALIGNED_UINT32
  54:Generated_Source\PSoC6\pdl\cmsis/include/cmsis_gcc.h **** #pragma GCC diagnostic push
  55:Generated_Source\PSoC6\pdl\cmsis/include/cmsis_gcc.h **** #pragma GCC diagnostic ignored "-Wpacked"
  56:Generated_Source\PSoC6\pdl\cmsis/include/cmsis_gcc.h **** #pragma GCC diagnostic ignored "-Wattributes"
  57:Generated_Source\PSoC6\pdl\cmsis/include/cmsis_gcc.h ****   struct __attribute__((packed)) T_UINT32 { uint32_t v; };
  58:Generated_Source\PSoC6\pdl\cmsis/include/cmsis_gcc.h **** #pragma GCC diagnostic pop
  59:Generated_Source\PSoC6\pdl\cmsis/include/cmsis_gcc.h ****   #define __UNALIGNED_UINT32(x)     (((struct T_UINT32 *)(x))->v)
  60:Generated_Source\PSoC6\pdl\cmsis/include/cmsis_gcc.h **** #endif
  61:Generated_Source\PSoC6\pdl\cmsis/include/cmsis_gcc.h **** #ifndef   __ALIGNED
  62:Generated_Source\PSoC6\pdl\cmsis/include/cmsis_gcc.h ****   #define __ALIGNED(x)              __attribute__((aligned(x)))
  63:Generated_Source\PSoC6\pdl\cmsis/include/cmsis_gcc.h **** #endif
  64:Generated_Source\PSoC6\pdl\cmsis/include/cmsis_gcc.h **** #ifndef   __PACKED
  65:Generated_Source\PSoC6\pdl\cmsis/include/cmsis_gcc.h ****   #define __PACKED                  __attribute__((packed, aligned(1)))
  66:Generated_Source\PSoC6\pdl\cmsis/include/cmsis_gcc.h **** #endif
  67:Generated_Source\PSoC6\pdl\cmsis/include/cmsis_gcc.h **** #ifndef   __PACKED_STRUCT
  68:Generated_Source\PSoC6\pdl\cmsis/include/cmsis_gcc.h ****   #define __PACKED_STRUCT           struct __attribute__((packed, aligned(1)))
  69:Generated_Source\PSoC6\pdl\cmsis/include/cmsis_gcc.h **** #endif
  70:Generated_Source\PSoC6\pdl\cmsis/include/cmsis_gcc.h **** 
  71:Generated_Source\PSoC6\pdl\cmsis/include/cmsis_gcc.h **** 
  72:Generated_Source\PSoC6\pdl\cmsis/include/cmsis_gcc.h **** /* ###########################  Core Function Access  ########################### */
  73:Generated_Source\PSoC6\pdl\cmsis/include/cmsis_gcc.h **** /** \ingroup  CMSIS_Core_FunctionInterface
  74:Generated_Source\PSoC6\pdl\cmsis/include/cmsis_gcc.h ****     \defgroup CMSIS_Core_RegAccFunctions CMSIS Core Register Access Functions
  75:Generated_Source\PSoC6\pdl\cmsis/include/cmsis_gcc.h ****   @{
  76:Generated_Source\PSoC6\pdl\cmsis/include/cmsis_gcc.h ****  */
ARM GAS  C:\Users\Brian\AppData\Local\Temp\ccNQoqIU.s 			page 17


  77:Generated_Source\PSoC6\pdl\cmsis/include/cmsis_gcc.h **** 
  78:Generated_Source\PSoC6\pdl\cmsis/include/cmsis_gcc.h **** /**
  79:Generated_Source\PSoC6\pdl\cmsis/include/cmsis_gcc.h ****   \brief   Enable IRQ Interrupts
  80:Generated_Source\PSoC6\pdl\cmsis/include/cmsis_gcc.h ****   \details Enables IRQ interrupts by clearing the I-bit in the CPSR.
  81:Generated_Source\PSoC6\pdl\cmsis/include/cmsis_gcc.h ****            Can only be executed in Privileged modes.
  82:Generated_Source\PSoC6\pdl\cmsis/include/cmsis_gcc.h ****  */
  83:Generated_Source\PSoC6\pdl\cmsis/include/cmsis_gcc.h **** __attribute__((always_inline)) __STATIC_INLINE void __enable_irq(void)
  84:Generated_Source\PSoC6\pdl\cmsis/include/cmsis_gcc.h **** {
  85:Generated_Source\PSoC6\pdl\cmsis/include/cmsis_gcc.h ****   __ASM volatile ("cpsie i" : : : "memory");
 500              		.loc 2 85 0
 501              		.syntax divided
 502              	@ 85 "Generated_Source\PSoC6\pdl\cmsis/include/cmsis_gcc.h" 1
 503 000a 62B6     		cpsie i
 504              	@ 0 "" 2
 505              		.thumb
 506              		.syntax unified
 507              	.LBE19:
 508              	.LBE18:
  30:bluetooth.c   ****     
 509              		.loc 1 30 0
 510 000c 6648     		ldr	r0, .L36+8
 511              	.LVL42:
 512 000e FFF7FEFF 		bl	Cy_SysEnableCM4
 513              	.LVL43:
  33:bluetooth.c   ****     setvbuf(stdin, NULL, _IONBF, 0);
 514              		.loc 1 33 0
 515 0012 FFF7FEFF 		bl	UART_Start
 516              	.LVL44:
  34:bluetooth.c   ****     printf("***********************************\r\n");
 517              		.loc 1 34 0
 518 0016 654B     		ldr	r3, .L36+12
 519 0018 1B68     		ldr	r3, [r3]
 520 001a 5868     		ldr	r0, [r3, #4]
 521 001c 0023     		movs	r3, #0
 522 001e 0222     		movs	r2, #2
 523 0020 0021     		movs	r1, #0
 524 0022 FFF7FEFF 		bl	setvbuf
 525              	.LVL45:
  35:bluetooth.c   ****     printf("***     SEL VOLTAGE MONITOR     ***\r\n");
 526              		.loc 1 35 0
 527 0026 6248     		ldr	r0, .L36+16
 528 0028 FFF7FEFF 		bl	puts
 529              	.LVL46:
  36:bluetooth.c   ****     printf("***       TEAM REMBRANDT        ***\r\n");
 530              		.loc 1 36 0
 531 002c 6148     		ldr	r0, .L36+20
 532 002e FFF7FEFF 		bl	puts
 533              	.LVL47:
  37:bluetooth.c   ****     printf("*** WASHINGTON STATE UNIVERSITY ***\r\n");
 534              		.loc 1 37 0
 535 0032 6148     		ldr	r0, .L36+24
 536 0034 FFF7FEFF 		bl	puts
 537              	.LVL48:
  38:bluetooth.c   ****     printf("***            2020             ***\r\n");
 538              		.loc 1 38 0
 539 0038 6048     		ldr	r0, .L36+28
 540 003a FFF7FEFF 		bl	puts
ARM GAS  C:\Users\Brian\AppData\Local\Temp\ccNQoqIU.s 			page 18


 541              	.LVL49:
  39:bluetooth.c   ****     printf("***********************************\r\n\n");
 542              		.loc 1 39 0
 543 003e 6048     		ldr	r0, .L36+32
 544 0040 FFF7FEFF 		bl	puts
 545              	.LVL50:
  40:bluetooth.c   **** 
 546              		.loc 1 40 0
 547 0044 5F48     		ldr	r0, .L36+36
 548 0046 FFF7FEFF 		bl	puts
 549              	.LVL51:
  44:bluetooth.c   ****                          CM0_MessageCallback,
 550              		.loc 1 44 0
 551 004a 0122     		movs	r2, #1
 552 004c 5E49     		ldr	r1, .L36+40
 553 004e 0020     		movs	r0, #0
 554 0050 FFF7FEFF 		bl	Cy_IPC_Pipe_RegisterCallback
 555              	.LVL52:
  50:bluetooth.c   ****     {
 556              		.loc 1 50 0
 557 0054 2368     		ldr	r3, [r4]
 558 0056 1B68     		ldr	r3, [r3]
 559 0058 1A78     		ldrb	r2, [r3]
 560 005a 572A     		cmp	r2, #87
 561 005c 40D1     		bne	.L20
  50:bluetooth.c   ****     {
 562              		.loc 1 50 0 is_stmt 0 discriminator 1
 563 005e 5A78     		ldrb	r2, [r3, #1]
 564 0060 532A     		cmp	r2, #83
 565 0062 3DD1     		bne	.L20
  50:bluetooth.c   ****     {
 566              		.loc 1 50 0 discriminator 2
 567 0064 9B78     		ldrb	r3, [r3, #2]
 568 0066 552B     		cmp	r3, #85
 569 0068 3AD1     		bne	.L20
  52:bluetooth.c   ****         // W S U indicates that flash data has been previously written
 570              		.loc 1 52 0 is_stmt 1
 571 006a 5848     		ldr	r0, .L36+44
 572 006c FFF7FEFF 		bl	puts
 573              	.LVL53:
  55:bluetooth.c   ****         upper_thresh[1] = flashPtrs[0][4];
 574              		.loc 1 55 0
 575 0070 4C4B     		ldr	r3, .L36+4
 576 0072 1E68     		ldr	r6, [r3]
 577 0074 564B     		ldr	r3, .L36+48
 578 0076 3268     		ldr	r2, [r6]
 579 0078 D278     		ldrb	r2, [r2, #3]
 580 007a 1A70     		strb	r2, [r3]
  56:bluetooth.c   ****         lower_thresh[0] = flashPtrs[0][5];
 581              		.loc 1 56 0
 582 007c 3268     		ldr	r2, [r6]
 583 007e 1279     		ldrb	r2, [r2, #4]
 584 0080 5A70     		strb	r2, [r3, #1]
  57:bluetooth.c   ****         lower_thresh[1] = flashPtrs[0][6];
 585              		.loc 1 57 0
 586 0082 544B     		ldr	r3, .L36+52
 587 0084 3268     		ldr	r2, [r6]
ARM GAS  C:\Users\Brian\AppData\Local\Temp\ccNQoqIU.s 			page 19


 588 0086 5279     		ldrb	r2, [r2, #5]
 589 0088 1A70     		strb	r2, [r3]
  58:bluetooth.c   ****         // Pull events and number of events
 590              		.loc 1 58 0
 591 008a 3268     		ldr	r2, [r6]
 592 008c 9279     		ldrb	r2, [r2, #6]
 593 008e 5A70     		strb	r2, [r3, #1]
  62:bluetooth.c   ****         for(uint8_t i = 0; i < 10; ++i)
 594              		.loc 1 62 0
 595 0090 0022     		movs	r2, #0
 596 0092 514B     		ldr	r3, .L36+56
 597 0094 1A70     		strb	r2, [r3]
 598              	.LVL54:
 599              	.LBB20:
  63:bluetooth.c   ****         {
 600              		.loc 1 63 0
 601 0096 0024     		movs	r4, #0
 602 0098 1FE0     		b	.L21
 603              	.LVL55:
 604              	.L24:
  65:bluetooth.c   ****             for(uint16_t j = 0; j < 160; ++j)
 605              		.loc 1 65 0
 606 009a 651C     		adds	r5, r4, #1
 607 009c AD00     		lsls	r5, r5, #2
 608 009e 7519     		adds	r5, r6, r5
 609 00a0 2B68     		ldr	r3, [r5]
 610 00a2 1978     		ldrb	r1, [r3]
 611 00a4 4C4A     		ldr	r2, .L36+56
 612 00a6 1378     		ldrb	r3, [r2]
 613 00a8 CB18     		adds	r3, r1, r3
 614 00aa 1370     		strb	r3, [r2]
 615              	.LVL56:
 616              	.LBB21:
  66:bluetooth.c   ****             {
 617              		.loc 1 66 0
 618 00ac 0023     		movs	r3, #0
 619 00ae 10E0     		b	.L22
 620              	.LVL57:
 621              	.L23:
  68:bluetooth.c   ****             }
 622              		.loc 1 68 0 discriminator 3
 623 00b0 5A00     		lsls	r2, r3, #1
 624 00b2 2968     		ldr	r1, [r5]
 625 00b4 8C46     		mov	ip, r1
 626 00b6 6244     		add	r2, r2, ip
 627 00b8 9078     		ldrb	r0, [r2, #2]
 628 00ba D778     		ldrb	r7, [r2, #3]
 629 00bc A100     		lsls	r1, r4, #2
 630 00be 0919     		adds	r1, r1, r4
 631 00c0 4A01     		lsls	r2, r1, #5
 632 00c2 D218     		adds	r2, r2, r3
 633 00c4 5200     		lsls	r2, r2, #1
 634 00c6 3902     		lsls	r1, r7, #8
 635 00c8 0918     		adds	r1, r1, r0
 636 00ca 4448     		ldr	r0, .L36+60
 637 00cc 1152     		strh	r1, [r2, r0]
  66:bluetooth.c   ****             {
ARM GAS  C:\Users\Brian\AppData\Local\Temp\ccNQoqIU.s 			page 20


 638              		.loc 1 66 0 discriminator 3
 639 00ce 0133     		adds	r3, r3, #1
 640              	.LVL58:
 641 00d0 9BB2     		uxth	r3, r3
 642              	.LVL59:
 643              	.L22:
  66:bluetooth.c   ****             {
 644              		.loc 1 66 0 is_stmt 0 discriminator 1
 645 00d2 9F2B     		cmp	r3, #159
 646 00d4 ECD9     		bls	.L23
 647              	.LBE21:
  63:bluetooth.c   ****         {
 648              		.loc 1 63 0 is_stmt 1 discriminator 2
 649 00d6 0134     		adds	r4, r4, #1
 650              	.LVL60:
 651 00d8 E4B2     		uxtb	r4, r4
 652              	.LVL61:
 653              	.L21:
  63:bluetooth.c   ****         {
 654              		.loc 1 63 0 is_stmt 0 discriminator 1
 655 00da 092C     		cmp	r4, #9
 656 00dc DDD9     		bls	.L24
 657 00de 3CE0     		b	.L25
 658              	.LVL62:
 659              	.L20:
 660              	.LBE20:
 661              	.LBB22:
  74:bluetooth.c   ****         // Flash data not present, writing default values to flash
 662              		.loc 1 74 0 is_stmt 1
 663 00e0 3F48     		ldr	r0, .L36+64
 664 00e2 FFF7FEFF 		bl	puts
 665              	.LVL63:
  76:bluetooth.c   ****         // Default upper threshold = 130V
 666              		.loc 1 76 0
 667 00e6 0022     		movs	r2, #0
 668 00e8 3B4B     		ldr	r3, .L36+56
 669 00ea 1A70     		strb	r2, [r3]
  78:bluetooth.c   ****         upper_thresh[1] = 0x04;
 670              		.loc 1 78 0
 671 00ec 384B     		ldr	r3, .L36+48
 672 00ee 5532     		adds	r2, r2, #85
 673 00f0 1A70     		strb	r2, [r3]
  79:bluetooth.c   ****         // Default lower threshold = 120V
 674              		.loc 1 79 0
 675 00f2 513A     		subs	r2, r2, #81
 676 00f4 5A70     		strb	r2, [r3, #1]
  81:bluetooth.c   ****         lower_thresh[1] = 0x03;
 677              		.loc 1 81 0
 678 00f6 374B     		ldr	r3, .L36+52
 679 00f8 A732     		adds	r2, r2, #167
 680 00fa 1A70     		strb	r2, [r3]
  82:bluetooth.c   ****         // Initialize events
 681              		.loc 1 82 0
 682 00fc A83A     		subs	r2, r2, #168
 683 00fe 5A70     		strb	r2, [r3, #1]
 684              	.LVL64:
 685              	.LBB23:
ARM GAS  C:\Users\Brian\AppData\Local\Temp\ccNQoqIU.s 			page 21


  84:bluetooth.c   ****         {
 686              		.loc 1 84 0
 687 0100 0020     		movs	r0, #0
 688 0102 0FE0     		b	.L26
 689              	.LVL65:
 690              	.L27:
 691              	.LBB24:
  88:bluetooth.c   ****             }
 692              		.loc 1 88 0 discriminator 3
 693 0104 8100     		lsls	r1, r0, #2
 694 0106 0918     		adds	r1, r1, r0
 695 0108 4B01     		lsls	r3, r1, #5
 696 010a 9B18     		adds	r3, r3, r2
 697 010c 5B00     		lsls	r3, r3, #1
 698 010e 0024     		movs	r4, #0
 699 0110 3249     		ldr	r1, .L36+60
 700 0112 5C52     		strh	r4, [r3, r1]
  86:bluetooth.c   ****             {
 701              		.loc 1 86 0 discriminator 3
 702 0114 0132     		adds	r2, r2, #1
 703              	.LVL66:
 704 0116 92B2     		uxth	r2, r2
 705              	.LVL67:
 706 0118 00E0     		b	.L28
 707              	.LVL68:
 708              	.L35:
 709              	.LBE24:
 710 011a 0022     		movs	r2, #0
 711              	.L28:
 712              	.LVL69:
 713              	.LBB25:
  86:bluetooth.c   ****             {
 714              		.loc 1 86 0 is_stmt 0 discriminator 1
 715 011c 9F2A     		cmp	r2, #159
 716 011e F1D9     		bls	.L27
 717              	.LBE25:
  84:bluetooth.c   ****         {
 718              		.loc 1 84 0 is_stmt 1 discriminator 2
 719 0120 0130     		adds	r0, r0, #1
 720              	.LVL70:
 721 0122 C0B2     		uxtb	r0, r0
 722              	.LVL71:
 723              	.L26:
  84:bluetooth.c   ****         {
 724              		.loc 1 84 0 is_stmt 0 discriminator 1
 725 0124 0928     		cmp	r0, #9
 726 0126 F8D9     		bls	.L35
 727              	.LBE23:
  92:bluetooth.c   ****         // Initialize events in flash
 728              		.loc 1 92 0 is_stmt 1
 729 0128 FFF7FEFF 		bl	update_flash_config
 730              	.LVL72:
 731              	.LBB26:
  95:bluetooth.c   ****         {
 732              		.loc 1 95 0
 733 012c 0023     		movs	r3, #0
 734 012e 04E0     		b	.L29
ARM GAS  C:\Users\Brian\AppData\Local\Temp\ccNQoqIU.s 			page 22


 735              	.LVL73:
 736              	.L30:
  97:bluetooth.c   ****         }
 737              		.loc 1 97 0 discriminator 3
 738 0130 0022     		movs	r2, #0
 739 0132 6946     		mov	r1, sp
 740 0134 CA54     		strb	r2, [r1, r3]
  95:bluetooth.c   ****         {
 741              		.loc 1 95 0 discriminator 3
 742 0136 0133     		adds	r3, r3, #1
 743              	.LVL74:
 744 0138 9BB2     		uxth	r3, r3
 745              	.LVL75:
 746              	.L29:
  95:bluetooth.c   ****         {
 747              		.loc 1 95 0 is_stmt 0 discriminator 1
 748 013a 2A4A     		ldr	r2, .L36+68
 749 013c 9342     		cmp	r3, r2
 750 013e F7D9     		bls	.L30
 751 0140 0124     		movs	r4, #1
 752 0142 08E0     		b	.L31
 753              	.LVL76:
 754              	.L32:
 755              	.LBE26:
 756              	.LBB27:
 101:bluetooth.c   ****         }
 757              		.loc 1 101 0 is_stmt 1 discriminator 3
 758 0144 174B     		ldr	r3, .L36+4
 759 0146 1B68     		ldr	r3, [r3]
 760 0148 A200     		lsls	r2, r4, #2
 761 014a D058     		ldr	r0, [r2, r3]
 762 014c 6946     		mov	r1, sp
 763 014e FFF7FEFF 		bl	Cy_Flash_WriteRow
 764              	.LVL77:
  99:bluetooth.c   ****         {
 765              		.loc 1 99 0 discriminator 3
 766 0152 0134     		adds	r4, r4, #1
 767              	.LVL78:
 768 0154 E4B2     		uxtb	r4, r4
 769              	.LVL79:
 770              	.L31:
  99:bluetooth.c   ****         {
 771              		.loc 1 99 0 is_stmt 0 discriminator 1
 772 0156 0A2C     		cmp	r4, #10
 773 0158 F4D9     		bls	.L32
 774              	.LVL80:
 775              	.L25:
 776              	.LBE27:
 777              	.LBE22:
 106:bluetooth.c   ****     while(Cy_BLE_GetState() != CY_BLE_STATE_ON)
 778              		.loc 1 106 0 is_stmt 1
 779 015a 2348     		ldr	r0, .L36+72
 780 015c FFF7FEFF 		bl	Cy_BLE_Start
 781              	.LVL81:
 107:bluetooth.c   ****     {
 782              		.loc 1 107 0
 783 0160 01E0     		b	.L33
ARM GAS  C:\Users\Brian\AppData\Local\Temp\ccNQoqIU.s 			page 23


 784              	.L34:
 109:bluetooth.c   ****     }
 785              		.loc 1 109 0
 786 0162 FFF7FEFF 		bl	Cy_BLE_ProcessEvents
 787              	.LVL82:
 788              	.L33:
 107:bluetooth.c   ****     {
 789              		.loc 1 107 0
 790 0166 214B     		ldr	r3, .L36+76
 791 0168 1B78     		ldrb	r3, [r3]
 792 016a 022B     		cmp	r3, #2
 793 016c F9D1     		bne	.L34
 112:bluetooth.c   ****     send_threshold(lower_thresh, type_lower_threshold);
 794              		.loc 1 112 0
 795 016e 184D     		ldr	r5, .L36+48
 796 0170 0221     		movs	r1, #2
 797 0172 2800     		movs	r0, r5
 798 0174 FFF7FEFF 		bl	send_threshold
 799              	.LVL83:
 113:bluetooth.c   ****     
 800              		.loc 1 113 0
 801 0178 164C     		ldr	r4, .L36+52
 802 017a 0321     		movs	r1, #3
 803 017c 2000     		movs	r0, r4
 804 017e FFF7FEFF 		bl	send_threshold
 805              	.LVL84:
 116:bluetooth.c   ****     write_threshold_to_server(upper_thresh, 'u');
 806              		.loc 1 116 0
 807 0182 1548     		ldr	r0, .L36+56
 808 0184 FFF7FEFF 		bl	write_num_events_to_server
 809              	.LVL85:
 117:bluetooth.c   ****     write_threshold_to_server(lower_thresh, 'l');
 810              		.loc 1 117 0
 811 0188 7521     		movs	r1, #117
 812 018a 2800     		movs	r0, r5
 813 018c FFF7FEFF 		bl	write_threshold_to_server
 814              	.LVL86:
 118:bluetooth.c   **** }
 815              		.loc 1 118 0
 816 0190 6C21     		movs	r1, #108
 817 0192 2000     		movs	r0, r4
 818 0194 FFF7FEFF 		bl	write_threshold_to_server
 819              	.LVL87:
 119:bluetooth.c   **** 
 820              		.loc 1 119 0
 821 0198 8123     		movs	r3, #129
 822 019a 9B00     		lsls	r3, r3, #2
 823 019c 9D44     		add	sp, sp, r3
 824              		@ sp needed
 825 019e F0BD     		pop	{r4, r5, r6, r7, pc}
 826              	.L37:
 827              		.align	2
 828              	.L36:
 829 01a0 FCFDFFFF 		.word	-516
 830 01a4 00000000 		.word	flashPtrs
 831 01a8 00000810 		.word	268959744
 832 01ac 00000000 		.word	_impure_ptr
ARM GAS  C:\Users\Brian\AppData\Local\Temp\ccNQoqIU.s 			page 24


 833 01b0 80000000 		.word	.LC13
 834 01b4 A8000000 		.word	.LC15
 835 01b8 D0000000 		.word	.LC17
 836 01bc F8000000 		.word	.LC19
 837 01c0 20010000 		.word	.LC21
 838 01c4 48010000 		.word	.LC23
 839 01c8 00000000 		.word	CM0_MessageCallback
 840 01cc 70010000 		.word	.LC26
 841 01d0 00000000 		.word	upper_thresh
 842 01d4 00000000 		.word	lower_thresh
 843 01d8 00000000 		.word	num_events
 844 01dc 00000000 		.word	events
 845 01e0 84010000 		.word	.LC32
 846 01e4 FF010000 		.word	511
 847 01e8 00000000 		.word	BluetoothEventHandler
 848 01ec 00000000 		.word	cy_ble_state
 849              		.cfi_endproc
 850              	.LFE443:
 851              		.size	init_ble, .-init_ble
 852              		.section	.text.BluetoothEventHandler,"ax",%progbits
 853              		.align	2
 854              		.global	BluetoothEventHandler
 855              		.code	16
 856              		.thumb_func
 857              		.type	BluetoothEventHandler, %function
 858              	BluetoothEventHandler:
 859              	.LFB444:
 122:bluetooth.c   ****     cy_stc_ble_gattc_write_cmd_req_t *writeReqParam;
 860              		.loc 1 122 0
 861              		.cfi_startproc
 862              		@ args = 0, pretend = 0, frame = 0
 863              		@ frame_needed = 0, uses_anonymous_args = 0
 864              	.LVL88:
 865 0000 70B5     		push	{r4, r5, r6, lr}
 866              		.cfi_def_cfa_offset 16
 867              		.cfi_offset 4, -16
 868              		.cfi_offset 5, -12
 869              		.cfi_offset 6, -8
 870              		.cfi_offset 14, -4
 871 0002 0C00     		movs	r4, r1
 124:bluetooth.c   ****     {
 872              		.loc 1 124 0
 873 0004 494B     		ldr	r3, .L51
 874 0006 9842     		cmp	r0, r3
 875 0008 0CD0     		beq	.L40
 876 000a 04D8     		bhi	.L41
 877 000c 8023     		movs	r3, #128
 878 000e 5B01     		lsls	r3, r3, #5
 879 0010 9842     		cmp	r0, r3
 880 0012 07D0     		beq	.L40
 881 0014 88E0     		b	.L38
 882              	.L41:
 883 0016 464B     		ldr	r3, .L51+4
 884 0018 9842     		cmp	r0, r3
 885 001a 0ED0     		beq	.L42
 886 001c 454B     		ldr	r3, .L51+8
 887 001e 9842     		cmp	r0, r3
ARM GAS  C:\Users\Brian\AppData\Local\Temp\ccNQoqIU.s 			page 25


 888 0020 12D0     		beq	.L43
 889 0022 81E0     		b	.L38
 890              	.L40:
 128:bluetooth.c   ****             // Turn off connection LED
 891              		.loc 1 128 0
 892 0024 4448     		ldr	r0, .L51+12
 893              	.LVL89:
 894 0026 FFF7FEFF 		bl	puts
 895              	.LVL90:
 896              	.LBB28:
 897              	.LBB29:
 898              		.file 3 "Generated_Source\\PSoC6\\pdl\\drivers/peripheral/gpio/cy_gpio.h"
   1:Generated_Source\PSoC6\pdl\drivers/peripheral/gpio/cy_gpio.h **** /***************************************************************************//**
   2:Generated_Source\PSoC6\pdl\drivers/peripheral/gpio/cy_gpio.h **** * \file cy_gpio.h
   3:Generated_Source\PSoC6\pdl\drivers/peripheral/gpio/cy_gpio.h **** * \version 1.10.1
   4:Generated_Source\PSoC6\pdl\drivers/peripheral/gpio/cy_gpio.h **** *
   5:Generated_Source\PSoC6\pdl\drivers/peripheral/gpio/cy_gpio.h **** * \brief
   6:Generated_Source\PSoC6\pdl\drivers/peripheral/gpio/cy_gpio.h **** * Provides an API declaration of the GPIO driver
   7:Generated_Source\PSoC6\pdl\drivers/peripheral/gpio/cy_gpio.h **** *
   8:Generated_Source\PSoC6\pdl\drivers/peripheral/gpio/cy_gpio.h **** ********************************************************************************
   9:Generated_Source\PSoC6\pdl\drivers/peripheral/gpio/cy_gpio.h **** * \copyright
  10:Generated_Source\PSoC6\pdl\drivers/peripheral/gpio/cy_gpio.h **** * Copyright 2016-2018, Cypress Semiconductor Corporation. All rights reserved.
  11:Generated_Source\PSoC6\pdl\drivers/peripheral/gpio/cy_gpio.h **** * You may use this file only in accordance with the license, terms, conditions,
  12:Generated_Source\PSoC6\pdl\drivers/peripheral/gpio/cy_gpio.h **** * disclaimers, and limitations in the end user license agreement accompanying
  13:Generated_Source\PSoC6\pdl\drivers/peripheral/gpio/cy_gpio.h **** * the software package with which this file was provided.
  14:Generated_Source\PSoC6\pdl\drivers/peripheral/gpio/cy_gpio.h **** *******************************************************************************/
  15:Generated_Source\PSoC6\pdl\drivers/peripheral/gpio/cy_gpio.h **** 
  16:Generated_Source\PSoC6\pdl\drivers/peripheral/gpio/cy_gpio.h **** /**
  17:Generated_Source\PSoC6\pdl\drivers/peripheral/gpio/cy_gpio.h **** * \defgroup group_gpio General Purpose Input Output (GPIO)
  18:Generated_Source\PSoC6\pdl\drivers/peripheral/gpio/cy_gpio.h **** * \{
  19:Generated_Source\PSoC6\pdl\drivers/peripheral/gpio/cy_gpio.h **** * The GPIO driver provides an API to configure and access device Input/Output pins.
  20:Generated_Source\PSoC6\pdl\drivers/peripheral/gpio/cy_gpio.h **** * IO pins include all general purpose types such as GPIO, SIO, HSIO, AUXIO, and
  21:Generated_Source\PSoC6\pdl\drivers/peripheral/gpio/cy_gpio.h **** * their variants.
  22:Generated_Source\PSoC6\pdl\drivers/peripheral/gpio/cy_gpio.h **** *
  23:Generated_Source\PSoC6\pdl\drivers/peripheral/gpio/cy_gpio.h **** * Initialization can be performed either at the port level or by configuring the
  24:Generated_Source\PSoC6\pdl\drivers/peripheral/gpio/cy_gpio.h **** * individual pins. For efficient use of code space, port
  25:Generated_Source\PSoC6\pdl\drivers/peripheral/gpio/cy_gpio.h **** * configuration should be used in the field. Refer to the product device header files 
  26:Generated_Source\PSoC6\pdl\drivers/peripheral/gpio/cy_gpio.h **** * for the list of supported ports and pins.
  27:Generated_Source\PSoC6\pdl\drivers/peripheral/gpio/cy_gpio.h **** * 
  28:Generated_Source\PSoC6\pdl\drivers/peripheral/gpio/cy_gpio.h **** * - Single pin configuration is performed by using \ref Cy_GPIO_Pin_FastInit 
  29:Generated_Source\PSoC6\pdl\drivers/peripheral/gpio/cy_gpio.h **** *   (provide specific values) or \ref Cy_GPIO_Pin_Init (provide a filled
  30:Generated_Source\PSoC6\pdl\drivers/peripheral/gpio/cy_gpio.h **** *   cy_stc_gpio_pin_config_t structure).
  31:Generated_Source\PSoC6\pdl\drivers/peripheral/gpio/cy_gpio.h **** * - An entire port can be configured using \ref Cy_GPIO_Port_Init. Provide a filled 
  32:Generated_Source\PSoC6\pdl\drivers/peripheral/gpio/cy_gpio.h **** *   cy_stc_gpio_prt_config_t structure. The values in the structure are 
  33:Generated_Source\PSoC6\pdl\drivers/peripheral/gpio/cy_gpio.h **** *   bitfields representing the desired value for each pin in the port.
  34:Generated_Source\PSoC6\pdl\drivers/peripheral/gpio/cy_gpio.h **** * - Pin configuration and management is based on the port address and pin number.
  35:Generated_Source\PSoC6\pdl\drivers/peripheral/gpio/cy_gpio.h **** *   \ref Cy_GPIO_PortToAddr function can optionally be used to calculate the port
  36:Generated_Source\PSoC6\pdl\drivers/peripheral/gpio/cy_gpio.h **** *   address from the port number at run-time.
  37:Generated_Source\PSoC6\pdl\drivers/peripheral/gpio/cy_gpio.h **** *
  38:Generated_Source\PSoC6\pdl\drivers/peripheral/gpio/cy_gpio.h **** * Once the pin/port initialization is complete, each pin can be accessed by 
  39:Generated_Source\PSoC6\pdl\drivers/peripheral/gpio/cy_gpio.h **** * specifying the port (GPIO_PRT_Type) and the pin (0-7) in the provided API 
  40:Generated_Source\PSoC6\pdl\drivers/peripheral/gpio/cy_gpio.h **** * functions.
  41:Generated_Source\PSoC6\pdl\drivers/peripheral/gpio/cy_gpio.h **** *
  42:Generated_Source\PSoC6\pdl\drivers/peripheral/gpio/cy_gpio.h **** * \section group_gpio_configuration Configuration Considerations
  43:Generated_Source\PSoC6\pdl\drivers/peripheral/gpio/cy_gpio.h **** *
  44:Generated_Source\PSoC6\pdl\drivers/peripheral/gpio/cy_gpio.h **** * 1. Pin multiplexing is controlled through the High-Speed IO Matrix (HSIOM) selection.
  45:Generated_Source\PSoC6\pdl\drivers/peripheral/gpio/cy_gpio.h **** *    This allows the pin to connect to signal sources/sinks throughout the device,
ARM GAS  C:\Users\Brian\AppData\Local\Temp\ccNQoqIU.s 			page 26


  46:Generated_Source\PSoC6\pdl\drivers/peripheral/gpio/cy_gpio.h **** *    as defined by the pin HSIOM selection options (en_hsiom_sel_t).
  47:Generated_Source\PSoC6\pdl\drivers/peripheral/gpio/cy_gpio.h **** * 2. All pins are initialized to High-Z drive mode with HSIOM connected to CPU (SW
  48:Generated_Source\PSoC6\pdl\drivers/peripheral/gpio/cy_gpio.h **** *    control digital pin only) at Power-On-Reset(POR).
  49:Generated_Source\PSoC6\pdl\drivers/peripheral/gpio/cy_gpio.h **** * 3. Some API functions perform read-modify-write operations on shared port
  50:Generated_Source\PSoC6\pdl\drivers/peripheral/gpio/cy_gpio.h **** *    registers. These functions are not thread safe and care must be taken when
  51:Generated_Source\PSoC6\pdl\drivers/peripheral/gpio/cy_gpio.h **** *    called by the application.
  52:Generated_Source\PSoC6\pdl\drivers/peripheral/gpio/cy_gpio.h **** *
  53:Generated_Source\PSoC6\pdl\drivers/peripheral/gpio/cy_gpio.h **** * Multiple pins on a port can be updated using direct port register writes with an
  54:Generated_Source\PSoC6\pdl\drivers/peripheral/gpio/cy_gpio.h **** * appropriate port mask. An example is shown below, highlighting the different ways of 
  55:Generated_Source\PSoC6\pdl\drivers/peripheral/gpio/cy_gpio.h **** * configuring Port 1 pins using,
  56:Generated_Source\PSoC6\pdl\drivers/peripheral/gpio/cy_gpio.h **** * 
  57:Generated_Source\PSoC6\pdl\drivers/peripheral/gpio/cy_gpio.h **** * - Port output data register
  58:Generated_Source\PSoC6\pdl\drivers/peripheral/gpio/cy_gpio.h **** * - Port output data set register
  59:Generated_Source\PSoC6\pdl\drivers/peripheral/gpio/cy_gpio.h **** * - Port output data clear register
  60:Generated_Source\PSoC6\pdl\drivers/peripheral/gpio/cy_gpio.h **** *
  61:Generated_Source\PSoC6\pdl\drivers/peripheral/gpio/cy_gpio.h **** * \snippet gpio/gpio_v1_10_sut_01.cydsn/main_cm4.c Cy_GPIO_Snippet
  62:Generated_Source\PSoC6\pdl\drivers/peripheral/gpio/cy_gpio.h **** *
  63:Generated_Source\PSoC6\pdl\drivers/peripheral/gpio/cy_gpio.h **** * \section group_gpio_more_information More Information
  64:Generated_Source\PSoC6\pdl\drivers/peripheral/gpio/cy_gpio.h **** *
  65:Generated_Source\PSoC6\pdl\drivers/peripheral/gpio/cy_gpio.h **** * Refer to the technical reference manual (TRM) and the device datasheet.
  66:Generated_Source\PSoC6\pdl\drivers/peripheral/gpio/cy_gpio.h **** *
  67:Generated_Source\PSoC6\pdl\drivers/peripheral/gpio/cy_gpio.h **** * \section group_gpio_MISRA MISRA-C Compliance]
  68:Generated_Source\PSoC6\pdl\drivers/peripheral/gpio/cy_gpio.h **** * <table class="doxtable">
  69:Generated_Source\PSoC6\pdl\drivers/peripheral/gpio/cy_gpio.h **** *   <tr>
  70:Generated_Source\PSoC6\pdl\drivers/peripheral/gpio/cy_gpio.h **** *     <th>MISRA Rule</th>
  71:Generated_Source\PSoC6\pdl\drivers/peripheral/gpio/cy_gpio.h **** *     <th>Rule Class (Required/Advisory)</th>
  72:Generated_Source\PSoC6\pdl\drivers/peripheral/gpio/cy_gpio.h **** *     <th>Rule Description</th>
  73:Generated_Source\PSoC6\pdl\drivers/peripheral/gpio/cy_gpio.h **** *     <th>Description of Deviation(s)</th>
  74:Generated_Source\PSoC6\pdl\drivers/peripheral/gpio/cy_gpio.h **** *   </tr>
  75:Generated_Source\PSoC6\pdl\drivers/peripheral/gpio/cy_gpio.h **** *   <tr>
  76:Generated_Source\PSoC6\pdl\drivers/peripheral/gpio/cy_gpio.h **** *     <td>16.7</td>
  77:Generated_Source\PSoC6\pdl\drivers/peripheral/gpio/cy_gpio.h **** *     <td>A</td>
  78:Generated_Source\PSoC6\pdl\drivers/peripheral/gpio/cy_gpio.h **** *     <td>A pointer parameter in a function prototype should be declared as pointer 
  79:Generated_Source\PSoC6\pdl\drivers/peripheral/gpio/cy_gpio.h **** *         to const if the pointer is not used to modify the addressed object.</td>
  80:Generated_Source\PSoC6\pdl\drivers/peripheral/gpio/cy_gpio.h **** *     <td>The objects pointed to by the base addresses of the GPIO port are not always modified.
  81:Generated_Source\PSoC6\pdl\drivers/peripheral/gpio/cy_gpio.h **** *         While a const qualifier can be used in select scenarios, it brings little benefit
  82:Generated_Source\PSoC6\pdl\drivers/peripheral/gpio/cy_gpio.h **** *         in adding this to the affected functions. </td>
  83:Generated_Source\PSoC6\pdl\drivers/peripheral/gpio/cy_gpio.h **** *   </tr>
  84:Generated_Source\PSoC6\pdl\drivers/peripheral/gpio/cy_gpio.h **** * </table>
  85:Generated_Source\PSoC6\pdl\drivers/peripheral/gpio/cy_gpio.h **** *
  86:Generated_Source\PSoC6\pdl\drivers/peripheral/gpio/cy_gpio.h **** * \section group_gpio_changelog Changelog
  87:Generated_Source\PSoC6\pdl\drivers/peripheral/gpio/cy_gpio.h **** * <table class="doxtable">
  88:Generated_Source\PSoC6\pdl\drivers/peripheral/gpio/cy_gpio.h **** *   <tr><th>Version</th><th>Changes</th><th>Reason for Change</th></tr>
  89:Generated_Source\PSoC6\pdl\drivers/peripheral/gpio/cy_gpio.h **** *   <tr>
  90:Generated_Source\PSoC6\pdl\drivers/peripheral/gpio/cy_gpio.h **** *     <td>1.10.1</td>
  91:Generated_Source\PSoC6\pdl\drivers/peripheral/gpio/cy_gpio.h **** *     <td>Updated description for the functions: \ref Cy_GPIO_GetInterruptStatus, 
  92:Generated_Source\PSoC6\pdl\drivers/peripheral/gpio/cy_gpio.h **** *         \ref Cy_GPIO_GetInterruptMask, \ref Cy_GPIO_GetInterruptStatusMasked.
  93:Generated_Source\PSoC6\pdl\drivers/peripheral/gpio/cy_gpio.h **** *         Minor documentation edits.
  94:Generated_Source\PSoC6\pdl\drivers/peripheral/gpio/cy_gpio.h **** *     </td>
  95:Generated_Source\PSoC6\pdl\drivers/peripheral/gpio/cy_gpio.h **** *     <td>Documentation update and clarification</td>
  96:Generated_Source\PSoC6\pdl\drivers/peripheral/gpio/cy_gpio.h **** *   </tr>
  97:Generated_Source\PSoC6\pdl\drivers/peripheral/gpio/cy_gpio.h **** *   <tr>
  98:Generated_Source\PSoC6\pdl\drivers/peripheral/gpio/cy_gpio.h **** *     <td>1.10</td>
  99:Generated_Source\PSoC6\pdl\drivers/peripheral/gpio/cy_gpio.h **** *     <td>Added input parameter validation to the API functions</td>
 100:Generated_Source\PSoC6\pdl\drivers/peripheral/gpio/cy_gpio.h **** *     <td></td>
 101:Generated_Source\PSoC6\pdl\drivers/peripheral/gpio/cy_gpio.h **** *   </tr>
 102:Generated_Source\PSoC6\pdl\drivers/peripheral/gpio/cy_gpio.h **** *   <tr>
ARM GAS  C:\Users\Brian\AppData\Local\Temp\ccNQoqIU.s 			page 27


 103:Generated_Source\PSoC6\pdl\drivers/peripheral/gpio/cy_gpio.h **** *     <td>1.0</td>
 104:Generated_Source\PSoC6\pdl\drivers/peripheral/gpio/cy_gpio.h **** *     <td>Initial version</td>
 105:Generated_Source\PSoC6\pdl\drivers/peripheral/gpio/cy_gpio.h **** *     <td></td>
 106:Generated_Source\PSoC6\pdl\drivers/peripheral/gpio/cy_gpio.h **** *   </tr>
 107:Generated_Source\PSoC6\pdl\drivers/peripheral/gpio/cy_gpio.h **** * </table>
 108:Generated_Source\PSoC6\pdl\drivers/peripheral/gpio/cy_gpio.h **** *
 109:Generated_Source\PSoC6\pdl\drivers/peripheral/gpio/cy_gpio.h **** * \defgroup group_gpio_macros Macros
 110:Generated_Source\PSoC6\pdl\drivers/peripheral/gpio/cy_gpio.h **** * \defgroup group_gpio_functions Functions
 111:Generated_Source\PSoC6\pdl\drivers/peripheral/gpio/cy_gpio.h **** * \{
 112:Generated_Source\PSoC6\pdl\drivers/peripheral/gpio/cy_gpio.h **** *   \defgroup group_gpio_functions_init       Initialization Functions
 113:Generated_Source\PSoC6\pdl\drivers/peripheral/gpio/cy_gpio.h **** *   \defgroup group_gpio_functions_gpio       GPIO Functions
 114:Generated_Source\PSoC6\pdl\drivers/peripheral/gpio/cy_gpio.h **** *   \defgroup group_gpio_functions_sio        SIO Functions
 115:Generated_Source\PSoC6\pdl\drivers/peripheral/gpio/cy_gpio.h **** *   \defgroup group_gpio_functions_interrupt  Port Interrupt Functions
 116:Generated_Source\PSoC6\pdl\drivers/peripheral/gpio/cy_gpio.h **** * \}
 117:Generated_Source\PSoC6\pdl\drivers/peripheral/gpio/cy_gpio.h **** * \defgroup group_gpio_data_structures Data Structures
 118:Generated_Source\PSoC6\pdl\drivers/peripheral/gpio/cy_gpio.h **** * \defgroup group_gpio_enums Enumerated Types
 119:Generated_Source\PSoC6\pdl\drivers/peripheral/gpio/cy_gpio.h **** */
 120:Generated_Source\PSoC6\pdl\drivers/peripheral/gpio/cy_gpio.h **** 
 121:Generated_Source\PSoC6\pdl\drivers/peripheral/gpio/cy_gpio.h **** #if !defined(CY_GPIO_H)
 122:Generated_Source\PSoC6\pdl\drivers/peripheral/gpio/cy_gpio.h **** #define CY_GPIO_H
 123:Generated_Source\PSoC6\pdl\drivers/peripheral/gpio/cy_gpio.h **** 
 124:Generated_Source\PSoC6\pdl\drivers/peripheral/gpio/cy_gpio.h **** #include <stddef.h>
 125:Generated_Source\PSoC6\pdl\drivers/peripheral/gpio/cy_gpio.h **** #include "syslib/cy_syslib.h"
 126:Generated_Source\PSoC6\pdl\drivers/peripheral/gpio/cy_gpio.h **** #include "cy_device_headers.h"
 127:Generated_Source\PSoC6\pdl\drivers/peripheral/gpio/cy_gpio.h **** 
 128:Generated_Source\PSoC6\pdl\drivers/peripheral/gpio/cy_gpio.h **** #if defined(__cplusplus)
 129:Generated_Source\PSoC6\pdl\drivers/peripheral/gpio/cy_gpio.h **** extern "C" {
 130:Generated_Source\PSoC6\pdl\drivers/peripheral/gpio/cy_gpio.h **** #endif
 131:Generated_Source\PSoC6\pdl\drivers/peripheral/gpio/cy_gpio.h **** 
 132:Generated_Source\PSoC6\pdl\drivers/peripheral/gpio/cy_gpio.h **** /** \addtogroup group_gpio_macros
 133:Generated_Source\PSoC6\pdl\drivers/peripheral/gpio/cy_gpio.h **** * \{
 134:Generated_Source\PSoC6\pdl\drivers/peripheral/gpio/cy_gpio.h **** */
 135:Generated_Source\PSoC6\pdl\drivers/peripheral/gpio/cy_gpio.h **** 
 136:Generated_Source\PSoC6\pdl\drivers/peripheral/gpio/cy_gpio.h **** /** Driver major version */
 137:Generated_Source\PSoC6\pdl\drivers/peripheral/gpio/cy_gpio.h **** #define CY_GPIO_DRV_VERSION_MAJOR       1
 138:Generated_Source\PSoC6\pdl\drivers/peripheral/gpio/cy_gpio.h **** 
 139:Generated_Source\PSoC6\pdl\drivers/peripheral/gpio/cy_gpio.h **** /** Driver minor version */
 140:Generated_Source\PSoC6\pdl\drivers/peripheral/gpio/cy_gpio.h **** #define CY_GPIO_DRV_VERSION_MINOR       10
 141:Generated_Source\PSoC6\pdl\drivers/peripheral/gpio/cy_gpio.h **** 
 142:Generated_Source\PSoC6\pdl\drivers/peripheral/gpio/cy_gpio.h **** /** GPIO driver ID */
 143:Generated_Source\PSoC6\pdl\drivers/peripheral/gpio/cy_gpio.h **** #define CY_GPIO_ID CY_PDL_DRV_ID(0x16u)
 144:Generated_Source\PSoC6\pdl\drivers/peripheral/gpio/cy_gpio.h **** 
 145:Generated_Source\PSoC6\pdl\drivers/peripheral/gpio/cy_gpio.h **** /** \} group_gpio_macros */
 146:Generated_Source\PSoC6\pdl\drivers/peripheral/gpio/cy_gpio.h **** 
 147:Generated_Source\PSoC6\pdl\drivers/peripheral/gpio/cy_gpio.h **** 
 148:Generated_Source\PSoC6\pdl\drivers/peripheral/gpio/cy_gpio.h **** /***************************************
 149:Generated_Source\PSoC6\pdl\drivers/peripheral/gpio/cy_gpio.h **** *       Enumerations
 150:Generated_Source\PSoC6\pdl\drivers/peripheral/gpio/cy_gpio.h **** ***************************************/
 151:Generated_Source\PSoC6\pdl\drivers/peripheral/gpio/cy_gpio.h **** /**
 152:Generated_Source\PSoC6\pdl\drivers/peripheral/gpio/cy_gpio.h **** * \addtogroup group_gpio_enums
 153:Generated_Source\PSoC6\pdl\drivers/peripheral/gpio/cy_gpio.h **** * \{
 154:Generated_Source\PSoC6\pdl\drivers/peripheral/gpio/cy_gpio.h **** */
 155:Generated_Source\PSoC6\pdl\drivers/peripheral/gpio/cy_gpio.h **** 
 156:Generated_Source\PSoC6\pdl\drivers/peripheral/gpio/cy_gpio.h **** /**
 157:Generated_Source\PSoC6\pdl\drivers/peripheral/gpio/cy_gpio.h **** * GPIO Driver error codes
 158:Generated_Source\PSoC6\pdl\drivers/peripheral/gpio/cy_gpio.h **** */
 159:Generated_Source\PSoC6\pdl\drivers/peripheral/gpio/cy_gpio.h **** typedef enum 
ARM GAS  C:\Users\Brian\AppData\Local\Temp\ccNQoqIU.s 			page 28


 160:Generated_Source\PSoC6\pdl\drivers/peripheral/gpio/cy_gpio.h **** {
 161:Generated_Source\PSoC6\pdl\drivers/peripheral/gpio/cy_gpio.h ****     CY_GPIO_SUCCESS   = 0x00u,                                    /**< Returned successful */
 162:Generated_Source\PSoC6\pdl\drivers/peripheral/gpio/cy_gpio.h ****     CY_GPIO_BAD_PARAM = CY_GPIO_ID | CY_PDL_STATUS_ERROR | 0x01u, /**< Bad parameter was passed */
 163:Generated_Source\PSoC6\pdl\drivers/peripheral/gpio/cy_gpio.h **** } cy_en_gpio_status_t;
 164:Generated_Source\PSoC6\pdl\drivers/peripheral/gpio/cy_gpio.h **** 
 165:Generated_Source\PSoC6\pdl\drivers/peripheral/gpio/cy_gpio.h **** /** \} group_gpio_enums */
 166:Generated_Source\PSoC6\pdl\drivers/peripheral/gpio/cy_gpio.h **** 
 167:Generated_Source\PSoC6\pdl\drivers/peripheral/gpio/cy_gpio.h **** 
 168:Generated_Source\PSoC6\pdl\drivers/peripheral/gpio/cy_gpio.h **** /***************************************
 169:Generated_Source\PSoC6\pdl\drivers/peripheral/gpio/cy_gpio.h **** *       Configuration Structures
 170:Generated_Source\PSoC6\pdl\drivers/peripheral/gpio/cy_gpio.h **** ***************************************/
 171:Generated_Source\PSoC6\pdl\drivers/peripheral/gpio/cy_gpio.h **** 
 172:Generated_Source\PSoC6\pdl\drivers/peripheral/gpio/cy_gpio.h **** /**
 173:Generated_Source\PSoC6\pdl\drivers/peripheral/gpio/cy_gpio.h **** * \addtogroup group_gpio_data_structures
 174:Generated_Source\PSoC6\pdl\drivers/peripheral/gpio/cy_gpio.h **** * \{
 175:Generated_Source\PSoC6\pdl\drivers/peripheral/gpio/cy_gpio.h **** */
 176:Generated_Source\PSoC6\pdl\drivers/peripheral/gpio/cy_gpio.h **** 
 177:Generated_Source\PSoC6\pdl\drivers/peripheral/gpio/cy_gpio.h **** /** This structure is used to initialize a port of GPIO pins */
 178:Generated_Source\PSoC6\pdl\drivers/peripheral/gpio/cy_gpio.h **** typedef struct {
 179:Generated_Source\PSoC6\pdl\drivers/peripheral/gpio/cy_gpio.h ****     uint32_t out;           /**< Initial output data for the IO pins in the port */
 180:Generated_Source\PSoC6\pdl\drivers/peripheral/gpio/cy_gpio.h ****     uint32_t intrMask;      /**< Interrupt enable mask for the port interrupt */
 181:Generated_Source\PSoC6\pdl\drivers/peripheral/gpio/cy_gpio.h ****     uint32_t intrCfg;       /**< Port pin interrupt edge detection configuration */
 182:Generated_Source\PSoC6\pdl\drivers/peripheral/gpio/cy_gpio.h ****     uint32_t cfg;           /**< Port pin drive modes and input buffer enable configuration */
 183:Generated_Source\PSoC6\pdl\drivers/peripheral/gpio/cy_gpio.h ****     uint32_t cfgIn;         /**< Port pin input buffer configuration */
 184:Generated_Source\PSoC6\pdl\drivers/peripheral/gpio/cy_gpio.h ****     uint32_t cfgOut;        /**< Port pin output buffer configuration */
 185:Generated_Source\PSoC6\pdl\drivers/peripheral/gpio/cy_gpio.h ****     uint32_t cfgSIO;        /**< Port SIO pins configuration */
 186:Generated_Source\PSoC6\pdl\drivers/peripheral/gpio/cy_gpio.h ****     uint32_t sel0Active;    /**< HSIOM selection for port pins 0,1,2,3 */
 187:Generated_Source\PSoC6\pdl\drivers/peripheral/gpio/cy_gpio.h ****     uint32_t sel1Active;    /**< HSIOM selection for port pins 4,5,6,7 */
 188:Generated_Source\PSoC6\pdl\drivers/peripheral/gpio/cy_gpio.h **** } cy_stc_gpio_prt_config_t;
 189:Generated_Source\PSoC6\pdl\drivers/peripheral/gpio/cy_gpio.h **** 
 190:Generated_Source\PSoC6\pdl\drivers/peripheral/gpio/cy_gpio.h **** /** This structure is used to initialize a single GPIO pin */
 191:Generated_Source\PSoC6\pdl\drivers/peripheral/gpio/cy_gpio.h **** typedef struct {
 192:Generated_Source\PSoC6\pdl\drivers/peripheral/gpio/cy_gpio.h ****     uint32_t outVal;         /**< Pin output state */
 193:Generated_Source\PSoC6\pdl\drivers/peripheral/gpio/cy_gpio.h ****     uint32_t driveMode;      /**< Drive mode */
 194:Generated_Source\PSoC6\pdl\drivers/peripheral/gpio/cy_gpio.h ****     en_hsiom_sel_t hsiom;   /**< HSIOM selection */
 195:Generated_Source\PSoC6\pdl\drivers/peripheral/gpio/cy_gpio.h ****     uint32_t intEdge;        /**< Interrupt Edge type */
 196:Generated_Source\PSoC6\pdl\drivers/peripheral/gpio/cy_gpio.h ****     uint32_t intMask;        /**< Interrupt enable mask */
 197:Generated_Source\PSoC6\pdl\drivers/peripheral/gpio/cy_gpio.h ****     uint32_t vtrip;          /**< Input buffer voltage trip type */
 198:Generated_Source\PSoC6\pdl\drivers/peripheral/gpio/cy_gpio.h ****     uint32_t slewRate;       /**< Output buffer slew rate */
 199:Generated_Source\PSoC6\pdl\drivers/peripheral/gpio/cy_gpio.h ****     uint32_t driveSel;       /**< Drive strength */
 200:Generated_Source\PSoC6\pdl\drivers/peripheral/gpio/cy_gpio.h ****     uint32_t vregEn;         /**< SIO pair output buffer mode */
 201:Generated_Source\PSoC6\pdl\drivers/peripheral/gpio/cy_gpio.h ****     uint32_t ibufMode;       /**< SIO pair input buffer mode */
 202:Generated_Source\PSoC6\pdl\drivers/peripheral/gpio/cy_gpio.h ****     uint32_t vtripSel;       /**< SIO pair input buffer trip point */
 203:Generated_Source\PSoC6\pdl\drivers/peripheral/gpio/cy_gpio.h ****     uint32_t vrefSel;        /**< SIO pair reference voltage for input buffer trip point */
 204:Generated_Source\PSoC6\pdl\drivers/peripheral/gpio/cy_gpio.h ****     uint32_t vohSel;         /**< SIO pair regulated voltage output level */
 205:Generated_Source\PSoC6\pdl\drivers/peripheral/gpio/cy_gpio.h **** } cy_stc_gpio_pin_config_t;
 206:Generated_Source\PSoC6\pdl\drivers/peripheral/gpio/cy_gpio.h **** 
 207:Generated_Source\PSoC6\pdl\drivers/peripheral/gpio/cy_gpio.h **** /** \} group_gpio_data_structures */
 208:Generated_Source\PSoC6\pdl\drivers/peripheral/gpio/cy_gpio.h **** 
 209:Generated_Source\PSoC6\pdl\drivers/peripheral/gpio/cy_gpio.h **** /***************************************
 210:Generated_Source\PSoC6\pdl\drivers/peripheral/gpio/cy_gpio.h **** *        Constants
 211:Generated_Source\PSoC6\pdl\drivers/peripheral/gpio/cy_gpio.h **** ***************************************/
 212:Generated_Source\PSoC6\pdl\drivers/peripheral/gpio/cy_gpio.h **** 
 213:Generated_Source\PSoC6\pdl\drivers/peripheral/gpio/cy_gpio.h **** /** \cond INTERNAL */
 214:Generated_Source\PSoC6\pdl\drivers/peripheral/gpio/cy_gpio.h **** 
 215:Generated_Source\PSoC6\pdl\drivers/peripheral/gpio/cy_gpio.h **** /* General Constants */
 216:Generated_Source\PSoC6\pdl\drivers/peripheral/gpio/cy_gpio.h **** #define CY_GPIO_PRT_HALF                       (4UL)      /**< Half-way point of a GPIO port */
ARM GAS  C:\Users\Brian\AppData\Local\Temp\ccNQoqIU.s 			page 29


 217:Generated_Source\PSoC6\pdl\drivers/peripheral/gpio/cy_gpio.h **** #define CY_GPIO_PRT_DEINIT                     (0UL)      /**< De-init value for port registers */
 218:Generated_Source\PSoC6\pdl\drivers/peripheral/gpio/cy_gpio.h **** 
 219:Generated_Source\PSoC6\pdl\drivers/peripheral/gpio/cy_gpio.h **** /* GPIO Masks */
 220:Generated_Source\PSoC6\pdl\drivers/peripheral/gpio/cy_gpio.h **** #define CY_GPIO_HSIOM_MASK                     (0x1FUL)   /**< HSIOM selection mask */
 221:Generated_Source\PSoC6\pdl\drivers/peripheral/gpio/cy_gpio.h **** #define CY_GPIO_OUT_MASK                       (0x01UL)   /**< Single pin mask for OUT register */
 222:Generated_Source\PSoC6\pdl\drivers/peripheral/gpio/cy_gpio.h **** #define CY_GPIO_IN_MASK                        (0x01UL)   /**< Single pin mask for IN register */
 223:Generated_Source\PSoC6\pdl\drivers/peripheral/gpio/cy_gpio.h **** #define CY_GPIO_CFG_DM_MASK                    (0x0FUL)   /**< Single pin mask for drive mode in CF
 224:Generated_Source\PSoC6\pdl\drivers/peripheral/gpio/cy_gpio.h **** #define CY_GPIO_CFG_IN_VTRIP_SEL_MASK          (0x01UL)   /**< Single pin mask for VTRIP selection 
 225:Generated_Source\PSoC6\pdl\drivers/peripheral/gpio/cy_gpio.h **** #define CY_GPIO_CFG_OUT_SLOW_MASK              (0x01UL)   /**< Single pin mask for slew rate in CFG
 226:Generated_Source\PSoC6\pdl\drivers/peripheral/gpio/cy_gpio.h **** #define CY_GPIO_CFG_OUT_DRIVE_SEL_MASK         (0x03UL)   /**< Single pin mask for drive strength i
 227:Generated_Source\PSoC6\pdl\drivers/peripheral/gpio/cy_gpio.h **** #define CY_GPIO_INTR_STATUS_MASK               (0x01UL)   /**< Single pin mask for interrupt status
 228:Generated_Source\PSoC6\pdl\drivers/peripheral/gpio/cy_gpio.h **** #define CY_GPIO_INTR_EN_MASK                   (0x01UL)   /**< Single pin mask for interrupt status
 229:Generated_Source\PSoC6\pdl\drivers/peripheral/gpio/cy_gpio.h **** #define CY_GPIO_INTR_MASKED_MASK               (0x01UL)   /**< Single pin mask for masked interrupt
 230:Generated_Source\PSoC6\pdl\drivers/peripheral/gpio/cy_gpio.h **** #define CY_GPIO_INTR_SET_MASK                  (0x01UL)   /**< Single pin mask for setting the inte
 231:Generated_Source\PSoC6\pdl\drivers/peripheral/gpio/cy_gpio.h **** #define CY_GPIO_INTR_EDGE_MASK                 (0x03UL)   /**< Single pin mask for interrupt edge t
 232:Generated_Source\PSoC6\pdl\drivers/peripheral/gpio/cy_gpio.h **** #define CY_GPIO_INTR_FLT_EDGE_MASK             (0x07UL)   /**< Single pin mask for setting filtered
 233:Generated_Source\PSoC6\pdl\drivers/peripheral/gpio/cy_gpio.h **** 
 234:Generated_Source\PSoC6\pdl\drivers/peripheral/gpio/cy_gpio.h **** /* SIO Masks */
 235:Generated_Source\PSoC6\pdl\drivers/peripheral/gpio/cy_gpio.h **** #define CY_GPIO_VREG_EN_MASK                   (0x01UL)   /**< Single SIO pin mask for voltage regu
 236:Generated_Source\PSoC6\pdl\drivers/peripheral/gpio/cy_gpio.h **** #define CY_GPIO_IBUF_MASK                      (0x01UL)   /**< Single SIO pin mask for input buffer
 237:Generated_Source\PSoC6\pdl\drivers/peripheral/gpio/cy_gpio.h **** #define CY_GPIO_IBUF_SHIFT                     (0x01UL)   /**< Single SIO pin shift for input buffe
 238:Generated_Source\PSoC6\pdl\drivers/peripheral/gpio/cy_gpio.h **** #define CY_GPIO_VTRIP_SEL_MASK                 (0x01UL)   /**< Single SIO pin mask for the input bu
 239:Generated_Source\PSoC6\pdl\drivers/peripheral/gpio/cy_gpio.h **** #define CY_GPIO_VTRIP_SEL_SHIFT                (0x02UL)   /**< Single SIO pin shift for the input b
 240:Generated_Source\PSoC6\pdl\drivers/peripheral/gpio/cy_gpio.h **** #define CY_GPIO_VREF_SEL_MASK                  (0x03UL)   /**< Single SIO pin mask for voltage refe
 241:Generated_Source\PSoC6\pdl\drivers/peripheral/gpio/cy_gpio.h **** #define CY_GPIO_VREF_SEL_SHIFT                 (0x03UL)   /**< Single SIO pin shift for voltage ref
 242:Generated_Source\PSoC6\pdl\drivers/peripheral/gpio/cy_gpio.h **** #define CY_GPIO_VOH_SEL_MASK                   (0x07UL)   /**< Single SIO pin mask for VOH */
 243:Generated_Source\PSoC6\pdl\drivers/peripheral/gpio/cy_gpio.h **** #define CY_GPIO_VOH_SEL_SHIFT                  (0x05UL)   /**< Single SIO pin shift for VOH */
 244:Generated_Source\PSoC6\pdl\drivers/peripheral/gpio/cy_gpio.h **** 
 245:Generated_Source\PSoC6\pdl\drivers/peripheral/gpio/cy_gpio.h **** /* Special mask for SIO pin pair setting */
 246:Generated_Source\PSoC6\pdl\drivers/peripheral/gpio/cy_gpio.h **** #define CY_GPIO_SIO_ODD_PIN_MASK               (0x00FEUL) /**< SIO pin pair selection mask */
 247:Generated_Source\PSoC6\pdl\drivers/peripheral/gpio/cy_gpio.h **** #define CY_GPIO_SIO_PIN_MASK                   (0x00FFUL) /**< SIO pin pair mask */
 248:Generated_Source\PSoC6\pdl\drivers/peripheral/gpio/cy_gpio.h **** 
 249:Generated_Source\PSoC6\pdl\drivers/peripheral/gpio/cy_gpio.h **** /* Offsets */
 250:Generated_Source\PSoC6\pdl\drivers/peripheral/gpio/cy_gpio.h **** #define CY_GPIO_HSIOM_OFFSET                   (3UL)      /**< Offset for HSIOM */
 251:Generated_Source\PSoC6\pdl\drivers/peripheral/gpio/cy_gpio.h **** #define CY_GPIO_DRIVE_MODE_OFFSET              (2UL)      /**< Offset for Drive mode */
 252:Generated_Source\PSoC6\pdl\drivers/peripheral/gpio/cy_gpio.h **** #define CY_GPIO_INBUF_OFFSET                   (3UL)      /**< Offset for input buffer */
 253:Generated_Source\PSoC6\pdl\drivers/peripheral/gpio/cy_gpio.h **** #define CY_GPIO_CFG_OUT_DRIVE_OFFSET           (16UL)     /**< Offset for drive strength */
 254:Generated_Source\PSoC6\pdl\drivers/peripheral/gpio/cy_gpio.h **** #define CY_GPIO_INTR_CFG_OFFSET                (1UL)      /**< Offset for interrupt config */
 255:Generated_Source\PSoC6\pdl\drivers/peripheral/gpio/cy_gpio.h **** #define CY_GPIO_INTR_FILT_OFFSET               (18UL)     /**< Offset for filtered interrupt config
 256:Generated_Source\PSoC6\pdl\drivers/peripheral/gpio/cy_gpio.h **** #define CY_GPIO_CFG_SIO_OFFSET                 (2UL)      /**< Offset for SIO config */
 257:Generated_Source\PSoC6\pdl\drivers/peripheral/gpio/cy_gpio.h **** 
 258:Generated_Source\PSoC6\pdl\drivers/peripheral/gpio/cy_gpio.h **** /* Parameter validation constants */
 259:Generated_Source\PSoC6\pdl\drivers/peripheral/gpio/cy_gpio.h **** #define CY_GPIO_PINS_MAX                       (8UL)      /**< Number of pins in the port */
 260:Generated_Source\PSoC6\pdl\drivers/peripheral/gpio/cy_gpio.h **** #define CY_GPIO_PRT_PINS_MASK                  (0x0000000FFUL)
 261:Generated_Source\PSoC6\pdl\drivers/peripheral/gpio/cy_gpio.h **** #define CY_GPIO_PRT_INTR_CFG_EDGE_SEL_MASK     (GPIO_PRT_INTR_CFG_EDGE0_SEL_Msk | \
 262:Generated_Source\PSoC6\pdl\drivers/peripheral/gpio/cy_gpio.h ****                                                 GPIO_PRT_INTR_CFG_EDGE1_SEL_Msk | \
 263:Generated_Source\PSoC6\pdl\drivers/peripheral/gpio/cy_gpio.h ****                                                 GPIO_PRT_INTR_CFG_EDGE2_SEL_Msk | \
 264:Generated_Source\PSoC6\pdl\drivers/peripheral/gpio/cy_gpio.h ****                                                 GPIO_PRT_INTR_CFG_EDGE3_SEL_Msk | \
 265:Generated_Source\PSoC6\pdl\drivers/peripheral/gpio/cy_gpio.h ****                                                 GPIO_PRT_INTR_CFG_EDGE4_SEL_Msk | \
 266:Generated_Source\PSoC6\pdl\drivers/peripheral/gpio/cy_gpio.h ****                                                 GPIO_PRT_INTR_CFG_EDGE5_SEL_Msk | \
 267:Generated_Source\PSoC6\pdl\drivers/peripheral/gpio/cy_gpio.h ****                                                 GPIO_PRT_INTR_CFG_EDGE6_SEL_Msk | \
 268:Generated_Source\PSoC6\pdl\drivers/peripheral/gpio/cy_gpio.h ****                                                 GPIO_PRT_INTR_CFG_EDGE7_SEL_Msk)            
 269:Generated_Source\PSoC6\pdl\drivers/peripheral/gpio/cy_gpio.h **** #define CY_GPIO_PRT_INTR_CFG_RANGE_MASK        (CY_GPIO_PRT_INTR_CFG_EDGE_SEL_MASK | \
 270:Generated_Source\PSoC6\pdl\drivers/peripheral/gpio/cy_gpio.h ****                                                 GPIO_PRT_INTR_CFG_FLT_EDGE_SEL_Msk | \
 271:Generated_Source\PSoC6\pdl\drivers/peripheral/gpio/cy_gpio.h ****                                                 GPIO_PRT_INTR_CFG_FLT_SEL_Msk)
 272:Generated_Source\PSoC6\pdl\drivers/peripheral/gpio/cy_gpio.h **** #define CY_GPIO_PRT_INT_MASK_MASK              (0x0000001FFUL)
 273:Generated_Source\PSoC6\pdl\drivers/peripheral/gpio/cy_gpio.h **** #define CY_GPIO_PRT_SEL_ACTIVE_MASK            (0x1FFFFFFFUL)
ARM GAS  C:\Users\Brian\AppData\Local\Temp\ccNQoqIU.s 			page 30


 274:Generated_Source\PSoC6\pdl\drivers/peripheral/gpio/cy_gpio.h **** 
 275:Generated_Source\PSoC6\pdl\drivers/peripheral/gpio/cy_gpio.h **** /* Parameter validation macros */
 276:Generated_Source\PSoC6\pdl\drivers/peripheral/gpio/cy_gpio.h **** #define CY_GPIO_IS_PIN_VALID(pinNum)           (CY_GPIO_PINS_MAX > (pinNum))
 277:Generated_Source\PSoC6\pdl\drivers/peripheral/gpio/cy_gpio.h **** #define CY_GPIO_IS_FILTER_PIN_VALID(pinNum)    (CY_GPIO_PINS_MAX >= (pinNum))
 278:Generated_Source\PSoC6\pdl\drivers/peripheral/gpio/cy_gpio.h **** #define CY_GPIO_IS_VALUE_VALID(outVal)         (1UL >= (outVal))
 279:Generated_Source\PSoC6\pdl\drivers/peripheral/gpio/cy_gpio.h **** #define CY_GPIO_IS_DM_VALID(driveMode)         (0U == ((driveMode) & (uint32_t)~CY_GPIO_CFG_DM_MASK
 280:Generated_Source\PSoC6\pdl\drivers/peripheral/gpio/cy_gpio.h **** 
 281:Generated_Source\PSoC6\pdl\drivers/peripheral/gpio/cy_gpio.h **** #define CY_GPIO_IS_HSIOM_VALID(hsiom)          (0U == ((hsiom) & (uint32_t)~CY_GPIO_HSIOM_MASK))
 282:Generated_Source\PSoC6\pdl\drivers/peripheral/gpio/cy_gpio.h **** 
 283:Generated_Source\PSoC6\pdl\drivers/peripheral/gpio/cy_gpio.h **** #define CY_GPIO_IS_INT_EDGE_VALID(intEdge)     ((CY_GPIO_INTR_DISABLE  == (intEdge)) || \
 284:Generated_Source\PSoC6\pdl\drivers/peripheral/gpio/cy_gpio.h ****                                                 (CY_GPIO_INTR_RISING   == (intEdge)) || \
 285:Generated_Source\PSoC6\pdl\drivers/peripheral/gpio/cy_gpio.h ****                                                 (CY_GPIO_INTR_FALLING  == (intEdge)) || \
 286:Generated_Source\PSoC6\pdl\drivers/peripheral/gpio/cy_gpio.h ****                                                 (CY_GPIO_INTR_BOTH     == (intEdge)))
 287:Generated_Source\PSoC6\pdl\drivers/peripheral/gpio/cy_gpio.h **** 
 288:Generated_Source\PSoC6\pdl\drivers/peripheral/gpio/cy_gpio.h **** #define CY_GPIO_IS_DRIVE_SEL_VALID(driveSel)   ((CY_GPIO_DRIVE_FULL    == (driveSel)) || \
 289:Generated_Source\PSoC6\pdl\drivers/peripheral/gpio/cy_gpio.h ****                                                 (CY_GPIO_DRIVE_1_2     == (driveSel)) || \
 290:Generated_Source\PSoC6\pdl\drivers/peripheral/gpio/cy_gpio.h ****                                                 (CY_GPIO_DRIVE_1_4     == (driveSel)) || \
 291:Generated_Source\PSoC6\pdl\drivers/peripheral/gpio/cy_gpio.h ****                                                 (CY_GPIO_DRIVE_1_8     == (driveSel)))
 292:Generated_Source\PSoC6\pdl\drivers/peripheral/gpio/cy_gpio.h **** 
 293:Generated_Source\PSoC6\pdl\drivers/peripheral/gpio/cy_gpio.h **** #define CY_GPIO_IS_VREF_SEL_VALID(vrefSel)     ((CY_SIO_VREF_PINREF    == (vrefSel)) || \
 294:Generated_Source\PSoC6\pdl\drivers/peripheral/gpio/cy_gpio.h ****                                                 (CY_SIO_VREF_1_2V      == (vrefSel)) || \
 295:Generated_Source\PSoC6\pdl\drivers/peripheral/gpio/cy_gpio.h ****                                                 (CY_SIO_VREF_AMUX_A    == (vrefSel)) || \
 296:Generated_Source\PSoC6\pdl\drivers/peripheral/gpio/cy_gpio.h ****                                                 (CY_SIO_VREF_AMUX_B    == (vrefSel)))
 297:Generated_Source\PSoC6\pdl\drivers/peripheral/gpio/cy_gpio.h **** 
 298:Generated_Source\PSoC6\pdl\drivers/peripheral/gpio/cy_gpio.h **** #define CY_GPIO_IS_VOH_SEL_VALID(vrefSel)      ((CY_SIO_VOH_1_00       == (vrefSel)) || \
 299:Generated_Source\PSoC6\pdl\drivers/peripheral/gpio/cy_gpio.h ****                                                 (CY_SIO_VOH_1_25       == (vrefSel)) || \
 300:Generated_Source\PSoC6\pdl\drivers/peripheral/gpio/cy_gpio.h ****                                                 (CY_SIO_VOH_1_49       == (vrefSel)) || \
 301:Generated_Source\PSoC6\pdl\drivers/peripheral/gpio/cy_gpio.h ****                                                 (CY_SIO_VOH_1_67       == (vrefSel)) || \
 302:Generated_Source\PSoC6\pdl\drivers/peripheral/gpio/cy_gpio.h ****                                                 (CY_SIO_VOH_2_08       == (vrefSel)) || \
 303:Generated_Source\PSoC6\pdl\drivers/peripheral/gpio/cy_gpio.h ****                                                 (CY_SIO_VOH_2_50       == (vrefSel)) || \
 304:Generated_Source\PSoC6\pdl\drivers/peripheral/gpio/cy_gpio.h ****                                                 (CY_SIO_VOH_2_78       == (vrefSel)) || \
 305:Generated_Source\PSoC6\pdl\drivers/peripheral/gpio/cy_gpio.h ****                                                 (CY_SIO_VOH_4_16       == (vrefSel)))
 306:Generated_Source\PSoC6\pdl\drivers/peripheral/gpio/cy_gpio.h ****                    
 307:Generated_Source\PSoC6\pdl\drivers/peripheral/gpio/cy_gpio.h **** #define CY_GPIO_IS_PIN_BIT_VALID(pinBit)       (0U == ((pinBit) & (uint32_t)~CY_GPIO_PRT_PINS_MASK)
 308:Generated_Source\PSoC6\pdl\drivers/peripheral/gpio/cy_gpio.h **** #define CY_GPIO_IS_INTR_CFG_VALID(intrCfg)     (0U == ((intrCfg) & (uint32_t)~CY_GPIO_PRT_INTR_CFG_
 309:Generated_Source\PSoC6\pdl\drivers/peripheral/gpio/cy_gpio.h **** #define CY_GPIO_IS_INTR_MASK_VALID(intrMask)   (0U == ((intrMask) & (uint32_t)~CY_GPIO_PRT_INT_MASK
 310:Generated_Source\PSoC6\pdl\drivers/peripheral/gpio/cy_gpio.h **** #define CY_GPIO_IS_SEL_ACT_VALID(selActive)    (0U == ((selActive) & (uint32_t)~CY_GPIO_PRT_SEL_ACT
 311:Generated_Source\PSoC6\pdl\drivers/peripheral/gpio/cy_gpio.h **** 
 312:Generated_Source\PSoC6\pdl\drivers/peripheral/gpio/cy_gpio.h **** /** \endcond */
 313:Generated_Source\PSoC6\pdl\drivers/peripheral/gpio/cy_gpio.h **** 
 314:Generated_Source\PSoC6\pdl\drivers/peripheral/gpio/cy_gpio.h **** 
 315:Generated_Source\PSoC6\pdl\drivers/peripheral/gpio/cy_gpio.h **** /***************************************
 316:Generated_Source\PSoC6\pdl\drivers/peripheral/gpio/cy_gpio.h **** *        Function Constants
 317:Generated_Source\PSoC6\pdl\drivers/peripheral/gpio/cy_gpio.h **** ***************************************/
 318:Generated_Source\PSoC6\pdl\drivers/peripheral/gpio/cy_gpio.h **** 
 319:Generated_Source\PSoC6\pdl\drivers/peripheral/gpio/cy_gpio.h **** /**
 320:Generated_Source\PSoC6\pdl\drivers/peripheral/gpio/cy_gpio.h **** * \addtogroup group_gpio_macros
 321:Generated_Source\PSoC6\pdl\drivers/peripheral/gpio/cy_gpio.h **** * \{
 322:Generated_Source\PSoC6\pdl\drivers/peripheral/gpio/cy_gpio.h **** */
 323:Generated_Source\PSoC6\pdl\drivers/peripheral/gpio/cy_gpio.h **** 
 324:Generated_Source\PSoC6\pdl\drivers/peripheral/gpio/cy_gpio.h **** /**
 325:Generated_Source\PSoC6\pdl\drivers/peripheral/gpio/cy_gpio.h **** * \defgroup group_gpio_driveModes Pin drive mode
 326:Generated_Source\PSoC6\pdl\drivers/peripheral/gpio/cy_gpio.h **** * \{
 327:Generated_Source\PSoC6\pdl\drivers/peripheral/gpio/cy_gpio.h **** * Constants to be used for setting the drive mode of the pin.
 328:Generated_Source\PSoC6\pdl\drivers/peripheral/gpio/cy_gpio.h **** */
 329:Generated_Source\PSoC6\pdl\drivers/peripheral/gpio/cy_gpio.h **** #define CY_GPIO_DM_ANALOG                      (0x00UL) /**< \brief Analog High-Z. Input buffer off
 330:Generated_Source\PSoC6\pdl\drivers/peripheral/gpio/cy_gpio.h **** #define CY_GPIO_DM_PULLUP_IN_OFF               (0x02UL) /**< \brief Resistive Pull-Up. Input buffer
ARM GAS  C:\Users\Brian\AppData\Local\Temp\ccNQoqIU.s 			page 31


 331:Generated_Source\PSoC6\pdl\drivers/peripheral/gpio/cy_gpio.h **** #define CY_GPIO_DM_PULLDOWN_IN_OFF             (0x03UL) /**< \brief Resistive Pull-Down. Input buff
 332:Generated_Source\PSoC6\pdl\drivers/peripheral/gpio/cy_gpio.h **** #define CY_GPIO_DM_OD_DRIVESLOW_IN_OFF         (0x04UL) /**< \brief Open Drain, Drives Low. Input b
 333:Generated_Source\PSoC6\pdl\drivers/peripheral/gpio/cy_gpio.h **** #define CY_GPIO_DM_OD_DRIVESHIGH_IN_OFF        (0x05UL) /**< \brief Open Drain, Drives High. Input 
 334:Generated_Source\PSoC6\pdl\drivers/peripheral/gpio/cy_gpio.h **** #define CY_GPIO_DM_STRONG_IN_OFF               (0x06UL) /**< \brief Strong Drive. Input buffer off 
 335:Generated_Source\PSoC6\pdl\drivers/peripheral/gpio/cy_gpio.h **** #define CY_GPIO_DM_PULLUP_DOWN_IN_OFF          (0x07UL) /**< \brief Resistive Pull-Up/Down. Input b
 336:Generated_Source\PSoC6\pdl\drivers/peripheral/gpio/cy_gpio.h **** #define CY_GPIO_DM_HIGHZ                       (0x08UL) /**< \brief Digital High-Z. Input buffer on
 337:Generated_Source\PSoC6\pdl\drivers/peripheral/gpio/cy_gpio.h **** #define CY_GPIO_DM_PULLUP                      (0x0AUL) /**< \brief Resistive Pull-Up. Input buffer
 338:Generated_Source\PSoC6\pdl\drivers/peripheral/gpio/cy_gpio.h **** #define CY_GPIO_DM_PULLDOWN                    (0x0BUL) /**< \brief Resistive Pull-Down. Input buff
 339:Generated_Source\PSoC6\pdl\drivers/peripheral/gpio/cy_gpio.h **** #define CY_GPIO_DM_OD_DRIVESLOW                (0x0CUL) /**< \brief Open Drain, Drives Low. Input b
 340:Generated_Source\PSoC6\pdl\drivers/peripheral/gpio/cy_gpio.h **** #define CY_GPIO_DM_OD_DRIVESHIGH               (0x0DUL) /**< \brief Open Drain, Drives High. Input 
 341:Generated_Source\PSoC6\pdl\drivers/peripheral/gpio/cy_gpio.h **** #define CY_GPIO_DM_STRONG                      (0x0EUL) /**< \brief Strong Drive. Input buffer on *
 342:Generated_Source\PSoC6\pdl\drivers/peripheral/gpio/cy_gpio.h **** #define CY_GPIO_DM_PULLUP_DOWN                 (0x0FUL) /**< \brief Resistive Pull-Up/Down. Input b
 343:Generated_Source\PSoC6\pdl\drivers/peripheral/gpio/cy_gpio.h **** /** \} */
 344:Generated_Source\PSoC6\pdl\drivers/peripheral/gpio/cy_gpio.h **** 
 345:Generated_Source\PSoC6\pdl\drivers/peripheral/gpio/cy_gpio.h **** /**
 346:Generated_Source\PSoC6\pdl\drivers/peripheral/gpio/cy_gpio.h **** * \defgroup group_gpio_vtrip Voltage trip mode
 347:Generated_Source\PSoC6\pdl\drivers/peripheral/gpio/cy_gpio.h **** * \{
 348:Generated_Source\PSoC6\pdl\drivers/peripheral/gpio/cy_gpio.h **** * Constants to be used for setting the voltage trip type on the pin.
 349:Generated_Source\PSoC6\pdl\drivers/peripheral/gpio/cy_gpio.h **** */
 350:Generated_Source\PSoC6\pdl\drivers/peripheral/gpio/cy_gpio.h **** #define CY_GPIO_VTRIP_CMOS                     (0x00UL) /**< \brief Input buffer compatible with CM
 351:Generated_Source\PSoC6\pdl\drivers/peripheral/gpio/cy_gpio.h **** #define CY_GPIO_VTRIP_TTL                      (0x01UL) /**< \brief Input buffer compatible with TT
 352:Generated_Source\PSoC6\pdl\drivers/peripheral/gpio/cy_gpio.h **** /** \} */
 353:Generated_Source\PSoC6\pdl\drivers/peripheral/gpio/cy_gpio.h **** 
 354:Generated_Source\PSoC6\pdl\drivers/peripheral/gpio/cy_gpio.h **** /**
 355:Generated_Source\PSoC6\pdl\drivers/peripheral/gpio/cy_gpio.h **** * \defgroup group_gpio_slewRate Slew Rate Mode
 356:Generated_Source\PSoC6\pdl\drivers/peripheral/gpio/cy_gpio.h **** * \{
 357:Generated_Source\PSoC6\pdl\drivers/peripheral/gpio/cy_gpio.h **** * Constants to be used for setting the slew rate of the pin.
 358:Generated_Source\PSoC6\pdl\drivers/peripheral/gpio/cy_gpio.h **** */
 359:Generated_Source\PSoC6\pdl\drivers/peripheral/gpio/cy_gpio.h **** #define CY_GPIO_SLEW_FAST                      (0x00UL) /**< \brief Fast slew rate */
 360:Generated_Source\PSoC6\pdl\drivers/peripheral/gpio/cy_gpio.h **** #define CY_GPIO_SLEW_SLOW                      (0x01UL) /**< \brief Slow slew rate */
 361:Generated_Source\PSoC6\pdl\drivers/peripheral/gpio/cy_gpio.h **** /** \} */
 362:Generated_Source\PSoC6\pdl\drivers/peripheral/gpio/cy_gpio.h **** 
 363:Generated_Source\PSoC6\pdl\drivers/peripheral/gpio/cy_gpio.h **** /**
 364:Generated_Source\PSoC6\pdl\drivers/peripheral/gpio/cy_gpio.h **** * \defgroup group_gpio_driveStrength Pin drive strength
 365:Generated_Source\PSoC6\pdl\drivers/peripheral/gpio/cy_gpio.h **** * \{
 366:Generated_Source\PSoC6\pdl\drivers/peripheral/gpio/cy_gpio.h **** * Constants to be used for setting the drive strength of the pin.
 367:Generated_Source\PSoC6\pdl\drivers/peripheral/gpio/cy_gpio.h **** */
 368:Generated_Source\PSoC6\pdl\drivers/peripheral/gpio/cy_gpio.h **** #define CY_GPIO_DRIVE_FULL                     (0x00UL) /**< \brief Full drive strength: Max drive 
 369:Generated_Source\PSoC6\pdl\drivers/peripheral/gpio/cy_gpio.h **** #define CY_GPIO_DRIVE_1_2                      (0x01UL) /**< \brief 1/2 drive strength: 1/2 drive c
 370:Generated_Source\PSoC6\pdl\drivers/peripheral/gpio/cy_gpio.h **** #define CY_GPIO_DRIVE_1_4                      (0x02UL) /**< \brief 1/4 drive strength: 1/4 drive c
 371:Generated_Source\PSoC6\pdl\drivers/peripheral/gpio/cy_gpio.h **** #define CY_GPIO_DRIVE_1_8                      (0x03UL) /**< \brief 1/8 drive strength: 1/8 drive c
 372:Generated_Source\PSoC6\pdl\drivers/peripheral/gpio/cy_gpio.h **** /** \} */
 373:Generated_Source\PSoC6\pdl\drivers/peripheral/gpio/cy_gpio.h **** 
 374:Generated_Source\PSoC6\pdl\drivers/peripheral/gpio/cy_gpio.h **** /**
 375:Generated_Source\PSoC6\pdl\drivers/peripheral/gpio/cy_gpio.h **** * \defgroup group_gpio_interruptTrigger Interrupt trigger type
 376:Generated_Source\PSoC6\pdl\drivers/peripheral/gpio/cy_gpio.h **** * \{
 377:Generated_Source\PSoC6\pdl\drivers/peripheral/gpio/cy_gpio.h **** * Constants to be used for setting the interrupt trigger type on the pin.
 378:Generated_Source\PSoC6\pdl\drivers/peripheral/gpio/cy_gpio.h **** */
 379:Generated_Source\PSoC6\pdl\drivers/peripheral/gpio/cy_gpio.h **** #define CY_GPIO_INTR_DISABLE                   (0x00UL) /**< \brief Disable the pin interrupt gener
 380:Generated_Source\PSoC6\pdl\drivers/peripheral/gpio/cy_gpio.h **** #define CY_GPIO_INTR_RISING                    (0x01UL) /**< \brief Rising-Edge interrupt */
 381:Generated_Source\PSoC6\pdl\drivers/peripheral/gpio/cy_gpio.h **** #define CY_GPIO_INTR_FALLING                   (0x02UL) /**< \brief Falling-Edge interrupt */
 382:Generated_Source\PSoC6\pdl\drivers/peripheral/gpio/cy_gpio.h **** #define CY_GPIO_INTR_BOTH                      (0x03UL) /**< \brief Both-Edge interrupt */
 383:Generated_Source\PSoC6\pdl\drivers/peripheral/gpio/cy_gpio.h **** /** \} */
 384:Generated_Source\PSoC6\pdl\drivers/peripheral/gpio/cy_gpio.h **** 
 385:Generated_Source\PSoC6\pdl\drivers/peripheral/gpio/cy_gpio.h **** /**
 386:Generated_Source\PSoC6\pdl\drivers/peripheral/gpio/cy_gpio.h **** * \defgroup group_gpio_sioVreg SIO output buffer mode
 387:Generated_Source\PSoC6\pdl\drivers/peripheral/gpio/cy_gpio.h **** * \{
ARM GAS  C:\Users\Brian\AppData\Local\Temp\ccNQoqIU.s 			page 32


 388:Generated_Source\PSoC6\pdl\drivers/peripheral/gpio/cy_gpio.h **** * Constants to be used for setting the SIO output buffer mode on the pin.
 389:Generated_Source\PSoC6\pdl\drivers/peripheral/gpio/cy_gpio.h **** */
 390:Generated_Source\PSoC6\pdl\drivers/peripheral/gpio/cy_gpio.h **** #define CY_SIO_VREG_UNREGULATED                (0x00UL) /**< \brief Unregulated output buffer */
 391:Generated_Source\PSoC6\pdl\drivers/peripheral/gpio/cy_gpio.h **** #define CY_SIO_VREG_REGULATED                  (0x01UL) /**< \brief Regulated output buffer */
 392:Generated_Source\PSoC6\pdl\drivers/peripheral/gpio/cy_gpio.h **** /** \} */
 393:Generated_Source\PSoC6\pdl\drivers/peripheral/gpio/cy_gpio.h **** 
 394:Generated_Source\PSoC6\pdl\drivers/peripheral/gpio/cy_gpio.h **** /**
 395:Generated_Source\PSoC6\pdl\drivers/peripheral/gpio/cy_gpio.h **** * \defgroup group_gpio_sioIbuf SIO input buffer mode
 396:Generated_Source\PSoC6\pdl\drivers/peripheral/gpio/cy_gpio.h **** * \{
 397:Generated_Source\PSoC6\pdl\drivers/peripheral/gpio/cy_gpio.h **** * Constants to be used for setting the SIO input buffer mode on the pin.
 398:Generated_Source\PSoC6\pdl\drivers/peripheral/gpio/cy_gpio.h **** */
 399:Generated_Source\PSoC6\pdl\drivers/peripheral/gpio/cy_gpio.h **** #define CY_SIO_IBUF_SINGLEENDED                (0x00UL) /**< \brief Single ended input buffer */
 400:Generated_Source\PSoC6\pdl\drivers/peripheral/gpio/cy_gpio.h **** #define CY_SIO_IBUF_DIFFERENTIAL               (0x01UL) /**< \brief Differential input buffer */
 401:Generated_Source\PSoC6\pdl\drivers/peripheral/gpio/cy_gpio.h **** /** \} */
 402:Generated_Source\PSoC6\pdl\drivers/peripheral/gpio/cy_gpio.h **** 
 403:Generated_Source\PSoC6\pdl\drivers/peripheral/gpio/cy_gpio.h **** /**
 404:Generated_Source\PSoC6\pdl\drivers/peripheral/gpio/cy_gpio.h **** * \defgroup group_gpio_sioVtrip SIO input buffer trip-point
 405:Generated_Source\PSoC6\pdl\drivers/peripheral/gpio/cy_gpio.h **** * \{
 406:Generated_Source\PSoC6\pdl\drivers/peripheral/gpio/cy_gpio.h **** * Constants to be used for setting the SIO input buffer trip-point of the pin.
 407:Generated_Source\PSoC6\pdl\drivers/peripheral/gpio/cy_gpio.h **** */
 408:Generated_Source\PSoC6\pdl\drivers/peripheral/gpio/cy_gpio.h **** #define CY_SIO_VTRIP_CMOS                      (0x00UL) /**< \brief CMOS input buffer (single-ended
 409:Generated_Source\PSoC6\pdl\drivers/peripheral/gpio/cy_gpio.h **** #define CY_SIO_VTRIP_TTL                       (0x01UL) /**< \brief TTL input buffer (single-ended)
 410:Generated_Source\PSoC6\pdl\drivers/peripheral/gpio/cy_gpio.h **** #define CY_SIO_VTRIP_0_5VDDIO_0_5VOH           (0x00UL) /**< \brief 0.5xVddio or 0.5xVoh (different
 411:Generated_Source\PSoC6\pdl\drivers/peripheral/gpio/cy_gpio.h **** #define CY_SIO_VTRIP_0_4VDDIO_1_0VREF          (0x01UL) /**< \brief 0.4xVddio or 0.4xVoh (different
 412:Generated_Source\PSoC6\pdl\drivers/peripheral/gpio/cy_gpio.h **** /** \} */
 413:Generated_Source\PSoC6\pdl\drivers/peripheral/gpio/cy_gpio.h **** 
 414:Generated_Source\PSoC6\pdl\drivers/peripheral/gpio/cy_gpio.h **** /**
 415:Generated_Source\PSoC6\pdl\drivers/peripheral/gpio/cy_gpio.h **** * \defgroup group_gpio_sioVref SIO reference voltage for input buffer trip-point
 416:Generated_Source\PSoC6\pdl\drivers/peripheral/gpio/cy_gpio.h **** * \{
 417:Generated_Source\PSoC6\pdl\drivers/peripheral/gpio/cy_gpio.h **** * Constants to be used for setting the reference voltage of SIO input buffer trip-point.
 418:Generated_Source\PSoC6\pdl\drivers/peripheral/gpio/cy_gpio.h **** */
 419:Generated_Source\PSoC6\pdl\drivers/peripheral/gpio/cy_gpio.h **** #define CY_SIO_VREF_PINREF                     (0x00UL) /**< \brief Vref from analog pin */
 420:Generated_Source\PSoC6\pdl\drivers/peripheral/gpio/cy_gpio.h **** #define CY_SIO_VREF_1_2V                       (0x01UL) /**< \brief Vref from internal 1.2V referen
 421:Generated_Source\PSoC6\pdl\drivers/peripheral/gpio/cy_gpio.h **** #define CY_SIO_VREF_AMUX_A                     (0x02UL) /**< \brief Vref from AMUXBUS_A */
 422:Generated_Source\PSoC6\pdl\drivers/peripheral/gpio/cy_gpio.h **** #define CY_SIO_VREF_AMUX_B                     (0x03UL) /**< \brief Vref from AMUXBUS_B */
 423:Generated_Source\PSoC6\pdl\drivers/peripheral/gpio/cy_gpio.h **** /** \} */
 424:Generated_Source\PSoC6\pdl\drivers/peripheral/gpio/cy_gpio.h **** 
 425:Generated_Source\PSoC6\pdl\drivers/peripheral/gpio/cy_gpio.h **** /**
 426:Generated_Source\PSoC6\pdl\drivers/peripheral/gpio/cy_gpio.h **** * \defgroup group_gpio_sioVoh Regulated output voltage level (Voh) and input buffer trip-point of a
 427:Generated_Source\PSoC6\pdl\drivers/peripheral/gpio/cy_gpio.h **** * \{
 428:Generated_Source\PSoC6\pdl\drivers/peripheral/gpio/cy_gpio.h **** * Constants to be used for setting the Voh and input buffer trip-point of an SIO pair
 429:Generated_Source\PSoC6\pdl\drivers/peripheral/gpio/cy_gpio.h **** */
 430:Generated_Source\PSoC6\pdl\drivers/peripheral/gpio/cy_gpio.h **** #define CY_SIO_VOH_1_00                        (0x00UL) /**< \brief Voh = 1 x Reference */
 431:Generated_Source\PSoC6\pdl\drivers/peripheral/gpio/cy_gpio.h **** #define CY_SIO_VOH_1_25                        (0x01UL) /**< \brief Voh = 1.25 x Reference */
 432:Generated_Source\PSoC6\pdl\drivers/peripheral/gpio/cy_gpio.h **** #define CY_SIO_VOH_1_49                        (0x02UL) /**< \brief Voh = 1.49 x Reference */
 433:Generated_Source\PSoC6\pdl\drivers/peripheral/gpio/cy_gpio.h **** #define CY_SIO_VOH_1_67                        (0x03UL) /**< \brief Voh = 1.67 x Reference */
 434:Generated_Source\PSoC6\pdl\drivers/peripheral/gpio/cy_gpio.h **** #define CY_SIO_VOH_2_08                        (0x04UL) /**< \brief Voh = 2.08 x Reference */
 435:Generated_Source\PSoC6\pdl\drivers/peripheral/gpio/cy_gpio.h **** #define CY_SIO_VOH_2_50                        (0x05UL) /**< \brief Voh = 2.50 x Reference */
 436:Generated_Source\PSoC6\pdl\drivers/peripheral/gpio/cy_gpio.h **** #define CY_SIO_VOH_2_78                        (0x06UL) /**< \brief Voh = 2.78 x Reference */
 437:Generated_Source\PSoC6\pdl\drivers/peripheral/gpio/cy_gpio.h **** #define CY_SIO_VOH_4_16                        (0x07UL) /**< \brief Voh = 4.16 x Reference */
 438:Generated_Source\PSoC6\pdl\drivers/peripheral/gpio/cy_gpio.h **** /** \} */
 439:Generated_Source\PSoC6\pdl\drivers/peripheral/gpio/cy_gpio.h **** 
 440:Generated_Source\PSoC6\pdl\drivers/peripheral/gpio/cy_gpio.h **** /** \} group_gpio_macros */
 441:Generated_Source\PSoC6\pdl\drivers/peripheral/gpio/cy_gpio.h **** 
 442:Generated_Source\PSoC6\pdl\drivers/peripheral/gpio/cy_gpio.h **** /***************************************
 443:Generated_Source\PSoC6\pdl\drivers/peripheral/gpio/cy_gpio.h **** *        Function Prototypes
 444:Generated_Source\PSoC6\pdl\drivers/peripheral/gpio/cy_gpio.h **** ***************************************/
ARM GAS  C:\Users\Brian\AppData\Local\Temp\ccNQoqIU.s 			page 33


 445:Generated_Source\PSoC6\pdl\drivers/peripheral/gpio/cy_gpio.h **** 
 446:Generated_Source\PSoC6\pdl\drivers/peripheral/gpio/cy_gpio.h **** /**
 447:Generated_Source\PSoC6\pdl\drivers/peripheral/gpio/cy_gpio.h **** * \addtogroup group_gpio_functions
 448:Generated_Source\PSoC6\pdl\drivers/peripheral/gpio/cy_gpio.h **** * \{
 449:Generated_Source\PSoC6\pdl\drivers/peripheral/gpio/cy_gpio.h **** */
 450:Generated_Source\PSoC6\pdl\drivers/peripheral/gpio/cy_gpio.h **** 
 451:Generated_Source\PSoC6\pdl\drivers/peripheral/gpio/cy_gpio.h **** /**
 452:Generated_Source\PSoC6\pdl\drivers/peripheral/gpio/cy_gpio.h **** * \addtogroup group_gpio_functions_init
 453:Generated_Source\PSoC6\pdl\drivers/peripheral/gpio/cy_gpio.h **** * \{
 454:Generated_Source\PSoC6\pdl\drivers/peripheral/gpio/cy_gpio.h **** */
 455:Generated_Source\PSoC6\pdl\drivers/peripheral/gpio/cy_gpio.h **** 
 456:Generated_Source\PSoC6\pdl\drivers/peripheral/gpio/cy_gpio.h **** cy_en_gpio_status_t Cy_GPIO_Pin_Init(GPIO_PRT_Type* base, uint32_t pinNum, const cy_stc_gpio_pin_co
 457:Generated_Source\PSoC6\pdl\drivers/peripheral/gpio/cy_gpio.h **** cy_en_gpio_status_t Cy_GPIO_Port_Init(GPIO_PRT_Type* base, const cy_stc_gpio_prt_config_t *config);
 458:Generated_Source\PSoC6\pdl\drivers/peripheral/gpio/cy_gpio.h **** void Cy_GPIO_Pin_FastInit(GPIO_PRT_Type* base, uint32_t pinNum, uint32_t driveMode, uint32_t outVal
 459:Generated_Source\PSoC6\pdl\drivers/peripheral/gpio/cy_gpio.h **** void Cy_GPIO_Port_Deinit(GPIO_PRT_Type* base);
 460:Generated_Source\PSoC6\pdl\drivers/peripheral/gpio/cy_gpio.h **** __STATIC_INLINE void Cy_GPIO_SetHSIOM(GPIO_PRT_Type* base, uint32_t pinNum, en_hsiom_sel_t value);
 461:Generated_Source\PSoC6\pdl\drivers/peripheral/gpio/cy_gpio.h **** __STATIC_INLINE en_hsiom_sel_t Cy_GPIO_GetHSIOM(GPIO_PRT_Type* base, uint32_t pinNum);
 462:Generated_Source\PSoC6\pdl\drivers/peripheral/gpio/cy_gpio.h **** __STATIC_INLINE GPIO_PRT_Type* Cy_GPIO_PortToAddr(uint32_t portNum);
 463:Generated_Source\PSoC6\pdl\drivers/peripheral/gpio/cy_gpio.h **** 
 464:Generated_Source\PSoC6\pdl\drivers/peripheral/gpio/cy_gpio.h **** /** \} group_gpio_functions_init */
 465:Generated_Source\PSoC6\pdl\drivers/peripheral/gpio/cy_gpio.h **** 
 466:Generated_Source\PSoC6\pdl\drivers/peripheral/gpio/cy_gpio.h **** /**
 467:Generated_Source\PSoC6\pdl\drivers/peripheral/gpio/cy_gpio.h **** * \addtogroup group_gpio_functions_gpio
 468:Generated_Source\PSoC6\pdl\drivers/peripheral/gpio/cy_gpio.h **** * \{
 469:Generated_Source\PSoC6\pdl\drivers/peripheral/gpio/cy_gpio.h **** */
 470:Generated_Source\PSoC6\pdl\drivers/peripheral/gpio/cy_gpio.h **** 
 471:Generated_Source\PSoC6\pdl\drivers/peripheral/gpio/cy_gpio.h **** __STATIC_INLINE uint32_t Cy_GPIO_Read(GPIO_PRT_Type* base, uint32_t pinNum);
 472:Generated_Source\PSoC6\pdl\drivers/peripheral/gpio/cy_gpio.h **** __STATIC_INLINE void Cy_GPIO_Write(GPIO_PRT_Type* base, uint32_t pinNum, uint32_t value);
 473:Generated_Source\PSoC6\pdl\drivers/peripheral/gpio/cy_gpio.h **** __STATIC_INLINE uint32_t Cy_GPIO_ReadOut(GPIO_PRT_Type* base, uint32_t pinNum);
 474:Generated_Source\PSoC6\pdl\drivers/peripheral/gpio/cy_gpio.h **** __STATIC_INLINE void Cy_GPIO_Set(GPIO_PRT_Type* base, uint32_t pinNum);
 475:Generated_Source\PSoC6\pdl\drivers/peripheral/gpio/cy_gpio.h **** __STATIC_INLINE void Cy_GPIO_Clr(GPIO_PRT_Type* base, uint32_t pinNum);
 476:Generated_Source\PSoC6\pdl\drivers/peripheral/gpio/cy_gpio.h **** __STATIC_INLINE void Cy_GPIO_Inv(GPIO_PRT_Type* base, uint32_t pinNum);
 477:Generated_Source\PSoC6\pdl\drivers/peripheral/gpio/cy_gpio.h **** __STATIC_INLINE void Cy_GPIO_SetDrivemode(GPIO_PRT_Type* base, uint32_t pinNum, uint32_t value);
 478:Generated_Source\PSoC6\pdl\drivers/peripheral/gpio/cy_gpio.h **** __STATIC_INLINE uint32_t Cy_GPIO_GetDrivemode(GPIO_PRT_Type* base, uint32_t pinNum);
 479:Generated_Source\PSoC6\pdl\drivers/peripheral/gpio/cy_gpio.h **** __STATIC_INLINE void Cy_GPIO_SetVtrip(GPIO_PRT_Type* base, uint32_t pinNum, uint32_t value);
 480:Generated_Source\PSoC6\pdl\drivers/peripheral/gpio/cy_gpio.h **** __STATIC_INLINE uint32_t Cy_GPIO_GetVtrip(GPIO_PRT_Type* base, uint32_t pinNum);
 481:Generated_Source\PSoC6\pdl\drivers/peripheral/gpio/cy_gpio.h **** __STATIC_INLINE void Cy_GPIO_SetSlewRate(GPIO_PRT_Type* base, uint32_t pinNum, uint32_t value);
 482:Generated_Source\PSoC6\pdl\drivers/peripheral/gpio/cy_gpio.h **** __STATIC_INLINE uint32_t Cy_GPIO_GetSlewRate(GPIO_PRT_Type* base, uint32_t pinNum);
 483:Generated_Source\PSoC6\pdl\drivers/peripheral/gpio/cy_gpio.h **** __STATIC_INLINE void Cy_GPIO_SetDriveSel(GPIO_PRT_Type* base, uint32_t pinNum, uint32_t value);
 484:Generated_Source\PSoC6\pdl\drivers/peripheral/gpio/cy_gpio.h **** __STATIC_INLINE uint32_t Cy_GPIO_GetDriveSel(GPIO_PRT_Type* base, uint32_t pinNum);
 485:Generated_Source\PSoC6\pdl\drivers/peripheral/gpio/cy_gpio.h **** 
 486:Generated_Source\PSoC6\pdl\drivers/peripheral/gpio/cy_gpio.h **** /** \} group_gpio_functions_gpio */
 487:Generated_Source\PSoC6\pdl\drivers/peripheral/gpio/cy_gpio.h **** 
 488:Generated_Source\PSoC6\pdl\drivers/peripheral/gpio/cy_gpio.h **** /**
 489:Generated_Source\PSoC6\pdl\drivers/peripheral/gpio/cy_gpio.h **** * \addtogroup group_gpio_functions_sio
 490:Generated_Source\PSoC6\pdl\drivers/peripheral/gpio/cy_gpio.h **** * \{
 491:Generated_Source\PSoC6\pdl\drivers/peripheral/gpio/cy_gpio.h **** */
 492:Generated_Source\PSoC6\pdl\drivers/peripheral/gpio/cy_gpio.h **** 
 493:Generated_Source\PSoC6\pdl\drivers/peripheral/gpio/cy_gpio.h **** __STATIC_INLINE void Cy_GPIO_SetVregEn(GPIO_PRT_Type* base, uint32_t pinNum, uint32_t value);
 494:Generated_Source\PSoC6\pdl\drivers/peripheral/gpio/cy_gpio.h **** __STATIC_INLINE uint32_t Cy_GPIO_GetVregEn(GPIO_PRT_Type* base, uint32_t pinNum);
 495:Generated_Source\PSoC6\pdl\drivers/peripheral/gpio/cy_gpio.h **** __STATIC_INLINE void Cy_GPIO_SetIbufMode(GPIO_PRT_Type* base, uint32_t pinNum, uint32_t value);
 496:Generated_Source\PSoC6\pdl\drivers/peripheral/gpio/cy_gpio.h **** __STATIC_INLINE uint32_t Cy_GPIO_GetIbufMode(GPIO_PRT_Type* base, uint32_t pinNum);
 497:Generated_Source\PSoC6\pdl\drivers/peripheral/gpio/cy_gpio.h **** __STATIC_INLINE void Cy_GPIO_SetVtripSel(GPIO_PRT_Type* base, uint32_t pinNum, uint32_t value);
 498:Generated_Source\PSoC6\pdl\drivers/peripheral/gpio/cy_gpio.h **** __STATIC_INLINE uint32_t Cy_GPIO_GetVtripSel(GPIO_PRT_Type* base, uint32_t pinNum);
 499:Generated_Source\PSoC6\pdl\drivers/peripheral/gpio/cy_gpio.h **** __STATIC_INLINE void Cy_GPIO_SetVrefSel(GPIO_PRT_Type* base, uint32_t pinNum, uint32_t value);
 500:Generated_Source\PSoC6\pdl\drivers/peripheral/gpio/cy_gpio.h **** __STATIC_INLINE uint32_t Cy_GPIO_GetVrefSel(GPIO_PRT_Type* base, uint32_t pinNum);
 501:Generated_Source\PSoC6\pdl\drivers/peripheral/gpio/cy_gpio.h **** __STATIC_INLINE void Cy_GPIO_SetVohSel(GPIO_PRT_Type* base, uint32_t pinNum, uint32_t value);
ARM GAS  C:\Users\Brian\AppData\Local\Temp\ccNQoqIU.s 			page 34


 502:Generated_Source\PSoC6\pdl\drivers/peripheral/gpio/cy_gpio.h **** __STATIC_INLINE uint32_t Cy_GPIO_GetVohSel(GPIO_PRT_Type* base, uint32_t pinNum);
 503:Generated_Source\PSoC6\pdl\drivers/peripheral/gpio/cy_gpio.h **** 
 504:Generated_Source\PSoC6\pdl\drivers/peripheral/gpio/cy_gpio.h **** /** \} group_gpio_functions_sio */
 505:Generated_Source\PSoC6\pdl\drivers/peripheral/gpio/cy_gpio.h **** 
 506:Generated_Source\PSoC6\pdl\drivers/peripheral/gpio/cy_gpio.h **** /**
 507:Generated_Source\PSoC6\pdl\drivers/peripheral/gpio/cy_gpio.h **** * \addtogroup group_gpio_functions_interrupt
 508:Generated_Source\PSoC6\pdl\drivers/peripheral/gpio/cy_gpio.h **** * \{
 509:Generated_Source\PSoC6\pdl\drivers/peripheral/gpio/cy_gpio.h **** */
 510:Generated_Source\PSoC6\pdl\drivers/peripheral/gpio/cy_gpio.h **** 
 511:Generated_Source\PSoC6\pdl\drivers/peripheral/gpio/cy_gpio.h **** __STATIC_INLINE uint32_t Cy_GPIO_GetInterruptStatus(GPIO_PRT_Type* base, uint32_t pinNum);
 512:Generated_Source\PSoC6\pdl\drivers/peripheral/gpio/cy_gpio.h **** __STATIC_INLINE void Cy_GPIO_ClearInterrupt(GPIO_PRT_Type* base, uint32_t pinNum);
 513:Generated_Source\PSoC6\pdl\drivers/peripheral/gpio/cy_gpio.h **** __STATIC_INLINE void Cy_GPIO_SetInterruptMask(GPIO_PRT_Type* base, uint32_t pinNum, uint32_t value)
 514:Generated_Source\PSoC6\pdl\drivers/peripheral/gpio/cy_gpio.h **** __STATIC_INLINE uint32_t Cy_GPIO_GetInterruptMask(GPIO_PRT_Type* base, uint32_t pinNum);
 515:Generated_Source\PSoC6\pdl\drivers/peripheral/gpio/cy_gpio.h **** __STATIC_INLINE uint32_t Cy_GPIO_GetInterruptStatusMasked(GPIO_PRT_Type* base, uint32_t pinNum);
 516:Generated_Source\PSoC6\pdl\drivers/peripheral/gpio/cy_gpio.h **** __STATIC_INLINE void Cy_GPIO_SetSwInterrupt(GPIO_PRT_Type* base, uint32_t pinNum);
 517:Generated_Source\PSoC6\pdl\drivers/peripheral/gpio/cy_gpio.h **** __STATIC_INLINE void Cy_GPIO_SetInterruptEdge(GPIO_PRT_Type* base, uint32_t pinNum, uint32_t value)
 518:Generated_Source\PSoC6\pdl\drivers/peripheral/gpio/cy_gpio.h **** __STATIC_INLINE uint32_t Cy_GPIO_GetInterruptEdge(GPIO_PRT_Type* base, uint32_t pinNum);
 519:Generated_Source\PSoC6\pdl\drivers/peripheral/gpio/cy_gpio.h **** __STATIC_INLINE void Cy_GPIO_SetFilter(GPIO_PRT_Type* base, uint32_t value);
 520:Generated_Source\PSoC6\pdl\drivers/peripheral/gpio/cy_gpio.h **** __STATIC_INLINE uint32_t Cy_GPIO_GetFilter(GPIO_PRT_Type* base);
 521:Generated_Source\PSoC6\pdl\drivers/peripheral/gpio/cy_gpio.h **** 
 522:Generated_Source\PSoC6\pdl\drivers/peripheral/gpio/cy_gpio.h **** #if (IOSS_GPIO_GPIO_PORT_NR_0_31 != 0) || defined (CY_DOXYGEN)
 523:Generated_Source\PSoC6\pdl\drivers/peripheral/gpio/cy_gpio.h **** __STATIC_INLINE uint32_t Cy_GPIO_GetInterruptCause0(void);
 524:Generated_Source\PSoC6\pdl\drivers/peripheral/gpio/cy_gpio.h **** #endif /* (IOSS_GPIO_GPIO_PORT_NR_0_31 != 0) */
 525:Generated_Source\PSoC6\pdl\drivers/peripheral/gpio/cy_gpio.h **** 
 526:Generated_Source\PSoC6\pdl\drivers/peripheral/gpio/cy_gpio.h **** #if (IOSS_GPIO_GPIO_PORT_NR_32_63 != 0) || defined (CY_DOXYGEN)
 527:Generated_Source\PSoC6\pdl\drivers/peripheral/gpio/cy_gpio.h **** __STATIC_INLINE uint32_t Cy_GPIO_GetInterruptCause1(void);
 528:Generated_Source\PSoC6\pdl\drivers/peripheral/gpio/cy_gpio.h **** #endif /* (IOSS_GPIO_GPIO_PORT_NR_32_63 != 0) */
 529:Generated_Source\PSoC6\pdl\drivers/peripheral/gpio/cy_gpio.h **** 
 530:Generated_Source\PSoC6\pdl\drivers/peripheral/gpio/cy_gpio.h **** #if (IOSS_GPIO_GPIO_PORT_NR_64_95 != 0) || defined (CY_DOXYGEN)
 531:Generated_Source\PSoC6\pdl\drivers/peripheral/gpio/cy_gpio.h **** __STATIC_INLINE uint32_t Cy_GPIO_GetInterruptCause2(void);
 532:Generated_Source\PSoC6\pdl\drivers/peripheral/gpio/cy_gpio.h **** #endif /* (IOSS_GPIO_GPIO_PORT_NR_64_95 != 0) */
 533:Generated_Source\PSoC6\pdl\drivers/peripheral/gpio/cy_gpio.h **** 
 534:Generated_Source\PSoC6\pdl\drivers/peripheral/gpio/cy_gpio.h **** #if (IOSS_GPIO_GPIO_PORT_NR_96_127 != 0) || defined (CY_DOXYGEN)
 535:Generated_Source\PSoC6\pdl\drivers/peripheral/gpio/cy_gpio.h **** __STATIC_INLINE uint32_t Cy_GPIO_GetInterruptCause3(void);
 536:Generated_Source\PSoC6\pdl\drivers/peripheral/gpio/cy_gpio.h **** #endif /* (IOSS_GPIO_GPIO_PORT_NR_96_127 != 0) */
 537:Generated_Source\PSoC6\pdl\drivers/peripheral/gpio/cy_gpio.h **** 
 538:Generated_Source\PSoC6\pdl\drivers/peripheral/gpio/cy_gpio.h **** /** \} group_gpio_functions_interrupt */
 539:Generated_Source\PSoC6\pdl\drivers/peripheral/gpio/cy_gpio.h **** 
 540:Generated_Source\PSoC6\pdl\drivers/peripheral/gpio/cy_gpio.h **** 
 541:Generated_Source\PSoC6\pdl\drivers/peripheral/gpio/cy_gpio.h **** /**
 542:Generated_Source\PSoC6\pdl\drivers/peripheral/gpio/cy_gpio.h **** * \addtogroup group_gpio_functions_init
 543:Generated_Source\PSoC6\pdl\drivers/peripheral/gpio/cy_gpio.h **** * \{
 544:Generated_Source\PSoC6\pdl\drivers/peripheral/gpio/cy_gpio.h **** */
 545:Generated_Source\PSoC6\pdl\drivers/peripheral/gpio/cy_gpio.h **** 
 546:Generated_Source\PSoC6\pdl\drivers/peripheral/gpio/cy_gpio.h **** /*******************************************************************************
 547:Generated_Source\PSoC6\pdl\drivers/peripheral/gpio/cy_gpio.h **** * Function Name: Cy_GPIO_SetHSIOM
 548:Generated_Source\PSoC6\pdl\drivers/peripheral/gpio/cy_gpio.h **** ****************************************************************************//**
 549:Generated_Source\PSoC6\pdl\drivers/peripheral/gpio/cy_gpio.h **** *
 550:Generated_Source\PSoC6\pdl\drivers/peripheral/gpio/cy_gpio.h **** * \brief Configures the HSIOM connection to the pin.
 551:Generated_Source\PSoC6\pdl\drivers/peripheral/gpio/cy_gpio.h **** *
 552:Generated_Source\PSoC6\pdl\drivers/peripheral/gpio/cy_gpio.h **** * Connects the specified High-Speed Input Output Multiplexer (HSIOM) selection
 553:Generated_Source\PSoC6\pdl\drivers/peripheral/gpio/cy_gpio.h **** * to the pin.
 554:Generated_Source\PSoC6\pdl\drivers/peripheral/gpio/cy_gpio.h **** *
 555:Generated_Source\PSoC6\pdl\drivers/peripheral/gpio/cy_gpio.h **** * \param base
 556:Generated_Source\PSoC6\pdl\drivers/peripheral/gpio/cy_gpio.h **** * Pointer to the pin's port register base address
 557:Generated_Source\PSoC6\pdl\drivers/peripheral/gpio/cy_gpio.h **** *
 558:Generated_Source\PSoC6\pdl\drivers/peripheral/gpio/cy_gpio.h **** * \param pinNum
ARM GAS  C:\Users\Brian\AppData\Local\Temp\ccNQoqIU.s 			page 35


 559:Generated_Source\PSoC6\pdl\drivers/peripheral/gpio/cy_gpio.h **** * Position of the pin bit-field within the port register
 560:Generated_Source\PSoC6\pdl\drivers/peripheral/gpio/cy_gpio.h **** *
 561:Generated_Source\PSoC6\pdl\drivers/peripheral/gpio/cy_gpio.h **** * \param value
 562:Generated_Source\PSoC6\pdl\drivers/peripheral/gpio/cy_gpio.h **** * HSIOM input selection
 563:Generated_Source\PSoC6\pdl\drivers/peripheral/gpio/cy_gpio.h **** *
 564:Generated_Source\PSoC6\pdl\drivers/peripheral/gpio/cy_gpio.h **** * \return
 565:Generated_Source\PSoC6\pdl\drivers/peripheral/gpio/cy_gpio.h **** * void
 566:Generated_Source\PSoC6\pdl\drivers/peripheral/gpio/cy_gpio.h **** *
 567:Generated_Source\PSoC6\pdl\drivers/peripheral/gpio/cy_gpio.h **** * \note 
 568:Generated_Source\PSoC6\pdl\drivers/peripheral/gpio/cy_gpio.h **** * This function modifies a port register in a read-modify-write operation. It is
 569:Generated_Source\PSoC6\pdl\drivers/peripheral/gpio/cy_gpio.h **** * not thread safe as the resource is shared among multiple pins on a port.
 570:Generated_Source\PSoC6\pdl\drivers/peripheral/gpio/cy_gpio.h **** *
 571:Generated_Source\PSoC6\pdl\drivers/peripheral/gpio/cy_gpio.h **** * \funcusage
 572:Generated_Source\PSoC6\pdl\drivers/peripheral/gpio/cy_gpio.h **** * \snippet gpio/gpio_v1_10_sut_01.cydsn/main_cm4.c snippet_Cy_GPIO_SetHSIOM
 573:Generated_Source\PSoC6\pdl\drivers/peripheral/gpio/cy_gpio.h **** *
 574:Generated_Source\PSoC6\pdl\drivers/peripheral/gpio/cy_gpio.h **** *******************************************************************************/
 575:Generated_Source\PSoC6\pdl\drivers/peripheral/gpio/cy_gpio.h **** __STATIC_INLINE void Cy_GPIO_SetHSIOM(GPIO_PRT_Type* base, uint32_t pinNum, en_hsiom_sel_t value)
 576:Generated_Source\PSoC6\pdl\drivers/peripheral/gpio/cy_gpio.h **** {
 577:Generated_Source\PSoC6\pdl\drivers/peripheral/gpio/cy_gpio.h ****     uint32_t portNum;
 578:Generated_Source\PSoC6\pdl\drivers/peripheral/gpio/cy_gpio.h ****     uint32_t tempReg;
 579:Generated_Source\PSoC6\pdl\drivers/peripheral/gpio/cy_gpio.h ****     HSIOM_PRT_Type* portAddrHSIOM;
 580:Generated_Source\PSoC6\pdl\drivers/peripheral/gpio/cy_gpio.h **** 
 581:Generated_Source\PSoC6\pdl\drivers/peripheral/gpio/cy_gpio.h ****     CY_ASSERT_L2(CY_GPIO_IS_PIN_VALID(pinNum));
 582:Generated_Source\PSoC6\pdl\drivers/peripheral/gpio/cy_gpio.h ****     CY_ASSERT_L2(CY_GPIO_IS_HSIOM_VALID(value));
 583:Generated_Source\PSoC6\pdl\drivers/peripheral/gpio/cy_gpio.h **** 
 584:Generated_Source\PSoC6\pdl\drivers/peripheral/gpio/cy_gpio.h ****     portNum = ((uint32_t)(base) - GPIO_BASE) / GPIO_PRT_SECTION_SIZE;
 585:Generated_Source\PSoC6\pdl\drivers/peripheral/gpio/cy_gpio.h ****     portAddrHSIOM = (HSIOM_PRT_Type*)(HSIOM_BASE + (HSIOM_PRT_SECTION_SIZE * portNum));
 586:Generated_Source\PSoC6\pdl\drivers/peripheral/gpio/cy_gpio.h **** 
 587:Generated_Source\PSoC6\pdl\drivers/peripheral/gpio/cy_gpio.h ****     if(pinNum < CY_GPIO_PRT_HALF)
 588:Generated_Source\PSoC6\pdl\drivers/peripheral/gpio/cy_gpio.h ****     {
 589:Generated_Source\PSoC6\pdl\drivers/peripheral/gpio/cy_gpio.h ****         tempReg = portAddrHSIOM->PORT_SEL0 & ~(CY_GPIO_HSIOM_MASK << (pinNum << CY_GPIO_HSIOM_OFFSE
 590:Generated_Source\PSoC6\pdl\drivers/peripheral/gpio/cy_gpio.h ****         portAddrHSIOM->PORT_SEL0 = tempReg | ((value & CY_GPIO_HSIOM_MASK) << (pinNum << CY_GPIO_HS
 591:Generated_Source\PSoC6\pdl\drivers/peripheral/gpio/cy_gpio.h ****     }
 592:Generated_Source\PSoC6\pdl\drivers/peripheral/gpio/cy_gpio.h ****     else
 593:Generated_Source\PSoC6\pdl\drivers/peripheral/gpio/cy_gpio.h ****     {
 594:Generated_Source\PSoC6\pdl\drivers/peripheral/gpio/cy_gpio.h ****         pinNum -= CY_GPIO_PRT_HALF;
 595:Generated_Source\PSoC6\pdl\drivers/peripheral/gpio/cy_gpio.h ****         tempReg = portAddrHSIOM->PORT_SEL1 & ~(CY_GPIO_HSIOM_MASK << (pinNum << CY_GPIO_HSIOM_OFFSE
 596:Generated_Source\PSoC6\pdl\drivers/peripheral/gpio/cy_gpio.h ****         portAddrHSIOM->PORT_SEL1 = tempReg | ((value & CY_GPIO_HSIOM_MASK) << (pinNum << CY_GPIO_HS
 597:Generated_Source\PSoC6\pdl\drivers/peripheral/gpio/cy_gpio.h ****     }
 598:Generated_Source\PSoC6\pdl\drivers/peripheral/gpio/cy_gpio.h **** }
 599:Generated_Source\PSoC6\pdl\drivers/peripheral/gpio/cy_gpio.h **** 
 600:Generated_Source\PSoC6\pdl\drivers/peripheral/gpio/cy_gpio.h **** 
 601:Generated_Source\PSoC6\pdl\drivers/peripheral/gpio/cy_gpio.h **** /*******************************************************************************
 602:Generated_Source\PSoC6\pdl\drivers/peripheral/gpio/cy_gpio.h **** * Function Name: Cy_GPIO_GetHSIOM
 603:Generated_Source\PSoC6\pdl\drivers/peripheral/gpio/cy_gpio.h **** ****************************************************************************//**
 604:Generated_Source\PSoC6\pdl\drivers/peripheral/gpio/cy_gpio.h **** *
 605:Generated_Source\PSoC6\pdl\drivers/peripheral/gpio/cy_gpio.h **** * \brief Returns the current HSIOM multiplexer connection to the pin.
 606:Generated_Source\PSoC6\pdl\drivers/peripheral/gpio/cy_gpio.h **** *
 607:Generated_Source\PSoC6\pdl\drivers/peripheral/gpio/cy_gpio.h **** * \param base
 608:Generated_Source\PSoC6\pdl\drivers/peripheral/gpio/cy_gpio.h **** * Pointer to the pin's port register base address
 609:Generated_Source\PSoC6\pdl\drivers/peripheral/gpio/cy_gpio.h **** *
 610:Generated_Source\PSoC6\pdl\drivers/peripheral/gpio/cy_gpio.h **** * \param pinNum
 611:Generated_Source\PSoC6\pdl\drivers/peripheral/gpio/cy_gpio.h **** * Position of the pin bit-field within the port register
 612:Generated_Source\PSoC6\pdl\drivers/peripheral/gpio/cy_gpio.h **** *
 613:Generated_Source\PSoC6\pdl\drivers/peripheral/gpio/cy_gpio.h **** * \return
 614:Generated_Source\PSoC6\pdl\drivers/peripheral/gpio/cy_gpio.h **** * HSIOM input selection
 615:Generated_Source\PSoC6\pdl\drivers/peripheral/gpio/cy_gpio.h **** *
ARM GAS  C:\Users\Brian\AppData\Local\Temp\ccNQoqIU.s 			page 36


 616:Generated_Source\PSoC6\pdl\drivers/peripheral/gpio/cy_gpio.h **** * \funcusage
 617:Generated_Source\PSoC6\pdl\drivers/peripheral/gpio/cy_gpio.h **** * \snippet gpio/gpio_v1_10_sut_01.cydsn/main_cm4.c snippet_Cy_GPIO_SetHSIOM
 618:Generated_Source\PSoC6\pdl\drivers/peripheral/gpio/cy_gpio.h **** *
 619:Generated_Source\PSoC6\pdl\drivers/peripheral/gpio/cy_gpio.h **** *******************************************************************************/
 620:Generated_Source\PSoC6\pdl\drivers/peripheral/gpio/cy_gpio.h **** __STATIC_INLINE en_hsiom_sel_t Cy_GPIO_GetHSIOM(GPIO_PRT_Type* base, uint32_t pinNum)
 621:Generated_Source\PSoC6\pdl\drivers/peripheral/gpio/cy_gpio.h **** {
 622:Generated_Source\PSoC6\pdl\drivers/peripheral/gpio/cy_gpio.h ****     uint32_t returnValue;
 623:Generated_Source\PSoC6\pdl\drivers/peripheral/gpio/cy_gpio.h ****     uint32_t portNum;
 624:Generated_Source\PSoC6\pdl\drivers/peripheral/gpio/cy_gpio.h ****     HSIOM_PRT_Type* portAddrHSIOM;
 625:Generated_Source\PSoC6\pdl\drivers/peripheral/gpio/cy_gpio.h ****     
 626:Generated_Source\PSoC6\pdl\drivers/peripheral/gpio/cy_gpio.h ****     CY_ASSERT_L2(CY_GPIO_IS_PIN_VALID(pinNum));
 627:Generated_Source\PSoC6\pdl\drivers/peripheral/gpio/cy_gpio.h **** 
 628:Generated_Source\PSoC6\pdl\drivers/peripheral/gpio/cy_gpio.h ****     portNum = ((uint32_t)(base) - GPIO_BASE) / GPIO_PRT_SECTION_SIZE;
 629:Generated_Source\PSoC6\pdl\drivers/peripheral/gpio/cy_gpio.h ****     portAddrHSIOM = (HSIOM_PRT_Type*)(HSIOM_BASE + (HSIOM_PRT_SECTION_SIZE * portNum));
 630:Generated_Source\PSoC6\pdl\drivers/peripheral/gpio/cy_gpio.h **** 
 631:Generated_Source\PSoC6\pdl\drivers/peripheral/gpio/cy_gpio.h ****     if(pinNum < CY_GPIO_PRT_HALF)
 632:Generated_Source\PSoC6\pdl\drivers/peripheral/gpio/cy_gpio.h ****     {
 633:Generated_Source\PSoC6\pdl\drivers/peripheral/gpio/cy_gpio.h ****         returnValue = (portAddrHSIOM->PORT_SEL0 >> (pinNum << CY_GPIO_HSIOM_OFFSET)) & CY_GPIO_HSIO
 634:Generated_Source\PSoC6\pdl\drivers/peripheral/gpio/cy_gpio.h ****     }
 635:Generated_Source\PSoC6\pdl\drivers/peripheral/gpio/cy_gpio.h ****     else
 636:Generated_Source\PSoC6\pdl\drivers/peripheral/gpio/cy_gpio.h ****     {
 637:Generated_Source\PSoC6\pdl\drivers/peripheral/gpio/cy_gpio.h ****         pinNum -= CY_GPIO_PRT_HALF;
 638:Generated_Source\PSoC6\pdl\drivers/peripheral/gpio/cy_gpio.h ****         returnValue = (portAddrHSIOM->PORT_SEL1 >> (pinNum << CY_GPIO_HSIOM_OFFSET)) & CY_GPIO_HSIO
 639:Generated_Source\PSoC6\pdl\drivers/peripheral/gpio/cy_gpio.h ****     }
 640:Generated_Source\PSoC6\pdl\drivers/peripheral/gpio/cy_gpio.h **** 
 641:Generated_Source\PSoC6\pdl\drivers/peripheral/gpio/cy_gpio.h ****     return (en_hsiom_sel_t)returnValue;
 642:Generated_Source\PSoC6\pdl\drivers/peripheral/gpio/cy_gpio.h **** }
 643:Generated_Source\PSoC6\pdl\drivers/peripheral/gpio/cy_gpio.h **** 
 644:Generated_Source\PSoC6\pdl\drivers/peripheral/gpio/cy_gpio.h **** 
 645:Generated_Source\PSoC6\pdl\drivers/peripheral/gpio/cy_gpio.h **** /*******************************************************************************
 646:Generated_Source\PSoC6\pdl\drivers/peripheral/gpio/cy_gpio.h **** * Function Name: Cy_GPIO_PortToAddr
 647:Generated_Source\PSoC6\pdl\drivers/peripheral/gpio/cy_gpio.h **** ****************************************************************************//**
 648:Generated_Source\PSoC6\pdl\drivers/peripheral/gpio/cy_gpio.h **** *
 649:Generated_Source\PSoC6\pdl\drivers/peripheral/gpio/cy_gpio.h **** * \brief Retrieves the port address based on the given port number.
 650:Generated_Source\PSoC6\pdl\drivers/peripheral/gpio/cy_gpio.h **** *
 651:Generated_Source\PSoC6\pdl\drivers/peripheral/gpio/cy_gpio.h **** * This is a helper function to calculate the port base address when given a port
 652:Generated_Source\PSoC6\pdl\drivers/peripheral/gpio/cy_gpio.h **** * number. It is to be used when pin access needs to be calculated at runtime.
 653:Generated_Source\PSoC6\pdl\drivers/peripheral/gpio/cy_gpio.h **** *
 654:Generated_Source\PSoC6\pdl\drivers/peripheral/gpio/cy_gpio.h **** * \param portNum
 655:Generated_Source\PSoC6\pdl\drivers/peripheral/gpio/cy_gpio.h **** * Port number
 656:Generated_Source\PSoC6\pdl\drivers/peripheral/gpio/cy_gpio.h **** *
 657:Generated_Source\PSoC6\pdl\drivers/peripheral/gpio/cy_gpio.h **** * \return
 658:Generated_Source\PSoC6\pdl\drivers/peripheral/gpio/cy_gpio.h **** * Base address of the port register structure
 659:Generated_Source\PSoC6\pdl\drivers/peripheral/gpio/cy_gpio.h **** *
 660:Generated_Source\PSoC6\pdl\drivers/peripheral/gpio/cy_gpio.h **** * \funcusage
 661:Generated_Source\PSoC6\pdl\drivers/peripheral/gpio/cy_gpio.h **** * \snippet gpio/gpio_v1_10_sut_01.cydsn/main_cm4.c snippet_Cy_GPIO_PortToAddr
 662:Generated_Source\PSoC6\pdl\drivers/peripheral/gpio/cy_gpio.h **** *
 663:Generated_Source\PSoC6\pdl\drivers/peripheral/gpio/cy_gpio.h **** *******************************************************************************/
 664:Generated_Source\PSoC6\pdl\drivers/peripheral/gpio/cy_gpio.h **** __STATIC_INLINE GPIO_PRT_Type* Cy_GPIO_PortToAddr(uint32_t portNum)
 665:Generated_Source\PSoC6\pdl\drivers/peripheral/gpio/cy_gpio.h **** {
 666:Generated_Source\PSoC6\pdl\drivers/peripheral/gpio/cy_gpio.h ****     GPIO_PRT_Type* base;
 667:Generated_Source\PSoC6\pdl\drivers/peripheral/gpio/cy_gpio.h ****     
 668:Generated_Source\PSoC6\pdl\drivers/peripheral/gpio/cy_gpio.h ****     if(portNum < (uint32_t)IOSS_GPIO_GPIO_PORT_NR)
 669:Generated_Source\PSoC6\pdl\drivers/peripheral/gpio/cy_gpio.h ****     {
 670:Generated_Source\PSoC6\pdl\drivers/peripheral/gpio/cy_gpio.h ****          base = (GPIO_PRT_Type *)(GPIO_BASE + (GPIO_PRT_SECTION_SIZE * portNum));
 671:Generated_Source\PSoC6\pdl\drivers/peripheral/gpio/cy_gpio.h ****     }
 672:Generated_Source\PSoC6\pdl\drivers/peripheral/gpio/cy_gpio.h ****     else
ARM GAS  C:\Users\Brian\AppData\Local\Temp\ccNQoqIU.s 			page 37


 673:Generated_Source\PSoC6\pdl\drivers/peripheral/gpio/cy_gpio.h ****     {
 674:Generated_Source\PSoC6\pdl\drivers/peripheral/gpio/cy_gpio.h ****         /* Error: Return default base address */
 675:Generated_Source\PSoC6\pdl\drivers/peripheral/gpio/cy_gpio.h ****         base = (GPIO_PRT_Type *)(GPIO_BASE);
 676:Generated_Source\PSoC6\pdl\drivers/peripheral/gpio/cy_gpio.h ****     }
 677:Generated_Source\PSoC6\pdl\drivers/peripheral/gpio/cy_gpio.h **** 
 678:Generated_Source\PSoC6\pdl\drivers/peripheral/gpio/cy_gpio.h ****     return (base);
 679:Generated_Source\PSoC6\pdl\drivers/peripheral/gpio/cy_gpio.h **** }
 680:Generated_Source\PSoC6\pdl\drivers/peripheral/gpio/cy_gpio.h **** 
 681:Generated_Source\PSoC6\pdl\drivers/peripheral/gpio/cy_gpio.h **** /** \} group_gpio_functions_init */
 682:Generated_Source\PSoC6\pdl\drivers/peripheral/gpio/cy_gpio.h **** 
 683:Generated_Source\PSoC6\pdl\drivers/peripheral/gpio/cy_gpio.h **** /**
 684:Generated_Source\PSoC6\pdl\drivers/peripheral/gpio/cy_gpio.h **** * \addtogroup group_gpio_functions_gpio
 685:Generated_Source\PSoC6\pdl\drivers/peripheral/gpio/cy_gpio.h **** * \{
 686:Generated_Source\PSoC6\pdl\drivers/peripheral/gpio/cy_gpio.h **** */
 687:Generated_Source\PSoC6\pdl\drivers/peripheral/gpio/cy_gpio.h **** 
 688:Generated_Source\PSoC6\pdl\drivers/peripheral/gpio/cy_gpio.h **** /*******************************************************************************
 689:Generated_Source\PSoC6\pdl\drivers/peripheral/gpio/cy_gpio.h **** * Function Name: Cy_GPIO_Read
 690:Generated_Source\PSoC6\pdl\drivers/peripheral/gpio/cy_gpio.h **** ****************************************************************************//**
 691:Generated_Source\PSoC6\pdl\drivers/peripheral/gpio/cy_gpio.h **** *
 692:Generated_Source\PSoC6\pdl\drivers/peripheral/gpio/cy_gpio.h **** * \brief Reads the current logic level on the input buffer of the pin.
 693:Generated_Source\PSoC6\pdl\drivers/peripheral/gpio/cy_gpio.h **** *
 694:Generated_Source\PSoC6\pdl\drivers/peripheral/gpio/cy_gpio.h **** * \param base
 695:Generated_Source\PSoC6\pdl\drivers/peripheral/gpio/cy_gpio.h **** * Pointer to the pin's port register base address
 696:Generated_Source\PSoC6\pdl\drivers/peripheral/gpio/cy_gpio.h **** *
 697:Generated_Source\PSoC6\pdl\drivers/peripheral/gpio/cy_gpio.h **** * \param pinNum
 698:Generated_Source\PSoC6\pdl\drivers/peripheral/gpio/cy_gpio.h **** * Position of the pin bit-field within the port register.
 699:Generated_Source\PSoC6\pdl\drivers/peripheral/gpio/cy_gpio.h **** * Bit position 8 is the routed pin through the port glitch filter.
 700:Generated_Source\PSoC6\pdl\drivers/peripheral/gpio/cy_gpio.h **** *
 701:Generated_Source\PSoC6\pdl\drivers/peripheral/gpio/cy_gpio.h **** * \return
 702:Generated_Source\PSoC6\pdl\drivers/peripheral/gpio/cy_gpio.h **** * Logic level present on the pin
 703:Generated_Source\PSoC6\pdl\drivers/peripheral/gpio/cy_gpio.h **** *
 704:Generated_Source\PSoC6\pdl\drivers/peripheral/gpio/cy_gpio.h **** * \funcusage
 705:Generated_Source\PSoC6\pdl\drivers/peripheral/gpio/cy_gpio.h **** * \snippet gpio/gpio_v1_10_sut_01.cydsn/main_cm4.c snippet_Cy_GPIO_Read
 706:Generated_Source\PSoC6\pdl\drivers/peripheral/gpio/cy_gpio.h **** *
 707:Generated_Source\PSoC6\pdl\drivers/peripheral/gpio/cy_gpio.h **** *******************************************************************************/
 708:Generated_Source\PSoC6\pdl\drivers/peripheral/gpio/cy_gpio.h **** __STATIC_INLINE uint32_t Cy_GPIO_Read(GPIO_PRT_Type* base, uint32_t pinNum)
 709:Generated_Source\PSoC6\pdl\drivers/peripheral/gpio/cy_gpio.h **** {
 710:Generated_Source\PSoC6\pdl\drivers/peripheral/gpio/cy_gpio.h ****     CY_ASSERT_L2(CY_GPIO_IS_FILTER_PIN_VALID(pinNum));
 711:Generated_Source\PSoC6\pdl\drivers/peripheral/gpio/cy_gpio.h ****     
 712:Generated_Source\PSoC6\pdl\drivers/peripheral/gpio/cy_gpio.h ****     return (base->IN >> (pinNum)) & CY_GPIO_IN_MASK;
 713:Generated_Source\PSoC6\pdl\drivers/peripheral/gpio/cy_gpio.h **** }
 714:Generated_Source\PSoC6\pdl\drivers/peripheral/gpio/cy_gpio.h **** 
 715:Generated_Source\PSoC6\pdl\drivers/peripheral/gpio/cy_gpio.h **** 
 716:Generated_Source\PSoC6\pdl\drivers/peripheral/gpio/cy_gpio.h **** /*******************************************************************************
 717:Generated_Source\PSoC6\pdl\drivers/peripheral/gpio/cy_gpio.h **** * Function Name: Cy_GPIO_Write
 718:Generated_Source\PSoC6\pdl\drivers/peripheral/gpio/cy_gpio.h **** ****************************************************************************//**
 719:Generated_Source\PSoC6\pdl\drivers/peripheral/gpio/cy_gpio.h **** *
 720:Generated_Source\PSoC6\pdl\drivers/peripheral/gpio/cy_gpio.h **** * \brief Write a logic 0 or logic 1 state to the output driver.
 721:Generated_Source\PSoC6\pdl\drivers/peripheral/gpio/cy_gpio.h **** *
 722:Generated_Source\PSoC6\pdl\drivers/peripheral/gpio/cy_gpio.h **** * This function should be used only for software driven pins. It does not have
 723:Generated_Source\PSoC6\pdl\drivers/peripheral/gpio/cy_gpio.h **** * any effect on peripheral driven pins.
 724:Generated_Source\PSoC6\pdl\drivers/peripheral/gpio/cy_gpio.h **** *
 725:Generated_Source\PSoC6\pdl\drivers/peripheral/gpio/cy_gpio.h **** * \param base
 726:Generated_Source\PSoC6\pdl\drivers/peripheral/gpio/cy_gpio.h **** * Pointer to the pin's port register base address
 727:Generated_Source\PSoC6\pdl\drivers/peripheral/gpio/cy_gpio.h **** *
 728:Generated_Source\PSoC6\pdl\drivers/peripheral/gpio/cy_gpio.h **** * \param pinNum
 729:Generated_Source\PSoC6\pdl\drivers/peripheral/gpio/cy_gpio.h **** * Position of the pin bit-field within the port register
ARM GAS  C:\Users\Brian\AppData\Local\Temp\ccNQoqIU.s 			page 38


 730:Generated_Source\PSoC6\pdl\drivers/peripheral/gpio/cy_gpio.h **** *
 731:Generated_Source\PSoC6\pdl\drivers/peripheral/gpio/cy_gpio.h **** * \param value
 732:Generated_Source\PSoC6\pdl\drivers/peripheral/gpio/cy_gpio.h **** * Logic level to drive out on the pin
 733:Generated_Source\PSoC6\pdl\drivers/peripheral/gpio/cy_gpio.h **** *
 734:Generated_Source\PSoC6\pdl\drivers/peripheral/gpio/cy_gpio.h **** * \return
 735:Generated_Source\PSoC6\pdl\drivers/peripheral/gpio/cy_gpio.h **** * void
 736:Generated_Source\PSoC6\pdl\drivers/peripheral/gpio/cy_gpio.h **** *
 737:Generated_Source\PSoC6\pdl\drivers/peripheral/gpio/cy_gpio.h **** * \funcusage
 738:Generated_Source\PSoC6\pdl\drivers/peripheral/gpio/cy_gpio.h **** * \snippet gpio/gpio_v1_10_sut_01.cydsn/main_cm4.c snippet_Cy_GPIO_Write
 739:Generated_Source\PSoC6\pdl\drivers/peripheral/gpio/cy_gpio.h **** *
 740:Generated_Source\PSoC6\pdl\drivers/peripheral/gpio/cy_gpio.h **** *******************************************************************************/
 741:Generated_Source\PSoC6\pdl\drivers/peripheral/gpio/cy_gpio.h **** __STATIC_INLINE void Cy_GPIO_Write(GPIO_PRT_Type* base, uint32_t pinNum, uint32_t value)
 742:Generated_Source\PSoC6\pdl\drivers/peripheral/gpio/cy_gpio.h **** {
 743:Generated_Source\PSoC6\pdl\drivers/peripheral/gpio/cy_gpio.h ****     CY_ASSERT_L2(CY_GPIO_IS_PIN_VALID(pinNum));
 744:Generated_Source\PSoC6\pdl\drivers/peripheral/gpio/cy_gpio.h ****     CY_ASSERT_L2(CY_GPIO_IS_VALUE_VALID(value));
 745:Generated_Source\PSoC6\pdl\drivers/peripheral/gpio/cy_gpio.h **** 
 746:Generated_Source\PSoC6\pdl\drivers/peripheral/gpio/cy_gpio.h ****     /* Thread-safe: Directly access the pin registers instead of base->OUT */
 747:Generated_Source\PSoC6\pdl\drivers/peripheral/gpio/cy_gpio.h ****     if(0UL == value)
 748:Generated_Source\PSoC6\pdl\drivers/peripheral/gpio/cy_gpio.h ****     {
 749:Generated_Source\PSoC6\pdl\drivers/peripheral/gpio/cy_gpio.h ****         base->OUT_CLR = CY_GPIO_OUT_MASK << pinNum;
 899              		.loc 3 749 0
 900 002a 0122     		movs	r2, #1
 901 002c 434B     		ldr	r3, .L51+16
 902 002e 5A60     		str	r2, [r3, #4]
 903              	.LVL91:
 904              	.LBE29:
 905              	.LBE28:
 132:bluetooth.c   ****             break;
 906              		.loc 1 132 0
 907 0030 0021     		movs	r1, #0
 908 0032 0020     		movs	r0, #0
 909 0034 FFF7FEFF 		bl	Cy_BLE_GAPP_StartAdvertisement
 910              	.LVL92:
 133:bluetooth.c   ****             
 911              		.loc 1 133 0
 912 0038 76E0     		b	.L38
 913              	.LVL93:
 914              	.L42:
 136:bluetooth.c   ****             // Turn on connection LED
 915              		.loc 1 136 0
 916 003a 4148     		ldr	r0, .L51+20
 917              	.LVL94:
 918 003c FFF7FEFF 		bl	puts
 919              	.LVL95:
 920              	.LBB30:
 921              	.LBB31:
 750:Generated_Source\PSoC6\pdl\drivers/peripheral/gpio/cy_gpio.h ****     }
 751:Generated_Source\PSoC6\pdl\drivers/peripheral/gpio/cy_gpio.h ****     else
 752:Generated_Source\PSoC6\pdl\drivers/peripheral/gpio/cy_gpio.h ****     {
 753:Generated_Source\PSoC6\pdl\drivers/peripheral/gpio/cy_gpio.h ****         base->OUT_SET = CY_GPIO_OUT_MASK << pinNum;
 922              		.loc 3 753 0
 923 0040 0122     		movs	r2, #1
 924 0042 3E4B     		ldr	r3, .L51+16
 925 0044 9A60     		str	r2, [r3, #8]
 926 0046 6FE0     		b	.L38
 927              	.LVL96:
 928              	.L43:
ARM GAS  C:\Users\Brian\AppData\Local\Temp\ccNQoqIU.s 			page 39


 929              	.LBE31:
 930              	.LBE30:
 143:bluetooth.c   ****             {
 931              		.loc 1 143 0
 932 0048 0B89     		ldrh	r3, [r1, #8]
 933 004a 3F2B     		cmp	r3, #63
 934 004c 17D1     		bne	.L44
 935              	.LBB32:
 145:bluetooth.c   ****                 if (enable)
 936              		.loc 1 145 0
 937 004e 0B68     		ldr	r3, [r1]
 938 0050 1B78     		ldrb	r3, [r3]
 939 0052 1D00     		movs	r5, r3
 940 0054 6A1E     		subs	r2, r5, #1
 941 0056 9541     		sbcs	r5, r5, r2
 942 0058 EDB2     		uxtb	r5, r5
 943              	.LVL97:
 146:bluetooth.c   ****                 {
 944              		.loc 1 146 0
 945 005a 002B     		cmp	r3, #0
 946 005c 03D0     		beq	.L45
 148:bluetooth.c   ****                 }
 947              		.loc 1 148 0
 948 005e 3948     		ldr	r0, .L51+24
 949              	.LVL98:
 950 0060 FFF7FEFF 		bl	puts
 951              	.LVL99:
 952 0064 02E0     		b	.L46
 953              	.LVL100:
 954              	.L45:
 152:bluetooth.c   ****                 }
 955              		.loc 1 152 0
 956 0066 3848     		ldr	r0, .L51+28
 957              	.LVL101:
 958 0068 FFF7FEFF 		bl	puts
 959              	.LVL102:
 960              	.L46:
 155:bluetooth.c   ****                 // Write enable to GATT server
 961              		.loc 1 155 0
 962 006c 2800     		movs	r0, r5
 963 006e FFF7FEFF 		bl	send_enable
 964              	.LVL103:
 157:bluetooth.c   ****             }
 965              		.loc 1 157 0
 966 0072 2000     		movs	r0, r4
 967 0074 0C30     		adds	r0, r0, #12
 968 0076 2100     		movs	r1, r4
 969 0078 FFF7FEFF 		bl	Cy_BLE_GATTS_WriteAttributeValuePeer
 970              	.LVL104:
 971              	.LBE32:
 972 007c 51E0     		b	.L47
 973              	.LVL105:
 974              	.L44:
 159:bluetooth.c   ****             {
 975              		.loc 1 159 0
 976 007e 372B     		cmp	r3, #55
 977 0080 18D1     		bne	.L48
ARM GAS  C:\Users\Brian\AppData\Local\Temp\ccNQoqIU.s 			page 40


 978              	.LBB33:
 161:bluetooth.c   ****                 // Check for valid event number
 979              		.loc 1 161 0
 980 0082 0B68     		ldr	r3, [r1]
 981 0084 1D78     		ldrb	r5, [r3]
 982 0086 AAB2     		uxth	r2, r5
 983              	.LVL106:
 163:bluetooth.c   ****                 {
 984              		.loc 1 163 0
 985 0088 304B     		ldr	r3, .L51+32
 986 008a 1B78     		ldrb	r3, [r3]
 987 008c 9A42     		cmp	r2, r3
 988 008e 48D8     		bhi	.L47
 165:bluetooth.c   ****                     // Place requested event in GATT server
 989              		.loc 1 165 0
 990 0090 2900     		movs	r1, r5
 991              	.LVL107:
 992 0092 2F48     		ldr	r0, .L51+36
 993              	.LVL108:
 994 0094 FFF7FEFF 		bl	printf
 995              	.LVL109:
 167:bluetooth.c   ****                     // Write new event number to GATT server
 996              		.loc 1 167 0
 997 0098 013D     		subs	r5, r5, #1
 998              	.LVL110:
 999 009a AB00     		lsls	r3, r5, #2
 1000 009c 5D19     		adds	r5, r3, r5
 1001              	.LVL111:
 1002 009e A801     		lsls	r0, r5, #6
 1003 00a0 2C4B     		ldr	r3, .L51+40
 1004 00a2 C018     		adds	r0, r0, r3
 1005 00a4 FFF7FEFF 		bl	write_event_to_server
 1006              	.LVL112:
 169:bluetooth.c   ****                 }
 1007              		.loc 1 169 0
 1008 00a8 2000     		movs	r0, r4
 1009 00aa 0C30     		adds	r0, r0, #12
 1010 00ac 2100     		movs	r1, r4
 1011 00ae FFF7FEFF 		bl	Cy_BLE_GATTS_WriteAttributeValuePeer
 1012              	.LVL113:
 1013 00b2 36E0     		b	.L47
 1014              	.LVL114:
 1015              	.L48:
 1016              	.LBE33:
 172:bluetooth.c   ****             {
 1017              		.loc 1 172 0
 1018 00b4 392B     		cmp	r3, #57
 1019 00b6 15D1     		bne	.L49
 174:bluetooth.c   ****                 // Send threshold to CM4
 1020              		.loc 1 174 0
 1021 00b8 2748     		ldr	r0, .L51+44
 1022              	.LVL115:
 1023 00ba FFF7FEFF 		bl	puts
 1024              	.LVL116:
 176:bluetooth.c   ****                 // Write new threshold to flash
 1025              		.loc 1 176 0
 1026 00be 0221     		movs	r1, #2
ARM GAS  C:\Users\Brian\AppData\Local\Temp\ccNQoqIU.s 			page 41


 1027 00c0 2068     		ldr	r0, [r4]
 1028 00c2 FFF7FEFF 		bl	send_threshold
 1029              	.LVL117:
 178:bluetooth.c   ****                 upper_thresh[1] = writeReqParam->handleValPair.value.val[1];
 1030              		.loc 1 178 0
 1031 00c6 2368     		ldr	r3, [r4]
 1032 00c8 1A78     		ldrb	r2, [r3]
 1033 00ca 244B     		ldr	r3, .L51+48
 1034 00cc 1A70     		strb	r2, [r3]
 179:bluetooth.c   ****                 update_flash_config();
 1035              		.loc 1 179 0
 1036 00ce 2268     		ldr	r2, [r4]
 1037 00d0 5278     		ldrb	r2, [r2, #1]
 1038 00d2 5A70     		strb	r2, [r3, #1]
 180:bluetooth.c   ****                 // Write new threshold to GATT server
 1039              		.loc 1 180 0
 1040 00d4 FFF7FEFF 		bl	update_flash_config
 1041              	.LVL118:
 182:bluetooth.c   ****             }
 1042              		.loc 1 182 0
 1043 00d8 2000     		movs	r0, r4
 1044 00da 0C30     		adds	r0, r0, #12
 1045 00dc 2100     		movs	r1, r4
 1046 00de FFF7FEFF 		bl	Cy_BLE_GATTS_WriteAttributeValuePeer
 1047              	.LVL119:
 1048 00e2 1EE0     		b	.L47
 1049              	.LVL120:
 1050              	.L49:
 184:bluetooth.c   ****             {
 1051              		.loc 1 184 0
 1052 00e4 3B2B     		cmp	r3, #59
 1053 00e6 15D1     		bne	.L50
 186:bluetooth.c   ****                 // Send threshold to CM4
 1054              		.loc 1 186 0
 1055 00e8 1D48     		ldr	r0, .L51+52
 1056              	.LVL121:
 1057 00ea FFF7FEFF 		bl	puts
 1058              	.LVL122:
 188:bluetooth.c   ****                 // Write new threshold to flash
 1059              		.loc 1 188 0
 1060 00ee 0321     		movs	r1, #3
 1061 00f0 2068     		ldr	r0, [r4]
 1062 00f2 FFF7FEFF 		bl	send_threshold
 1063              	.LVL123:
 190:bluetooth.c   ****                 lower_thresh[1] = writeReqParam->handleValPair.value.val[1];
 1064              		.loc 1 190 0
 1065 00f6 2368     		ldr	r3, [r4]
 1066 00f8 1A78     		ldrb	r2, [r3]
 1067 00fa 1A4B     		ldr	r3, .L51+56
 1068 00fc 1A70     		strb	r2, [r3]
 191:bluetooth.c   ****                 update_flash_config();
 1069              		.loc 1 191 0
 1070 00fe 2268     		ldr	r2, [r4]
 1071 0100 5278     		ldrb	r2, [r2, #1]
 1072 0102 5A70     		strb	r2, [r3, #1]
 192:bluetooth.c   ****                 // Write new threshold to GATT server
 1073              		.loc 1 192 0
ARM GAS  C:\Users\Brian\AppData\Local\Temp\ccNQoqIU.s 			page 42


 1074 0104 FFF7FEFF 		bl	update_flash_config
 1075              	.LVL124:
 194:bluetooth.c   ****             }
 1076              		.loc 1 194 0
 1077 0108 2000     		movs	r0, r4
 1078 010a 0C30     		adds	r0, r0, #12
 1079 010c 2100     		movs	r1, r4
 1080 010e FFF7FEFF 		bl	Cy_BLE_GATTS_WriteAttributeValuePeer
 1081              	.LVL125:
 1082 0112 06E0     		b	.L47
 1083              	.LVL126:
 1084              	.L50:
 196:bluetooth.c   ****             {
 1085              		.loc 1 196 0
 1086 0114 352B     		cmp	r3, #53
 1087 0116 04D1     		bne	.L47
 198:bluetooth.c   ****                 // Send trigger indication to CM4
 1088              		.loc 1 198 0
 1089 0118 1348     		ldr	r0, .L51+60
 1090              	.LVL127:
 1091 011a FFF7FEFF 		bl	puts
 1092              	.LVL128:
 200:bluetooth.c   ****             }
 1093              		.loc 1 200 0
 1094 011e FFF7FEFF 		bl	send_trigger
 1095              	.LVL129:
 1096              	.L47:
 203:bluetooth.c   ****             break;        
 1097              		.loc 1 203 0
 1098 0122 E068     		ldr	r0, [r4, #12]
 1099 0124 FFF7FEFF 		bl	Cy_BLE_GATTS_WriteRsp
 1100              	.LVL130:
 1101              	.L38:
 208:bluetooth.c   **** 
 1102              		.loc 1 208 0
 1103              		@ sp needed
 1104              	.LVL131:
 1105 0128 70BD     		pop	{r4, r5, r6, pc}
 1106              	.L52:
 1107 012a C046     		.align	2
 1108              	.L51:
 1109 012c 08400000 		.word	16392
 1110 0130 01500000 		.word	20481
 1111 0134 0C500000 		.word	20492
 1112 0138 9C010000 		.word	.LC36
 1113 013c 80043240 		.word	1077019776
 1114 0140 D0010000 		.word	.LC38
 1115 0144 E8010000 		.word	.LC40
 1116 0148 08020000 		.word	.LC42
 1117 014c 00000000 		.word	num_events
 1118 0150 28020000 		.word	.LC45
 1119 0154 00000000 		.word	events
 1120 0158 48020000 		.word	.LC48
 1121 015c 00000000 		.word	upper_thresh
 1122 0160 68020000 		.word	.LC51
 1123 0164 00000000 		.word	lower_thresh
 1124 0168 88020000 		.word	.LC54
ARM GAS  C:\Users\Brian\AppData\Local\Temp\ccNQoqIU.s 			page 43


 1125              		.cfi_endproc
 1126              	.LFE444:
 1127              		.size	BluetoothEventHandler, .-BluetoothEventHandler
 1128              		.section	.text.record_event,"ax",%progbits
 1129              		.align	2
 1130              		.global	record_event
 1131              		.code	16
 1132              		.thumb_func
 1133              		.type	record_event, %function
 1134              	record_event:
 1135              	.LFB450:
 334:bluetooth.c   **** 
 335:bluetooth.c   **** void record_event(uint8_t * new_event)
 336:bluetooth.c   **** {
 1136              		.loc 1 336 0
 1137              		.cfi_startproc
 1138              		@ args = 0, pretend = 0, frame = 512
 1139              		@ frame_needed = 0, uses_anonymous_args = 0
 1140              	.LVL132:
 1141 0000 30B5     		push	{r4, r5, lr}
 1142              		.cfi_def_cfa_offset 12
 1143              		.cfi_offset 4, -12
 1144              		.cfi_offset 5, -8
 1145              		.cfi_offset 14, -4
 1146 0002 2B4C     		ldr	r4, .L64
 1147 0004 A544     		add	sp, sp, r4
 1148              		.cfi_def_cfa_offset 528
 1149 0006 0400     		movs	r4, r0
 337:bluetooth.c   ****     if (num_events < 10)
 1150              		.loc 1 337 0
 1151 0008 2A4B     		ldr	r3, .L64+4
 1152 000a 1B78     		ldrb	r3, [r3]
 1153 000c 092B     		cmp	r3, #9
 1154 000e 47D8     		bhi	.L54
 1155              	.LBB34:
 338:bluetooth.c   ****     {
 339:bluetooth.c   ****         // Incriment number of events
 340:bluetooth.c   ****         ++num_events;
 1156              		.loc 1 340 0
 1157 0010 2848     		ldr	r0, .L64+4
 1158              	.LVL133:
 1159 0012 0133     		adds	r3, r3, #1
 1160 0014 0370     		strb	r3, [r0]
 341:bluetooth.c   ****         // Update the number of events in server
 342:bluetooth.c   ****         write_num_events_to_server(&num_events);
 1161              		.loc 1 342 0
 1162 0016 FFF7FEFF 		bl	write_num_events_to_server
 1163              	.LVL134:
 1164              	.LBB35:
 343:bluetooth.c   ****         // Record event in RAM
 344:bluetooth.c   ****         for(uint16_t i = 0; i < 144; ++i)
 1165              		.loc 1 344 0
 1166 001a 0022     		movs	r2, #0
 1167 001c 11E0     		b	.L55
 1168              	.LVL135:
 1169              	.L56:
 345:bluetooth.c   ****         {
ARM GAS  C:\Users\Brian\AppData\Local\Temp\ccNQoqIU.s 			page 44


 346:bluetooth.c   ****             events[num_events - 1][i] = new_event[2 * i] + 256 * new_event[2 * i + 1];
 1170              		.loc 1 346 0 discriminator 3
 1171 001e 254B     		ldr	r3, .L64+4
 1172 0020 1B78     		ldrb	r3, [r3]
 1173 0022 013B     		subs	r3, r3, #1
 1174 0024 5100     		lsls	r1, r2, #1
 1175 0026 605C     		ldrb	r0, [r4, r1]
 1176 0028 6118     		adds	r1, r4, r1
 1177 002a 4D78     		ldrb	r5, [r1, #1]
 1178 002c 9900     		lsls	r1, r3, #2
 1179 002e CB18     		adds	r3, r1, r3
 1180 0030 5901     		lsls	r1, r3, #5
 1181 0032 8918     		adds	r1, r1, r2
 1182 0034 4900     		lsls	r1, r1, #1
 1183 0036 2B02     		lsls	r3, r5, #8
 1184 0038 1B18     		adds	r3, r3, r0
 1185 003a 1F48     		ldr	r0, .L64+8
 1186 003c 0B52     		strh	r3, [r1, r0]
 344:bluetooth.c   ****         {
 1187              		.loc 1 344 0 discriminator 3
 1188 003e 0132     		adds	r2, r2, #1
 1189              	.LVL136:
 1190 0040 92B2     		uxth	r2, r2
 1191              	.LVL137:
 1192              	.L55:
 344:bluetooth.c   ****         {
 1193              		.loc 1 344 0 is_stmt 0 discriminator 1
 1194 0042 8F2A     		cmp	r2, #143
 1195 0044 EBD9     		bls	.L56
 1196 0046 0023     		movs	r3, #0
 1197 0048 04E0     		b	.L57
 1198              	.LVL138:
 1199              	.L58:
 1200              	.LBE35:
 1201              	.LBB36:
 347:bluetooth.c   ****         }
 348:bluetooth.c   ****         // Write event data to flash
 349:bluetooth.c   ****         uint8_t ramData[CY_FLASH_SIZEOF_ROW];
 350:bluetooth.c   ****         for (uint16_t i = 0; i < CY_FLASH_SIZEOF_ROW; ++i)
 351:bluetooth.c   ****         {
 352:bluetooth.c   ****             ramData[i] = 0;
 1202              		.loc 1 352 0 is_stmt 1 discriminator 3
 1203 004a 0022     		movs	r2, #0
 1204 004c 6946     		mov	r1, sp
 1205 004e CA54     		strb	r2, [r1, r3]
 350:bluetooth.c   ****         {
 1206              		.loc 1 350 0 discriminator 3
 1207 0050 0133     		adds	r3, r3, #1
 1208              	.LVL139:
 1209 0052 9BB2     		uxth	r3, r3
 1210              	.LVL140:
 1211              	.L57:
 350:bluetooth.c   ****         {
 1212              		.loc 1 350 0 is_stmt 0 discriminator 1
 1213 0054 194A     		ldr	r2, .L64+12
 1214 0056 9342     		cmp	r3, r2
 1215 0058 F7D9     		bls	.L58
ARM GAS  C:\Users\Brian\AppData\Local\Temp\ccNQoqIU.s 			page 45


 1216              	.LBE36:
 353:bluetooth.c   ****         }
 354:bluetooth.c   ****         ramData[0] = 1; // This indicates that an event has been written at this location
 1217              		.loc 1 354 0 is_stmt 1
 1218 005a 0123     		movs	r3, #1
 1219              	.LVL141:
 1220 005c 6A46     		mov	r2, sp
 1221 005e 1370     		strb	r3, [r2]
 1222              	.LVL142:
 1223              	.LBB37:
 355:bluetooth.c   ****         for(uint16_t i = 2; i < 322; ++i)
 1224              		.loc 1 355 0
 1225 0060 0133     		adds	r3, r3, #1
 1226 0062 06E0     		b	.L59
 1227              	.LVL143:
 1228              	.L60:
 356:bluetooth.c   ****         {
 357:bluetooth.c   ****             ramData[i] = new_event[i - 2];
 1229              		.loc 1 357 0 discriminator 3
 1230 0064 E218     		adds	r2, r4, r3
 1231 0066 023A     		subs	r2, r2, #2
 1232 0068 1278     		ldrb	r2, [r2]
 1233 006a 6946     		mov	r1, sp
 1234 006c CA54     		strb	r2, [r1, r3]
 355:bluetooth.c   ****         for(uint16_t i = 2; i < 322; ++i)
 1235              		.loc 1 355 0 discriminator 3
 1236 006e 0133     		adds	r3, r3, #1
 1237              	.LVL144:
 1238 0070 9BB2     		uxth	r3, r3
 1239              	.LVL145:
 1240              	.L59:
 355:bluetooth.c   ****         for(uint16_t i = 2; i < 322; ++i)
 1241              		.loc 1 355 0 is_stmt 0 discriminator 1
 1242 0072 4222     		movs	r2, #66
 1243 0074 FF32     		adds	r2, r2, #255
 1244 0076 9342     		cmp	r3, r2
 1245 0078 F4D9     		bls	.L60
 1246              	.LBE37:
 358:bluetooth.c   ****         }
 359:bluetooth.c   ****         cy_en_flashdrv_status_t result;
 360:bluetooth.c   ****         result = Cy_Flash_WriteRow((uint32_t)flashPtrs[num_events], (const uint32_t *)ramData);
 1247              		.loc 1 360 0 is_stmt 1
 1248 007a 0E4B     		ldr	r3, .L64+4
 1249              	.LVL146:
 1250 007c 1B78     		ldrb	r3, [r3]
 1251 007e 104A     		ldr	r2, .L64+16
 1252 0080 1268     		ldr	r2, [r2]
 1253 0082 9B00     		lsls	r3, r3, #2
 1254 0084 9858     		ldr	r0, [r3, r2]
 1255 0086 6946     		mov	r1, sp
 1256 0088 FFF7FEFF 		bl	Cy_Flash_WriteRow
 1257              	.LVL147:
 361:bluetooth.c   ****         if (result == CY_FLASH_DRV_SUCCESS)
 1258              		.loc 1 361 0
 1259 008c 0028     		cmp	r0, #0
 1260 008e 03D1     		bne	.L61
 362:bluetooth.c   ****         {
ARM GAS  C:\Users\Brian\AppData\Local\Temp\ccNQoqIU.s 			page 46


 363:bluetooth.c   ****             printf("New event written to flash\r\n");
 1261              		.loc 1 363 0
 1262 0090 0C48     		ldr	r0, .L64+20
 1263              	.LVL148:
 1264 0092 FFF7FEFF 		bl	puts
 1265              	.LVL149:
 1266 0096 06E0     		b	.L53
 1267              	.LVL150:
 1268              	.L61:
 364:bluetooth.c   ****         }
 365:bluetooth.c   ****         else
 366:bluetooth.c   ****         {
 367:bluetooth.c   ****             printf("New event failed to write to flash\r\n");
 1269              		.loc 1 367 0
 1270 0098 0B48     		ldr	r0, .L64+24
 1271              	.LVL151:
 1272 009a FFF7FEFF 		bl	puts
 1273              	.LVL152:
 1274 009e 02E0     		b	.L53
 1275              	.LVL153:
 1276              	.L54:
 1277              	.LBE34:
 368:bluetooth.c   ****         }
 369:bluetooth.c   ****     }
 370:bluetooth.c   ****     else
 371:bluetooth.c   ****     {
 372:bluetooth.c   ****         printf("Event storage full!\r\n");
 1278              		.loc 1 372 0
 1279 00a0 0A48     		ldr	r0, .L64+28
 1280              	.LVL154:
 1281 00a2 FFF7FEFF 		bl	puts
 1282              	.LVL155:
 1283              	.L53:
 373:bluetooth.c   ****     }
 374:bluetooth.c   **** }
 1284              		.loc 1 374 0
 1285 00a6 8123     		movs	r3, #129
 1286 00a8 9B00     		lsls	r3, r3, #2
 1287 00aa 9D44     		add	sp, sp, r3
 1288              		@ sp needed
 1289              	.LVL156:
 1290 00ac 30BD     		pop	{r4, r5, pc}
 1291              	.L65:
 1292 00ae C046     		.align	2
 1293              	.L64:
 1294 00b0 FCFDFFFF 		.word	-516
 1295 00b4 00000000 		.word	num_events
 1296 00b8 00000000 		.word	events
 1297 00bc FF010000 		.word	511
 1298 00c0 00000000 		.word	flashPtrs
 1299 00c4 98020000 		.word	.LC59
 1300 00c8 B4020000 		.word	.LC61
 1301 00cc D8020000 		.word	.LC63
 1302              		.cfi_endproc
 1303              	.LFE450:
 1304              		.size	record_event, .-record_event
 1305              		.section	.text.record_voltage,"ax",%progbits
ARM GAS  C:\Users\Brian\AppData\Local\Temp\ccNQoqIU.s 			page 47


 1306              		.align	2
 1307              		.global	record_voltage
 1308              		.code	16
 1309              		.thumb_func
 1310              		.type	record_voltage, %function
 1311              	record_voltage:
 1312              	.LFB451:
 375:bluetooth.c   **** 
 376:bluetooth.c   **** void record_voltage(uint8_t * data)
 377:bluetooth.c   **** {
 1313              		.loc 1 377 0
 1314              		.cfi_startproc
 1315              		@ args = 0, pretend = 0, frame = 8
 1316              		@ frame_needed = 0, uses_anonymous_args = 0
 1317              	.LVL157:
 1318 0000 00B5     		push	{lr}
 1319              		.cfi_def_cfa_offset 4
 1320              		.cfi_offset 14, -4
 1321 0002 83B0     		sub	sp, sp, #12
 1322              		.cfi_def_cfa_offset 16
 378:bluetooth.c   ****     uint8_t voltage[2];
 379:bluetooth.c   ****     // Get data from message
 380:bluetooth.c   ****     voltage[0] = data[0];
 1323              		.loc 1 380 0
 1324 0004 0278     		ldrb	r2, [r0]
 1325 0006 01AB     		add	r3, sp, #4
 1326 0008 1A70     		strb	r2, [r3]
 381:bluetooth.c   ****     voltage[1] = data[1];
 1327              		.loc 1 381 0
 1328 000a 4278     		ldrb	r2, [r0, #1]
 1329 000c 5A70     		strb	r2, [r3, #1]
 382:bluetooth.c   ****     // Place data in server
 383:bluetooth.c   ****     write_voltage_to_server(voltage);
 1330              		.loc 1 383 0
 1331 000e 1800     		movs	r0, r3
 1332              	.LVL158:
 1333 0010 FFF7FEFF 		bl	write_voltage_to_server
 1334              	.LVL159:
 384:bluetooth.c   **** }
 1335              		.loc 1 384 0
 1336 0014 03B0     		add	sp, sp, #12
 1337              		@ sp needed
 1338 0016 00BD     		pop	{pc}
 1339              		.cfi_endproc
 1340              	.LFE451:
 1341              		.size	record_voltage, .-record_voltage
 1342              		.comm	lower_thresh,2,4
 1343              		.comm	upper_thresh,2,4
 1344              		.comm	num_events,1,1
 1345              		.comm	events,3200,4
 1346              		.comm	flashPtrs,4,4
 1347              		.section	.rodata.str1.4,"aMS",%progbits,1
 1348              		.align	2
 1349              	.LC0:
 1350 0000 4576656E 		.ascii	"Event placed in server\015\000"
 1350      7420706C 
 1350      61636564 
ARM GAS  C:\Users\Brian\AppData\Local\Temp\ccNQoqIU.s 			page 48


 1350      20696E20 
 1350      73657276 
 1351              	.LC2:
 1352 0018 4E756D62 		.ascii	"Number of events updated in server: %d\015\012\000"
 1352      6572206F 
 1352      66206576 
 1352      656E7473 
 1352      20757064 
 1353 0041 000000   		.space	3
 1354              	.LC4:
 1355 0044 54687265 		.ascii	"Threshold updated in server\015\000"
 1355      73686F6C 
 1355      64207570 
 1355      64617465 
 1355      6420696E 
 1356 0061 000000   		.space	3
 1357              	.LC9:
 1358 0064 53657474 		.ascii	"Settings updated in flash\015\000"
 1358      696E6773 
 1358      20757064 
 1358      61746564 
 1358      20696E20 
 1359 007f 00       		.space	1
 1360              	.LC13:
 1361 0080 2A2A2A2A 		.ascii	"***********************************\015\000"
 1361      2A2A2A2A 
 1361      2A2A2A2A 
 1361      2A2A2A2A 
 1361      2A2A2A2A 
 1362 00a5 000000   		.space	3
 1363              	.LC15:
 1364 00a8 2A2A2A20 		.ascii	"***     SEL VOLTAGE MONITOR     ***\015\000"
 1364      20202020 
 1364      53454C20 
 1364      564F4C54 
 1364      41474520 
 1365 00cd 000000   		.space	3
 1366              	.LC17:
 1367 00d0 2A2A2A20 		.ascii	"***       TEAM REMBRANDT        ***\015\000"
 1367      20202020 
 1367      20205445 
 1367      414D2052 
 1367      454D4252 
 1368 00f5 000000   		.space	3
 1369              	.LC19:
 1370 00f8 2A2A2A20 		.ascii	"*** WASHINGTON STATE UNIVERSITY ***\015\000"
 1370      57415348 
 1370      494E4754 
 1370      4F4E2053 
 1370      54415445 
 1371 011d 000000   		.space	3
 1372              	.LC21:
 1373 0120 2A2A2A20 		.ascii	"***            2020             ***\015\000"
 1373      20202020 
 1373      20202020 
 1373      20202032 
 1373      30323020 
ARM GAS  C:\Users\Brian\AppData\Local\Temp\ccNQoqIU.s 			page 49


 1374 0145 000000   		.space	3
 1375              	.LC23:
 1376 0148 2A2A2A2A 		.ascii	"***********************************\015\012\000"
 1376      2A2A2A2A 
 1376      2A2A2A2A 
 1376      2A2A2A2A 
 1376      2A2A2A2A 
 1377 016e 0000     		.space	2
 1378              	.LC26:
 1379 0170 466C6173 		.ascii	"Flash Data Present\015\000"
 1379      68204461 
 1379      74612050 
 1379      72657365 
 1379      6E740D00 
 1380              	.LC32:
 1381 0184 466C6173 		.ascii	"Flash Data NOT Present\015\000"
 1381      68204461 
 1381      7461204E 
 1381      4F542050 
 1381      72657365 
 1382              	.LC36:
 1383 019c 424C4520 		.ascii	"BLE device DISCONNECTED, starting advertisement\015"
 1383      64657669 
 1383      63652044 
 1383      4953434F 
 1383      4E4E4543 
 1384 01cc 00       		.ascii	"\000"
 1385 01cd 000000   		.space	3
 1386              	.LC38:
 1387 01d0 424C4520 		.ascii	"BLE device CONNECTED\015\000"
 1387      64657669 
 1387      63652043 
 1387      4F4E4E45 
 1387      43544544 
 1388 01e6 0000     		.space	2
 1389              	.LC40:
 1390 01e8 456E6162 		.ascii	"Enabling voltage monitor...\015\000"
 1390      6C696E67 
 1390      20766F6C 
 1390      74616765 
 1390      206D6F6E 
 1391 0205 000000   		.space	3
 1392              	.LC42:
 1393 0208 44697361 		.ascii	"Disabling voltage monitor...\015\000"
 1393      626C696E 
 1393      6720766F 
 1393      6C746167 
 1393      65206D6F 
 1394 0226 0000     		.space	2
 1395              	.LC45:
 1396 0228 506C6163 		.ascii	"Placing event %d in server...\015\012\000"
 1396      696E6720 
 1396      6576656E 
 1396      74202564 
 1396      20696E20 
 1397              	.LC48:
 1398 0248 53657474 		.ascii	"Setting new upper threshold...\015\000"
ARM GAS  C:\Users\Brian\AppData\Local\Temp\ccNQoqIU.s 			page 50


 1398      696E6720 
 1398      6E657720 
 1398      75707065 
 1398      72207468 
 1399              	.LC51:
 1400 0268 53657474 		.ascii	"Setting new lower threshold...\015\000"
 1400      696E6720 
 1400      6E657720 
 1400      6C6F7765 
 1400      72207468 
 1401              	.LC54:
 1402 0288 54726967 		.ascii	"Triggering...\015\000"
 1402      67657269 
 1402      6E672E2E 
 1402      2E0D00
 1403 0297 00       		.space	1
 1404              	.LC59:
 1405 0298 4E657720 		.ascii	"New event written to flash\015\000"
 1405      6576656E 
 1405      74207772 
 1405      69747465 
 1405      6E20746F 
 1406              	.LC61:
 1407 02b4 4E657720 		.ascii	"New event failed to write to flash\015\000"
 1407      6576656E 
 1407      74206661 
 1407      696C6564 
 1407      20746F20 
 1408              	.LC63:
 1409 02d8 4576656E 		.ascii	"Event storage full!\015\000"
 1409      74207374 
 1409      6F726167 
 1409      65206675 
 1409      6C6C210D 
 1410              		.text
 1411              	.Letext0:
 1412              		.file 4 "c:\\program files (x86)\\cypress\\psoc creator\\4.2\\psoc creator\\import\\gnu\\arm\\5.4.
 1413              		.file 5 "c:\\program files (x86)\\cypress\\psoc creator\\4.2\\psoc creator\\import\\gnu\\arm\\5.4.
 1414              		.file 6 "Generated_Source\\PSoC6\\pdl\\devices/psoc6/ip/cyip_gpio.h"
 1415              		.file 7 "Generated_Source\\PSoC6\\pdl\\drivers/peripheral/syslib/cy_syslib.h"
 1416              		.file 8 "Generated_Source\\PSoC6\\pdl\\drivers/peripheral/scb/cy_scb_uart.h"
 1417              		.file 9 "Generated_Source\\PSoC6\\pdl\\drivers/peripheral/flash/cy_flash.h"
 1418              		.file 10 "Generated_Source\\PSoC6\\pdl\\drivers/peripheral/sar/cy_sar.h"
 1419              		.file 11 "c:\\program files (x86)\\cypress\\psoc creator\\4.2\\psoc creator\\import\\gnu\\arm\\5.4
 1420              		.file 12 "c:\\program files (x86)\\cypress\\psoc creator\\4.2\\psoc creator\\import\\gnu\\arm\\5.4
 1421              		.file 13 "c:\\program files (x86)\\cypress\\psoc creator\\4.2\\psoc creator\\import\\gnu\\arm\\5.4
 1422              		.file 14 "c:\\program files (x86)\\cypress\\psoc creator\\4.2\\psoc creator\\import\\gnu\\arm\\5.4
 1423              		.file 15 "Generated_Source\\PSoC6\\pdl\\middleware/ble/cy_ble_stack.h"
 1424              		.file 16 "Generated_Source\\PSoC6\\pdl\\middleware/ble/cy_ble_stack_host_main.h"
 1425              		.file 17 "Generated_Source\\PSoC6\\pdl\\middleware/ble/cy_ble_stack_gatt.h"
 1426              		.file 18 "Generated_Source\\PSoC6\\pdl\\middleware/ble/cy_ble_gap.h"
 1427              		.file 19 "Generated_Source\\PSoC6\\pdl\\middleware/ble/cy_ble_stack_gatt_client.h"
 1428              		.file 20 "Generated_Source\\PSoC6/ADC.h"
 1429              		.file 21 "ipc_shared.h"
 1430              		.file 22 "Generated_Source\\PSoC6/UART.h"
 1431              		.file 23 "Generated_Source\\PSoC6\\pdl\\middleware/ble/cy_ble_gatt.h"
 1432              		.file 24 "c:\\program files (x86)\\cypress\\psoc creator\\4.2\\psoc creator\\import\\gnu\\arm\\5.4
ARM GAS  C:\Users\Brian\AppData\Local\Temp\ccNQoqIU.s 			page 51


 1433              		.file 25 "./system_psoc63.h"
 1434              		.file 26 "Generated_Source\\PSoC6\\pdl\\drivers/peripheral/ipc/cy_ipc_pipe.h"
 1435              		.file 27 "Generated_Source\\PSoC6/BLE.h"
 1436              		.file 28 "ipc_cm0p.h"
 1437              		.file 29 "Generated_Source\\PSoC6\\pdl\\middleware/ble/cy_ble_stack_gatt_server.h"
 1438              		.file 30 "<built-in>"
 1439              		.section	.debug_info,"",%progbits
 1440              	.Ldebug_info0:
 1441 0000 5B1E0000 		.4byte	0x1e5b
 1442 0004 0400     		.2byte	0x4
 1443 0006 00000000 		.4byte	.Ldebug_abbrev0
 1444 000a 04       		.byte	0x4
 1445 000b 01       		.uleb128 0x1
 1446 000c 91070000 		.4byte	.LASF425
 1447 0010 0C       		.byte	0xc
 1448 0011 C3040000 		.4byte	.LASF426
 1449 0015 A80A0000 		.4byte	.LASF427
 1450 0019 18000000 		.4byte	.Ldebug_ranges0+0x18
 1451 001d 00000000 		.4byte	0
 1452 0021 00000000 		.4byte	.Ldebug_line0
 1453 0025 02       		.uleb128 0x2
 1454 0026 02       		.byte	0x2
 1455 0027 05       		.byte	0x5
 1456 0028 64170000 		.4byte	.LASF0
 1457 002c 02       		.uleb128 0x2
 1458 002d 01       		.byte	0x1
 1459 002e 08       		.byte	0x8
 1460 002f A31B0000 		.4byte	.LASF1
 1461 0033 02       		.uleb128 0x2
 1462 0034 01       		.byte	0x1
 1463 0035 06       		.byte	0x6
 1464 0036 FD1D0000 		.4byte	.LASF2
 1465 003a 03       		.uleb128 0x3
 1466 003b A8190000 		.4byte	.LASF3
 1467 003f 04       		.byte	0x4
 1468 0040 1D       		.byte	0x1d
 1469 0041 2C000000 		.4byte	0x2c
 1470 0045 03       		.uleb128 0x3
 1471 0046 6D090000 		.4byte	.LASF4
 1472 004a 04       		.byte	0x4
 1473 004b 2B       		.byte	0x2b
 1474 004c 50000000 		.4byte	0x50
 1475 0050 02       		.uleb128 0x2
 1476 0051 02       		.byte	0x2
 1477 0052 07       		.byte	0x7
 1478 0053 261E0000 		.4byte	.LASF5
 1479 0057 02       		.uleb128 0x2
 1480 0058 04       		.byte	0x4
 1481 0059 05       		.byte	0x5
 1482 005a BD170000 		.4byte	.LASF6
 1483 005e 03       		.uleb128 0x3
 1484 005f DE1B0000 		.4byte	.LASF7
 1485 0063 04       		.byte	0x4
 1486 0064 41       		.byte	0x41
 1487 0065 69000000 		.4byte	0x69
 1488 0069 02       		.uleb128 0x2
 1489 006a 04       		.byte	0x4
ARM GAS  C:\Users\Brian\AppData\Local\Temp\ccNQoqIU.s 			page 52


 1490 006b 07       		.byte	0x7
 1491 006c 9B1A0000 		.4byte	.LASF8
 1492 0070 02       		.uleb128 0x2
 1493 0071 08       		.byte	0x8
 1494 0072 05       		.byte	0x5
 1495 0073 CB100000 		.4byte	.LASF9
 1496 0077 02       		.uleb128 0x2
 1497 0078 08       		.byte	0x8
 1498 0079 07       		.byte	0x7
 1499 007a C5060000 		.4byte	.LASF10
 1500 007e 04       		.uleb128 0x4
 1501 007f 04       		.byte	0x4
 1502 0080 05       		.byte	0x5
 1503 0081 696E7400 		.ascii	"int\000"
 1504 0085 02       		.uleb128 0x2
 1505 0086 04       		.byte	0x4
 1506 0087 07       		.byte	0x7
 1507 0088 57020000 		.4byte	.LASF11
 1508 008c 03       		.uleb128 0x3
 1509 008d AB0F0000 		.4byte	.LASF12
 1510 0091 05       		.byte	0x5
 1511 0092 18       		.byte	0x18
 1512 0093 3A000000 		.4byte	0x3a
 1513 0097 03       		.uleb128 0x3
 1514 0098 70150000 		.4byte	.LASF13
 1515 009c 05       		.byte	0x5
 1516 009d 24       		.byte	0x24
 1517 009e 45000000 		.4byte	0x45
 1518 00a2 03       		.uleb128 0x3
 1519 00a3 93060000 		.4byte	.LASF14
 1520 00a7 05       		.byte	0x5
 1521 00a8 30       		.byte	0x30
 1522 00a9 5E000000 		.4byte	0x5e
 1523 00ad 02       		.uleb128 0x2
 1524 00ae 04       		.byte	0x4
 1525 00af 07       		.byte	0x7
 1526 00b0 921A0000 		.4byte	.LASF15
 1527 00b4 05       		.uleb128 0x5
 1528 00b5 A2000000 		.4byte	0xa2
 1529 00b9 06       		.uleb128 0x6
 1530 00ba B4000000 		.4byte	0xb4
 1531 00be 07       		.uleb128 0x7
 1532 00bf B9000000 		.4byte	0xb9
 1533 00c3 CE000000 		.4byte	0xce
 1534 00c7 08       		.uleb128 0x8
 1535 00c8 AD000000 		.4byte	0xad
 1536 00cc 0F       		.byte	0xf
 1537 00cd 00       		.byte	0
 1538 00ce 07       		.uleb128 0x7
 1539 00cf 8C000000 		.4byte	0x8c
 1540 00d3 DE000000 		.4byte	0xde
 1541 00d7 08       		.uleb128 0x8
 1542 00d8 AD000000 		.4byte	0xad
 1543 00dc 01       		.byte	0x1
 1544 00dd 00       		.byte	0
 1545 00de 09       		.uleb128 0x9
 1546 00df 80       		.byte	0x80
ARM GAS  C:\Users\Brian\AppData\Local\Temp\ccNQoqIU.s 			page 53


 1547 00e0 06       		.byte	0x6
 1548 00e1 22       		.byte	0x22
 1549 00e2 B2010000 		.4byte	0x1b2
 1550 00e6 0A       		.uleb128 0xa
 1551 00e7 4F555400 		.ascii	"OUT\000"
 1552 00eb 06       		.byte	0x6
 1553 00ec 23       		.byte	0x23
 1554 00ed B4000000 		.4byte	0xb4
 1555 00f1 00       		.byte	0
 1556 00f2 0B       		.uleb128 0xb
 1557 00f3 76080000 		.4byte	.LASF16
 1558 00f7 06       		.byte	0x6
 1559 00f8 24       		.byte	0x24
 1560 00f9 B4000000 		.4byte	0xb4
 1561 00fd 04       		.byte	0x4
 1562 00fe 0B       		.uleb128 0xb
 1563 00ff EF030000 		.4byte	.LASF17
 1564 0103 06       		.byte	0x6
 1565 0104 25       		.byte	0x25
 1566 0105 B4000000 		.4byte	0xb4
 1567 0109 08       		.byte	0x8
 1568 010a 0B       		.uleb128 0xb
 1569 010b 98190000 		.4byte	.LASF18
 1570 010f 06       		.byte	0x6
 1571 0110 26       		.byte	0x26
 1572 0111 B4000000 		.4byte	0xb4
 1573 0115 0C       		.byte	0xc
 1574 0116 0A       		.uleb128 0xa
 1575 0117 494E00   		.ascii	"IN\000"
 1576 011a 06       		.byte	0x6
 1577 011b 27       		.byte	0x27
 1578 011c B9000000 		.4byte	0xb9
 1579 0120 10       		.byte	0x10
 1580 0121 0B       		.uleb128 0xb
 1581 0122 53120000 		.4byte	.LASF19
 1582 0126 06       		.byte	0x6
 1583 0127 28       		.byte	0x28
 1584 0128 B4000000 		.4byte	0xb4
 1585 012c 14       		.byte	0x14
 1586 012d 0B       		.uleb128 0xb
 1587 012e A4120000 		.4byte	.LASF20
 1588 0132 06       		.byte	0x6
 1589 0133 29       		.byte	0x29
 1590 0134 B4000000 		.4byte	0xb4
 1591 0138 18       		.byte	0x18
 1592 0139 0B       		.uleb128 0xb
 1593 013a 2C140000 		.4byte	.LASF21
 1594 013e 06       		.byte	0x6
 1595 013f 2A       		.byte	0x2a
 1596 0140 B9000000 		.4byte	0xb9
 1597 0144 1C       		.byte	0x1c
 1598 0145 0B       		.uleb128 0xb
 1599 0146 93040000 		.4byte	.LASF22
 1600 014a 06       		.byte	0x6
 1601 014b 2B       		.byte	0x2b
 1602 014c B4000000 		.4byte	0xb4
 1603 0150 20       		.byte	0x20
ARM GAS  C:\Users\Brian\AppData\Local\Temp\ccNQoqIU.s 			page 54


 1604 0151 0B       		.uleb128 0xb
 1605 0152 121C0000 		.4byte	.LASF23
 1606 0156 06       		.byte	0x6
 1607 0157 2C       		.byte	0x2c
 1608 0158 B4000000 		.4byte	0xb4
 1609 015c 24       		.byte	0x24
 1610 015d 0A       		.uleb128 0xa
 1611 015e 43464700 		.ascii	"CFG\000"
 1612 0162 06       		.byte	0x6
 1613 0163 2D       		.byte	0x2d
 1614 0164 B4000000 		.4byte	0xb4
 1615 0168 28       		.byte	0x28
 1616 0169 0B       		.uleb128 0xb
 1617 016a 1F060000 		.4byte	.LASF24
 1618 016e 06       		.byte	0x6
 1619 016f 2E       		.byte	0x2e
 1620 0170 B4000000 		.4byte	0xb4
 1621 0174 2C       		.byte	0x2c
 1622 0175 0B       		.uleb128 0xb
 1623 0176 820A0000 		.4byte	.LASF25
 1624 017a 06       		.byte	0x6
 1625 017b 2F       		.byte	0x2f
 1626 017c B4000000 		.4byte	0xb4
 1627 0180 30       		.byte	0x30
 1628 0181 0B       		.uleb128 0xb
 1629 0182 D2020000 		.4byte	.LASF26
 1630 0186 06       		.byte	0x6
 1631 0187 30       		.byte	0x30
 1632 0188 B4000000 		.4byte	0xb4
 1633 018c 34       		.byte	0x34
 1634 018d 0B       		.uleb128 0xb
 1635 018e 00000000 		.4byte	.LASF27
 1636 0192 06       		.byte	0x6
 1637 0193 31       		.byte	0x31
 1638 0194 B9000000 		.4byte	0xb9
 1639 0198 38       		.byte	0x38
 1640 0199 0B       		.uleb128 0xb
 1641 019a 9C180000 		.4byte	.LASF28
 1642 019e 06       		.byte	0x6
 1643 019f 32       		.byte	0x32
 1644 01a0 B4000000 		.4byte	0xb4
 1645 01a4 3C       		.byte	0x3c
 1646 01a5 0B       		.uleb128 0xb
 1647 01a6 16170000 		.4byte	.LASF29
 1648 01aa 06       		.byte	0x6
 1649 01ab 33       		.byte	0x33
 1650 01ac B7010000 		.4byte	0x1b7
 1651 01b0 40       		.byte	0x40
 1652 01b1 00       		.byte	0
 1653 01b2 05       		.uleb128 0x5
 1654 01b3 BE000000 		.4byte	0xbe
 1655 01b7 06       		.uleb128 0x6
 1656 01b8 B2010000 		.4byte	0x1b2
 1657 01bc 03       		.uleb128 0x3
 1658 01bd 610D0000 		.4byte	.LASF30
 1659 01c1 06       		.byte	0x6
 1660 01c2 34       		.byte	0x34
ARM GAS  C:\Users\Brian\AppData\Local\Temp\ccNQoqIU.s 			page 55


 1661 01c3 DE000000 		.4byte	0xde
 1662 01c7 0C       		.uleb128 0xc
 1663 01c8 2440     		.2byte	0x4024
 1664 01ca 06       		.byte	0x6
 1665 01cb 39       		.byte	0x39
 1666 01cc 52020000 		.4byte	0x252
 1667 01d0 0A       		.uleb128 0xa
 1668 01d1 50525400 		.ascii	"PRT\000"
 1669 01d5 06       		.byte	0x6
 1670 01d6 3A       		.byte	0x3a
 1671 01d7 52020000 		.4byte	0x252
 1672 01db 00       		.byte	0
 1673 01dc 0D       		.uleb128 0xd
 1674 01dd 14000000 		.4byte	.LASF31
 1675 01e1 06       		.byte	0x6
 1676 01e2 3B       		.byte	0x3b
 1677 01e3 B9000000 		.4byte	0xb9
 1678 01e7 0040     		.2byte	0x4000
 1679 01e9 0D       		.uleb128 0xd
 1680 01ea 20000000 		.4byte	.LASF32
 1681 01ee 06       		.byte	0x6
 1682 01ef 3C       		.byte	0x3c
 1683 01f0 B9000000 		.4byte	0xb9
 1684 01f4 0440     		.2byte	0x4004
 1685 01f6 0D       		.uleb128 0xd
 1686 01f7 14100000 		.4byte	.LASF33
 1687 01fb 06       		.byte	0x6
 1688 01fc 3D       		.byte	0x3d
 1689 01fd B9000000 		.4byte	0xb9
 1690 0201 0840     		.2byte	0x4008
 1691 0203 0D       		.uleb128 0xd
 1692 0204 4C000000 		.4byte	.LASF34
 1693 0208 06       		.byte	0x6
 1694 0209 3E       		.byte	0x3e
 1695 020a B9000000 		.4byte	0xb9
 1696 020e 0C40     		.2byte	0x400c
 1697 0210 0D       		.uleb128 0xd
 1698 0211 09000000 		.4byte	.LASF35
 1699 0215 06       		.byte	0x6
 1700 0216 3F       		.byte	0x3f
 1701 0217 B9000000 		.4byte	0xb9
 1702 021b 1040     		.2byte	0x4010
 1703 021d 0D       		.uleb128 0xd
 1704 021e 390C0000 		.4byte	.LASF36
 1705 0222 06       		.byte	0x6
 1706 0223 40       		.byte	0x40
 1707 0224 B4000000 		.4byte	0xb4
 1708 0228 1440     		.2byte	0x4014
 1709 022a 0D       		.uleb128 0xd
 1710 022b E71D0000 		.4byte	.LASF37
 1711 022f 06       		.byte	0x6
 1712 0230 41       		.byte	0x41
 1713 0231 B4000000 		.4byte	0xb4
 1714 0235 1840     		.2byte	0x4018
 1715 0237 0D       		.uleb128 0xd
 1716 0238 B4140000 		.4byte	.LASF38
 1717 023c 06       		.byte	0x6
ARM GAS  C:\Users\Brian\AppData\Local\Temp\ccNQoqIU.s 			page 56


 1718 023d 42       		.byte	0x42
 1719 023e B9000000 		.4byte	0xb9
 1720 0242 1C40     		.2byte	0x401c
 1721 0244 0D       		.uleb128 0xd
 1722 0245 92150000 		.4byte	.LASF39
 1723 0249 06       		.byte	0x6
 1724 024a 43       		.byte	0x43
 1725 024b B4000000 		.4byte	0xb4
 1726 024f 2040     		.2byte	0x4020
 1727 0251 00       		.byte	0
 1728 0252 07       		.uleb128 0x7
 1729 0253 BC010000 		.4byte	0x1bc
 1730 0257 62020000 		.4byte	0x262
 1731 025b 08       		.uleb128 0x8
 1732 025c AD000000 		.4byte	0xad
 1733 0260 7F       		.byte	0x7f
 1734 0261 00       		.byte	0
 1735 0262 03       		.uleb128 0x3
 1736 0263 E91B0000 		.4byte	.LASF40
 1737 0267 06       		.byte	0x6
 1738 0268 44       		.byte	0x44
 1739 0269 C7010000 		.4byte	0x1c7
 1740 026d 02       		.uleb128 0x2
 1741 026e 08       		.byte	0x8
 1742 026f 04       		.byte	0x4
 1743 0270 1B150000 		.4byte	.LASF41
 1744 0274 0E       		.uleb128 0xe
 1745 0275 04       		.byte	0x4
 1746 0276 7A020000 		.4byte	0x27a
 1747 027a 0F       		.uleb128 0xf
 1748 027b 10       		.uleb128 0x10
 1749 027c 88180000 		.4byte	.LASF42
 1750 0280 07       		.byte	0x7
 1751 0281 C401     		.2byte	0x1c4
 1752 0283 87020000 		.4byte	0x287
 1753 0287 02       		.uleb128 0x2
 1754 0288 01       		.byte	0x1
 1755 0289 08       		.byte	0x8
 1756 028a 580E0000 		.4byte	.LASF43
 1757 028e 02       		.uleb128 0x2
 1758 028f 04       		.byte	0x4
 1759 0290 04       		.byte	0x4
 1760 0291 2A0D0000 		.4byte	.LASF44
 1761 0295 02       		.uleb128 0x2
 1762 0296 08       		.byte	0x8
 1763 0297 04       		.byte	0x4
 1764 0298 E50B0000 		.4byte	.LASF45
 1765 029c 10       		.uleb128 0x10
 1766 029d 37060000 		.4byte	.LASF46
 1767 02a1 07       		.byte	0x7
 1768 02a2 8503     		.2byte	0x385
 1769 02a4 8C000000 		.4byte	0x8c
 1770 02a8 10       		.uleb128 0x10
 1771 02a9 15130000 		.4byte	.LASF47
 1772 02ad 07       		.byte	0x7
 1773 02ae 8703     		.2byte	0x387
 1774 02b0 A2000000 		.4byte	0xa2
ARM GAS  C:\Users\Brian\AppData\Local\Temp\ccNQoqIU.s 			page 57


 1775 02b4 11       		.uleb128 0x11
 1776 02b5 04       		.byte	0x4
 1777 02b6 02       		.uleb128 0x2
 1778 02b7 01       		.byte	0x1
 1779 02b8 02       		.byte	0x2
 1780 02b9 DC1C0000 		.4byte	.LASF48
 1781 02bd 0E       		.uleb128 0xe
 1782 02be 04       		.byte	0x4
 1783 02bf C3020000 		.4byte	0x2c3
 1784 02c3 12       		.uleb128 0x12
 1785 02c4 CE020000 		.4byte	0x2ce
 1786 02c8 13       		.uleb128 0x13
 1787 02c9 A2000000 		.4byte	0xa2
 1788 02cd 00       		.byte	0
 1789 02ce 0E       		.uleb128 0xe
 1790 02cf 04       		.byte	0x4
 1791 02d0 8C000000 		.4byte	0x8c
 1792 02d4 10       		.uleb128 0x10
 1793 02d5 86100000 		.4byte	.LASF49
 1794 02d9 08       		.byte	0x8
 1795 02da AB01     		.2byte	0x1ab
 1796 02dc BD020000 		.4byte	0x2bd
 1797 02e0 14       		.uleb128 0x14
 1798 02e1 5E080000 		.4byte	.LASF110
 1799 02e5 38       		.byte	0x38
 1800 02e6 08       		.byte	0x8
 1801 02e7 4702     		.2byte	0x247
 1802 02e9 A4030000 		.4byte	0x3a4
 1803 02ed 15       		.uleb128 0x15
 1804 02ee 8E010000 		.4byte	.LASF50
 1805 02f2 08       		.byte	0x8
 1806 02f3 4A02     		.2byte	0x24a
 1807 02f5 B4000000 		.4byte	0xb4
 1808 02f9 00       		.byte	0
 1809 02fa 15       		.uleb128 0x15
 1810 02fb 8A0A0000 		.4byte	.LASF51
 1811 02ff 08       		.byte	0x8
 1812 0300 4B02     		.2byte	0x24b
 1813 0302 B4000000 		.4byte	0xb4
 1814 0306 04       		.byte	0x4
 1815 0307 15       		.uleb128 0x15
 1816 0308 11150000 		.4byte	.LASF52
 1817 030c 08       		.byte	0x8
 1818 030d 4D02     		.2byte	0x24d
 1819 030f B4020000 		.4byte	0x2b4
 1820 0313 08       		.byte	0x8
 1821 0314 15       		.uleb128 0x15
 1822 0315 1C0D0000 		.4byte	.LASF53
 1823 0319 08       		.byte	0x8
 1824 031a 4E02     		.2byte	0x24e
 1825 031c A2000000 		.4byte	0xa2
 1826 0320 0C       		.byte	0xc
 1827 0321 15       		.uleb128 0x15
 1828 0322 E3160000 		.4byte	.LASF54
 1829 0326 08       		.byte	0x8
 1830 0327 4F02     		.2byte	0x24f
 1831 0329 B4000000 		.4byte	0xb4
ARM GAS  C:\Users\Brian\AppData\Local\Temp\ccNQoqIU.s 			page 58


 1832 032d 10       		.byte	0x10
 1833 032e 15       		.uleb128 0x15
 1834 032f C10E0000 		.4byte	.LASF55
 1835 0333 08       		.byte	0x8
 1836 0334 5002     		.2byte	0x250
 1837 0336 B4000000 		.4byte	0xb4
 1838 033a 14       		.byte	0x14
 1839 033b 15       		.uleb128 0x15
 1840 033c 37200000 		.4byte	.LASF56
 1841 0340 08       		.byte	0x8
 1842 0341 5202     		.2byte	0x252
 1843 0343 B4020000 		.4byte	0x2b4
 1844 0347 18       		.byte	0x18
 1845 0348 15       		.uleb128 0x15
 1846 0349 DB200000 		.4byte	.LASF57
 1847 034d 08       		.byte	0x8
 1848 034e 5302     		.2byte	0x253
 1849 0350 A2000000 		.4byte	0xa2
 1850 0354 1C       		.byte	0x1c
 1851 0355 15       		.uleb128 0x15
 1852 0356 640F0000 		.4byte	.LASF58
 1853 035a 08       		.byte	0x8
 1854 035b 5402     		.2byte	0x254
 1855 035d B4000000 		.4byte	0xb4
 1856 0361 20       		.byte	0x20
 1857 0362 15       		.uleb128 0x15
 1858 0363 AE140000 		.4byte	.LASF59
 1859 0367 08       		.byte	0x8
 1860 0368 5602     		.2byte	0x256
 1861 036a B4020000 		.4byte	0x2b4
 1862 036e 24       		.byte	0x24
 1863 036f 15       		.uleb128 0x15
 1864 0370 0B130000 		.4byte	.LASF60
 1865 0374 08       		.byte	0x8
 1866 0375 5702     		.2byte	0x257
 1867 0377 A2000000 		.4byte	0xa2
 1868 037b 28       		.byte	0x28
 1869 037c 15       		.uleb128 0x15
 1870 037d F2180000 		.4byte	.LASF61
 1871 0381 08       		.byte	0x8
 1872 0382 5802     		.2byte	0x258
 1873 0384 B4000000 		.4byte	0xb4
 1874 0388 2C       		.byte	0x2c
 1875 0389 15       		.uleb128 0x15
 1876 038a DC0D0000 		.4byte	.LASF62
 1877 038e 08       		.byte	0x8
 1878 038f 5D02     		.2byte	0x25d
 1879 0391 D4020000 		.4byte	0x2d4
 1880 0395 30       		.byte	0x30
 1881 0396 15       		.uleb128 0x15
 1882 0397 970F0000 		.4byte	.LASF63
 1883 039b 08       		.byte	0x8
 1884 039c 6002     		.2byte	0x260
 1885 039e A2000000 		.4byte	0xa2
 1886 03a2 34       		.byte	0x34
 1887 03a3 00       		.byte	0
 1888 03a4 10       		.uleb128 0x10
ARM GAS  C:\Users\Brian\AppData\Local\Temp\ccNQoqIU.s 			page 59


 1889 03a5 2C080000 		.4byte	.LASF64
 1890 03a9 08       		.byte	0x8
 1891 03aa 6302     		.2byte	0x263
 1892 03ac E0020000 		.4byte	0x2e0
 1893 03b0 16       		.uleb128 0x16
 1894 03b1 2C010000 		.4byte	.LASF360
 1895 03b5 04       		.byte	0x4
 1896 03b6 85000000 		.4byte	0x85
 1897 03ba 09       		.byte	0x9
 1898 03bb 7001     		.2byte	0x170
 1899 03bd 2B040000 		.4byte	0x42b
 1900 03c1 17       		.uleb128 0x17
 1901 03c2 3D0A0000 		.4byte	.LASF65
 1902 03c6 00       		.byte	0
 1903 03c7 18       		.uleb128 0x18
 1904 03c8 20170000 		.4byte	.LASF66
 1905 03cc 00005200 		.4byte	0x520000
 1906 03d0 18       		.uleb128 0x18
 1907 03d1 55070000 		.4byte	.LASF67
 1908 03d5 01005200 		.4byte	0x520001
 1909 03d9 18       		.uleb128 0x18
 1910 03da 27150000 		.4byte	.LASF68
 1911 03de 02005200 		.4byte	0x520002
 1912 03e2 18       		.uleb128 0x18
 1913 03e3 F41C0000 		.4byte	.LASF69
 1914 03e7 03005200 		.4byte	0x520003
 1915 03eb 18       		.uleb128 0x18
 1916 03ec 091E0000 		.4byte	.LASF70
 1917 03f0 05005200 		.4byte	0x520005
 1918 03f4 18       		.uleb128 0x18
 1919 03f5 72190000 		.4byte	.LASF71
 1920 03f9 06005200 		.4byte	0x520006
 1921 03fd 18       		.uleb128 0x18
 1922 03fe A9030000 		.4byte	.LASF72
 1923 0402 22005200 		.4byte	0x520022
 1924 0406 18       		.uleb128 0x18
 1925 0407 EE140000 		.4byte	.LASF73
 1926 040b FF005200 		.4byte	0x5200ff
 1927 040f 18       		.uleb128 0x18
 1928 0410 A6060000 		.4byte	.LASF74
 1929 0414 00005000 		.4byte	0x500000
 1930 0418 18       		.uleb128 0x18
 1931 0419 391E0000 		.4byte	.LASF75
 1932 041d 01005000 		.4byte	0x500001
 1933 0421 18       		.uleb128 0x18
 1934 0422 79150000 		.4byte	.LASF76
 1935 0426 02005000 		.4byte	0x500002
 1936 042a 00       		.byte	0
 1937 042b 10       		.uleb128 0x10
 1938 042c 411F0000 		.4byte	.LASF77
 1939 0430 09       		.byte	0x9
 1940 0431 7E01     		.2byte	0x17e
 1941 0433 B0030000 		.4byte	0x3b0
 1942 0437 19       		.uleb128 0x19
 1943 0438 01       		.byte	0x1
 1944 0439 2C000000 		.4byte	0x2c
 1945 043d 0A       		.byte	0xa
ARM GAS  C:\Users\Brian\AppData\Local\Temp\ccNQoqIU.s 			page 60


 1946 043e 0504     		.2byte	0x405
 1947 0440 5D040000 		.4byte	0x45d
 1948 0444 17       		.uleb128 0x17
 1949 0445 7C050000 		.4byte	.LASF78
 1950 0449 00       		.byte	0
 1951 044a 17       		.uleb128 0x17
 1952 044b 7F090000 		.4byte	.LASF79
 1953 044f 01       		.byte	0x1
 1954 0450 17       		.uleb128 0x17
 1955 0451 400E0000 		.4byte	.LASF80
 1956 0455 02       		.byte	0x2
 1957 0456 17       		.uleb128 0x17
 1958 0457 A1020000 		.4byte	.LASF81
 1959 045b 03       		.byte	0x3
 1960 045c 00       		.byte	0
 1961 045d 10       		.uleb128 0x10
 1962 045e 921F0000 		.4byte	.LASF82
 1963 0462 0A       		.byte	0xa
 1964 0463 0A04     		.2byte	0x40a
 1965 0465 37040000 		.4byte	0x437
 1966 0469 1A       		.uleb128 0x1a
 1967 046a 78       		.byte	0x78
 1968 046b 0A       		.byte	0xa
 1969 046c F404     		.2byte	0x4f4
 1970 046e 36050000 		.4byte	0x536
 1971 0472 15       		.uleb128 0x15
 1972 0473 E8090000 		.4byte	.LASF83
 1973 0477 0A       		.byte	0xa
 1974 0478 F604     		.2byte	0x4f6
 1975 047a A2000000 		.4byte	0xa2
 1976 047e 00       		.byte	0
 1977 047f 15       		.uleb128 0x15
 1978 0480 901B0000 		.4byte	.LASF84
 1979 0484 0A       		.byte	0xa
 1980 0485 F704     		.2byte	0x4f7
 1981 0487 A2000000 		.4byte	0xa2
 1982 048b 04       		.byte	0x4
 1983 048c 15       		.uleb128 0x15
 1984 048d E8150000 		.4byte	.LASF85
 1985 0491 0A       		.byte	0xa
 1986 0492 F804     		.2byte	0x4f8
 1987 0494 A2000000 		.4byte	0xa2
 1988 0498 08       		.byte	0x8
 1989 0499 15       		.uleb128 0x15
 1990 049a 5F1A0000 		.4byte	.LASF86
 1991 049e 0A       		.byte	0xa
 1992 049f F904     		.2byte	0x4f9
 1993 04a1 A2000000 		.4byte	0xa2
 1994 04a5 0C       		.byte	0xc
 1995 04a6 15       		.uleb128 0x15
 1996 04a7 43090000 		.4byte	.LASF87
 1997 04ab 0A       		.byte	0xa
 1998 04ac FA04     		.2byte	0x4fa
 1999 04ae A2000000 		.4byte	0xa2
 2000 04b2 10       		.byte	0x10
 2001 04b3 15       		.uleb128 0x15
 2002 04b4 A5100000 		.4byte	.LASF88
ARM GAS  C:\Users\Brian\AppData\Local\Temp\ccNQoqIU.s 			page 61


 2003 04b8 0A       		.byte	0xa
 2004 04b9 FB04     		.2byte	0x4fb
 2005 04bb 5D040000 		.4byte	0x45d
 2006 04bf 14       		.byte	0x14
 2007 04c0 15       		.uleb128 0x15
 2008 04c1 BA0E0000 		.4byte	.LASF89
 2009 04c5 0A       		.byte	0xa
 2010 04c6 FC04     		.2byte	0x4fc
 2011 04c8 A2000000 		.4byte	0xa2
 2012 04cc 18       		.byte	0x18
 2013 04cd 15       		.uleb128 0x15
 2014 04ce AE120000 		.4byte	.LASF90
 2015 04d2 0A       		.byte	0xa
 2016 04d3 FD04     		.2byte	0x4fd
 2017 04d5 36050000 		.4byte	0x536
 2018 04d9 1C       		.byte	0x1c
 2019 04da 15       		.uleb128 0x15
 2020 04db E8000000 		.4byte	.LASF91
 2021 04df 0A       		.byte	0xa
 2022 04e0 FE04     		.2byte	0x4fe
 2023 04e2 A2000000 		.4byte	0xa2
 2024 04e6 5C       		.byte	0x5c
 2025 04e7 15       		.uleb128 0x15
 2026 04e8 0A170000 		.4byte	.LASF92
 2027 04ec 0A       		.byte	0xa
 2028 04ed FF04     		.2byte	0x4ff
 2029 04ef A2000000 		.4byte	0xa2
 2030 04f3 60       		.byte	0x60
 2031 04f4 15       		.uleb128 0x15
 2032 04f5 7B1F0000 		.4byte	.LASF93
 2033 04f9 0A       		.byte	0xa
 2034 04fa 0005     		.2byte	0x500
 2035 04fc A2000000 		.4byte	0xa2
 2036 0500 64       		.byte	0x64
 2037 0501 15       		.uleb128 0x15
 2038 0502 0F160000 		.4byte	.LASF94
 2039 0506 0A       		.byte	0xa
 2040 0507 0105     		.2byte	0x501
 2041 0509 A2000000 		.4byte	0xa2
 2042 050d 68       		.byte	0x68
 2043 050e 15       		.uleb128 0x15
 2044 050f 66100000 		.4byte	.LASF95
 2045 0513 0A       		.byte	0xa
 2046 0514 0205     		.2byte	0x502
 2047 0516 A2000000 		.4byte	0xa2
 2048 051a 6C       		.byte	0x6c
 2049 051b 15       		.uleb128 0x15
 2050 051c 1E1F0000 		.4byte	.LASF96
 2051 0520 0A       		.byte	0xa
 2052 0521 0305     		.2byte	0x503
 2053 0523 B6020000 		.4byte	0x2b6
 2054 0527 70       		.byte	0x70
 2055 0528 15       		.uleb128 0x15
 2056 0529 AA0D0000 		.4byte	.LASF97
 2057 052d 0A       		.byte	0xa
 2058 052e 0405     		.2byte	0x504
 2059 0530 A2000000 		.4byte	0xa2
ARM GAS  C:\Users\Brian\AppData\Local\Temp\ccNQoqIU.s 			page 62


 2060 0534 74       		.byte	0x74
 2061 0535 00       		.byte	0
 2062 0536 07       		.uleb128 0x7
 2063 0537 A2000000 		.4byte	0xa2
 2064 053b 46050000 		.4byte	0x546
 2065 053f 08       		.uleb128 0x8
 2066 0540 AD000000 		.4byte	0xad
 2067 0544 0F       		.byte	0xf
 2068 0545 00       		.byte	0
 2069 0546 10       		.uleb128 0x10
 2070 0547 4D0D0000 		.4byte	.LASF98
 2071 054b 0A       		.byte	0xa
 2072 054c 0505     		.2byte	0x505
 2073 054e 69040000 		.4byte	0x469
 2074 0552 03       		.uleb128 0x3
 2075 0553 30040000 		.4byte	.LASF99
 2076 0557 0B       		.byte	0xb
 2077 0558 07       		.byte	0x7
 2078 0559 7E000000 		.4byte	0x7e
 2079 055d 03       		.uleb128 0x3
 2080 055e 3A1F0000 		.4byte	.LASF100
 2081 0562 0C       		.byte	0xc
 2082 0563 2C       		.byte	0x2c
 2083 0564 57000000 		.4byte	0x57
 2084 0568 03       		.uleb128 0x3
 2085 0569 22020000 		.4byte	.LASF101
 2086 056d 0C       		.byte	0xc
 2087 056e 72       		.byte	0x72
 2088 056f 57000000 		.4byte	0x57
 2089 0573 10       		.uleb128 0x10
 2090 0574 E91A0000 		.4byte	.LASF102
 2091 0578 0D       		.byte	0xd
 2092 0579 6501     		.2byte	0x165
 2093 057b 85000000 		.4byte	0x85
 2094 057f 1B       		.uleb128 0x1b
 2095 0580 04       		.byte	0x4
 2096 0581 0C       		.byte	0xc
 2097 0582 A6       		.byte	0xa6
 2098 0583 9E050000 		.4byte	0x59e
 2099 0587 1C       		.uleb128 0x1c
 2100 0588 9F0F0000 		.4byte	.LASF103
 2101 058c 0C       		.byte	0xc
 2102 058d A8       		.byte	0xa8
 2103 058e 73050000 		.4byte	0x573
 2104 0592 1C       		.uleb128 0x1c
 2105 0593 95180000 		.4byte	.LASF104
 2106 0597 0C       		.byte	0xc
 2107 0598 A9       		.byte	0xa9
 2108 0599 9E050000 		.4byte	0x59e
 2109 059d 00       		.byte	0
 2110 059e 07       		.uleb128 0x7
 2111 059f 2C000000 		.4byte	0x2c
 2112 05a3 AE050000 		.4byte	0x5ae
 2113 05a7 08       		.uleb128 0x8
 2114 05a8 AD000000 		.4byte	0xad
 2115 05ac 03       		.byte	0x3
 2116 05ad 00       		.byte	0
ARM GAS  C:\Users\Brian\AppData\Local\Temp\ccNQoqIU.s 			page 63


 2117 05ae 09       		.uleb128 0x9
 2118 05af 08       		.byte	0x8
 2119 05b0 0C       		.byte	0xc
 2120 05b1 A3       		.byte	0xa3
 2121 05b2 CF050000 		.4byte	0x5cf
 2122 05b6 0B       		.uleb128 0xb
 2123 05b7 45050000 		.4byte	.LASF105
 2124 05bb 0C       		.byte	0xc
 2125 05bc A5       		.byte	0xa5
 2126 05bd 7E000000 		.4byte	0x7e
 2127 05c1 00       		.byte	0
 2128 05c2 0B       		.uleb128 0xb
 2129 05c3 790D0000 		.4byte	.LASF106
 2130 05c7 0C       		.byte	0xc
 2131 05c8 AA       		.byte	0xaa
 2132 05c9 7F050000 		.4byte	0x57f
 2133 05cd 04       		.byte	0x4
 2134 05ce 00       		.byte	0
 2135 05cf 03       		.uleb128 0x3
 2136 05d0 8A120000 		.4byte	.LASF107
 2137 05d4 0C       		.byte	0xc
 2138 05d5 AB       		.byte	0xab
 2139 05d6 AE050000 		.4byte	0x5ae
 2140 05da 03       		.uleb128 0x3
 2141 05db 350F0000 		.4byte	.LASF108
 2142 05df 0C       		.byte	0xc
 2143 05e0 AF       		.byte	0xaf
 2144 05e1 52050000 		.4byte	0x552
 2145 05e5 0E       		.uleb128 0xe
 2146 05e6 04       		.byte	0x4
 2147 05e7 87020000 		.4byte	0x287
 2148 05eb 03       		.uleb128 0x3
 2149 05ec 4E1A0000 		.4byte	.LASF109
 2150 05f0 0E       		.byte	0xe
 2151 05f1 16       		.byte	0x16
 2152 05f2 69000000 		.4byte	0x69
 2153 05f6 1D       		.uleb128 0x1d
 2154 05f7 26060000 		.4byte	.LASF111
 2155 05fb 18       		.byte	0x18
 2156 05fc 0E       		.byte	0xe
 2157 05fd 2D       		.byte	0x2d
 2158 05fe 49060000 		.4byte	0x649
 2159 0602 0B       		.uleb128 0xb
 2160 0603 6D200000 		.4byte	.LASF112
 2161 0607 0E       		.byte	0xe
 2162 0608 2F       		.byte	0x2f
 2163 0609 49060000 		.4byte	0x649
 2164 060d 00       		.byte	0
 2165 060e 0A       		.uleb128 0xa
 2166 060f 5F6B00   		.ascii	"_k\000"
 2167 0612 0E       		.byte	0xe
 2168 0613 30       		.byte	0x30
 2169 0614 7E000000 		.4byte	0x7e
 2170 0618 04       		.byte	0x4
 2171 0619 0B       		.uleb128 0xb
 2172 061a B7190000 		.4byte	.LASF113
 2173 061e 0E       		.byte	0xe
ARM GAS  C:\Users\Brian\AppData\Local\Temp\ccNQoqIU.s 			page 64


 2174 061f 30       		.byte	0x30
 2175 0620 7E000000 		.4byte	0x7e
 2176 0624 08       		.byte	0x8
 2177 0625 0B       		.uleb128 0xb
 2178 0626 4D180000 		.4byte	.LASF114
 2179 062a 0E       		.byte	0xe
 2180 062b 30       		.byte	0x30
 2181 062c 7E000000 		.4byte	0x7e
 2182 0630 0C       		.byte	0xc
 2183 0631 0B       		.uleb128 0xb
 2184 0632 1A090000 		.4byte	.LASF115
 2185 0636 0E       		.byte	0xe
 2186 0637 30       		.byte	0x30
 2187 0638 7E000000 		.4byte	0x7e
 2188 063c 10       		.byte	0x10
 2189 063d 0A       		.uleb128 0xa
 2190 063e 5F7800   		.ascii	"_x\000"
 2191 0641 0E       		.byte	0xe
 2192 0642 31       		.byte	0x31
 2193 0643 4F060000 		.4byte	0x64f
 2194 0647 14       		.byte	0x14
 2195 0648 00       		.byte	0
 2196 0649 0E       		.uleb128 0xe
 2197 064a 04       		.byte	0x4
 2198 064b F6050000 		.4byte	0x5f6
 2199 064f 07       		.uleb128 0x7
 2200 0650 EB050000 		.4byte	0x5eb
 2201 0654 5F060000 		.4byte	0x65f
 2202 0658 08       		.uleb128 0x8
 2203 0659 AD000000 		.4byte	0xad
 2204 065d 00       		.byte	0
 2205 065e 00       		.byte	0
 2206 065f 1D       		.uleb128 0x1d
 2207 0660 6C1A0000 		.4byte	.LASF116
 2208 0664 24       		.byte	0x24
 2209 0665 0E       		.byte	0xe
 2210 0666 35       		.byte	0x35
 2211 0667 D8060000 		.4byte	0x6d8
 2212 066b 0B       		.uleb128 0xb
 2213 066c BA0B0000 		.4byte	.LASF117
 2214 0670 0E       		.byte	0xe
 2215 0671 37       		.byte	0x37
 2216 0672 7E000000 		.4byte	0x7e
 2217 0676 00       		.byte	0
 2218 0677 0B       		.uleb128 0xb
 2219 0678 23080000 		.4byte	.LASF118
 2220 067c 0E       		.byte	0xe
 2221 067d 38       		.byte	0x38
 2222 067e 7E000000 		.4byte	0x7e
 2223 0682 04       		.byte	0x4
 2224 0683 0B       		.uleb128 0xb
 2225 0684 9C060000 		.4byte	.LASF119
 2226 0688 0E       		.byte	0xe
 2227 0689 39       		.byte	0x39
 2228 068a 7E000000 		.4byte	0x7e
 2229 068e 08       		.byte	0x8
 2230 068f 0B       		.uleb128 0xb
ARM GAS  C:\Users\Brian\AppData\Local\Temp\ccNQoqIU.s 			page 65


 2231 0690 810D0000 		.4byte	.LASF120
 2232 0694 0E       		.byte	0xe
 2233 0695 3A       		.byte	0x3a
 2234 0696 7E000000 		.4byte	0x7e
 2235 069a 0C       		.byte	0xc
 2236 069b 0B       		.uleb128 0xb
 2237 069c 08150000 		.4byte	.LASF121
 2238 06a0 0E       		.byte	0xe
 2239 06a1 3B       		.byte	0x3b
 2240 06a2 7E000000 		.4byte	0x7e
 2241 06a6 10       		.byte	0x10
 2242 06a7 0B       		.uleb128 0xb
 2243 06a8 AA180000 		.4byte	.LASF122
 2244 06ac 0E       		.byte	0xe
 2245 06ad 3C       		.byte	0x3c
 2246 06ae 7E000000 		.4byte	0x7e
 2247 06b2 14       		.byte	0x14
 2248 06b3 0B       		.uleb128 0xb
 2249 06b4 3D060000 		.4byte	.LASF123
 2250 06b8 0E       		.byte	0xe
 2251 06b9 3D       		.byte	0x3d
 2252 06ba 7E000000 		.4byte	0x7e
 2253 06be 18       		.byte	0x18
 2254 06bf 0B       		.uleb128 0xb
 2255 06c0 AB1C0000 		.4byte	.LASF124
 2256 06c4 0E       		.byte	0xe
 2257 06c5 3E       		.byte	0x3e
 2258 06c6 7E000000 		.4byte	0x7e
 2259 06ca 1C       		.byte	0x1c
 2260 06cb 0B       		.uleb128 0xb
 2261 06cc 1C130000 		.4byte	.LASF125
 2262 06d0 0E       		.byte	0xe
 2263 06d1 3F       		.byte	0x3f
 2264 06d2 7E000000 		.4byte	0x7e
 2265 06d6 20       		.byte	0x20
 2266 06d7 00       		.byte	0
 2267 06d8 1E       		.uleb128 0x1e
 2268 06d9 42010000 		.4byte	.LASF126
 2269 06dd 0801     		.2byte	0x108
 2270 06df 0E       		.byte	0xe
 2271 06e0 48       		.byte	0x48
 2272 06e1 18070000 		.4byte	0x718
 2273 06e5 0B       		.uleb128 0xb
 2274 06e6 F51D0000 		.4byte	.LASF127
 2275 06ea 0E       		.byte	0xe
 2276 06eb 49       		.byte	0x49
 2277 06ec 18070000 		.4byte	0x718
 2278 06f0 00       		.byte	0
 2279 06f1 0B       		.uleb128 0xb
 2280 06f2 511B0000 		.4byte	.LASF128
 2281 06f6 0E       		.byte	0xe
 2282 06f7 4A       		.byte	0x4a
 2283 06f8 18070000 		.4byte	0x718
 2284 06fc 80       		.byte	0x80
 2285 06fd 0D       		.uleb128 0xd
 2286 06fe E01E0000 		.4byte	.LASF129
 2287 0702 0E       		.byte	0xe
ARM GAS  C:\Users\Brian\AppData\Local\Temp\ccNQoqIU.s 			page 66


 2288 0703 4C       		.byte	0x4c
 2289 0704 EB050000 		.4byte	0x5eb
 2290 0708 0001     		.2byte	0x100
 2291 070a 0D       		.uleb128 0xd
 2292 070b 14200000 		.4byte	.LASF130
 2293 070f 0E       		.byte	0xe
 2294 0710 4F       		.byte	0x4f
 2295 0711 EB050000 		.4byte	0x5eb
 2296 0715 0401     		.2byte	0x104
 2297 0717 00       		.byte	0
 2298 0718 07       		.uleb128 0x7
 2299 0719 B4020000 		.4byte	0x2b4
 2300 071d 28070000 		.4byte	0x728
 2301 0721 08       		.uleb128 0x8
 2302 0722 AD000000 		.4byte	0xad
 2303 0726 1F       		.byte	0x1f
 2304 0727 00       		.byte	0
 2305 0728 1E       		.uleb128 0x1e
 2306 0729 19160000 		.4byte	.LASF131
 2307 072d 9001     		.2byte	0x190
 2308 072f 0E       		.byte	0xe
 2309 0730 5B       		.byte	0x5b
 2310 0731 66070000 		.4byte	0x766
 2311 0735 0B       		.uleb128 0xb
 2312 0736 6D200000 		.4byte	.LASF112
 2313 073a 0E       		.byte	0xe
 2314 073b 5C       		.byte	0x5c
 2315 073c 66070000 		.4byte	0x766
 2316 0740 00       		.byte	0
 2317 0741 0B       		.uleb128 0xb
 2318 0742 F70B0000 		.4byte	.LASF132
 2319 0746 0E       		.byte	0xe
 2320 0747 5D       		.byte	0x5d
 2321 0748 7E000000 		.4byte	0x7e
 2322 074c 04       		.byte	0x4
 2323 074d 0B       		.uleb128 0xb
 2324 074e D1050000 		.4byte	.LASF133
 2325 0752 0E       		.byte	0xe
 2326 0753 5F       		.byte	0x5f
 2327 0754 6C070000 		.4byte	0x76c
 2328 0758 08       		.byte	0x8
 2329 0759 0B       		.uleb128 0xb
 2330 075a 42010000 		.4byte	.LASF126
 2331 075e 0E       		.byte	0xe
 2332 075f 60       		.byte	0x60
 2333 0760 D8060000 		.4byte	0x6d8
 2334 0764 88       		.byte	0x88
 2335 0765 00       		.byte	0
 2336 0766 0E       		.uleb128 0xe
 2337 0767 04       		.byte	0x4
 2338 0768 28070000 		.4byte	0x728
 2339 076c 07       		.uleb128 0x7
 2340 076d 74020000 		.4byte	0x274
 2341 0771 7C070000 		.4byte	0x77c
 2342 0775 08       		.uleb128 0x8
 2343 0776 AD000000 		.4byte	0xad
 2344 077a 1F       		.byte	0x1f
ARM GAS  C:\Users\Brian\AppData\Local\Temp\ccNQoqIU.s 			page 67


 2345 077b 00       		.byte	0
 2346 077c 1D       		.uleb128 0x1d
 2347 077d ED1C0000 		.4byte	.LASF134
 2348 0781 08       		.byte	0x8
 2349 0782 0E       		.byte	0xe
 2350 0783 73       		.byte	0x73
 2351 0784 A1070000 		.4byte	0x7a1
 2352 0788 0B       		.uleb128 0xb
 2353 0789 15110000 		.4byte	.LASF135
 2354 078d 0E       		.byte	0xe
 2355 078e 74       		.byte	0x74
 2356 078f A1070000 		.4byte	0x7a1
 2357 0793 00       		.byte	0
 2358 0794 0B       		.uleb128 0xb
 2359 0795 181F0000 		.4byte	.LASF136
 2360 0799 0E       		.byte	0xe
 2361 079a 75       		.byte	0x75
 2362 079b 7E000000 		.4byte	0x7e
 2363 079f 04       		.byte	0x4
 2364 07a0 00       		.byte	0
 2365 07a1 0E       		.uleb128 0xe
 2366 07a2 04       		.byte	0x4
 2367 07a3 2C000000 		.4byte	0x2c
 2368 07a7 1D       		.uleb128 0x1d
 2369 07a8 E91E0000 		.4byte	.LASF137
 2370 07ac 68       		.byte	0x68
 2371 07ad 0E       		.byte	0xe
 2372 07ae B3       		.byte	0xb3
 2373 07af D1080000 		.4byte	0x8d1
 2374 07b3 0A       		.uleb128 0xa
 2375 07b4 5F7000   		.ascii	"_p\000"
 2376 07b7 0E       		.byte	0xe
 2377 07b8 B4       		.byte	0xb4
 2378 07b9 A1070000 		.4byte	0x7a1
 2379 07bd 00       		.byte	0
 2380 07be 0A       		.uleb128 0xa
 2381 07bf 5F7200   		.ascii	"_r\000"
 2382 07c2 0E       		.byte	0xe
 2383 07c3 B5       		.byte	0xb5
 2384 07c4 7E000000 		.4byte	0x7e
 2385 07c8 04       		.byte	0x4
 2386 07c9 0A       		.uleb128 0xa
 2387 07ca 5F7700   		.ascii	"_w\000"
 2388 07cd 0E       		.byte	0xe
 2389 07ce B6       		.byte	0xb6
 2390 07cf 7E000000 		.4byte	0x7e
 2391 07d3 08       		.byte	0x8
 2392 07d4 0B       		.uleb128 0xb
 2393 07d5 1F090000 		.4byte	.LASF138
 2394 07d9 0E       		.byte	0xe
 2395 07da B7       		.byte	0xb7
 2396 07db 25000000 		.4byte	0x25
 2397 07df 0C       		.byte	0xc
 2398 07e0 0B       		.uleb128 0xb
 2399 07e1 EF110000 		.4byte	.LASF139
 2400 07e5 0E       		.byte	0xe
 2401 07e6 B8       		.byte	0xb8
ARM GAS  C:\Users\Brian\AppData\Local\Temp\ccNQoqIU.s 			page 68


 2402 07e7 25000000 		.4byte	0x25
 2403 07eb 0E       		.byte	0xe
 2404 07ec 0A       		.uleb128 0xa
 2405 07ed 5F626600 		.ascii	"_bf\000"
 2406 07f1 0E       		.byte	0xe
 2407 07f2 B9       		.byte	0xb9
 2408 07f3 7C070000 		.4byte	0x77c
 2409 07f7 10       		.byte	0x10
 2410 07f8 0B       		.uleb128 0xb
 2411 07f9 C9020000 		.4byte	.LASF140
 2412 07fd 0E       		.byte	0xe
 2413 07fe BA       		.byte	0xba
 2414 07ff 7E000000 		.4byte	0x7e
 2415 0803 18       		.byte	0x18
 2416 0804 0B       		.uleb128 0xb
 2417 0805 D6050000 		.4byte	.LASF141
 2418 0809 0E       		.byte	0xe
 2419 080a C1       		.byte	0xc1
 2420 080b B4020000 		.4byte	0x2b4
 2421 080f 1C       		.byte	0x1c
 2422 0810 0B       		.uleb128 0xb
 2423 0811 8D040000 		.4byte	.LASF142
 2424 0815 0E       		.byte	0xe
 2425 0816 C3       		.byte	0xc3
 2426 0817 270A0000 		.4byte	0xa27
 2427 081b 20       		.byte	0x20
 2428 081c 0B       		.uleb128 0xb
 2429 081d 6B190000 		.4byte	.LASF143
 2430 0821 0E       		.byte	0xe
 2431 0822 C5       		.byte	0xc5
 2432 0823 560A0000 		.4byte	0xa56
 2433 0827 24       		.byte	0x24
 2434 0828 0B       		.uleb128 0xb
 2435 0829 67200000 		.4byte	.LASF144
 2436 082d 0E       		.byte	0xe
 2437 082e C8       		.byte	0xc8
 2438 082f 7A0A0000 		.4byte	0xa7a
 2439 0833 28       		.byte	0x28
 2440 0834 0B       		.uleb128 0xb
 2441 0835 ED0F0000 		.4byte	.LASF145
 2442 0839 0E       		.byte	0xe
 2443 083a C9       		.byte	0xc9
 2444 083b 940A0000 		.4byte	0xa94
 2445 083f 2C       		.byte	0x2c
 2446 0840 0A       		.uleb128 0xa
 2447 0841 5F756200 		.ascii	"_ub\000"
 2448 0845 0E       		.byte	0xe
 2449 0846 CC       		.byte	0xcc
 2450 0847 7C070000 		.4byte	0x77c
 2451 084b 30       		.byte	0x30
 2452 084c 0A       		.uleb128 0xa
 2453 084d 5F757000 		.ascii	"_up\000"
 2454 0851 0E       		.byte	0xe
 2455 0852 CD       		.byte	0xcd
 2456 0853 A1070000 		.4byte	0x7a1
 2457 0857 38       		.byte	0x38
 2458 0858 0A       		.uleb128 0xa
ARM GAS  C:\Users\Brian\AppData\Local\Temp\ccNQoqIU.s 			page 69


 2459 0859 5F757200 		.ascii	"_ur\000"
 2460 085d 0E       		.byte	0xe
 2461 085e CE       		.byte	0xce
 2462 085f 7E000000 		.4byte	0x7e
 2463 0863 3C       		.byte	0x3c
 2464 0864 0B       		.uleb128 0xb
 2465 0865 D5200000 		.4byte	.LASF146
 2466 0869 0E       		.byte	0xe
 2467 086a D1       		.byte	0xd1
 2468 086b 9A0A0000 		.4byte	0xa9a
 2469 086f 40       		.byte	0x40
 2470 0870 0B       		.uleb128 0xb
 2471 0871 591F0000 		.4byte	.LASF147
 2472 0875 0E       		.byte	0xe
 2473 0876 D2       		.byte	0xd2
 2474 0877 AA0A0000 		.4byte	0xaaa
 2475 087b 43       		.byte	0x43
 2476 087c 0A       		.uleb128 0xa
 2477 087d 5F6C6200 		.ascii	"_lb\000"
 2478 0881 0E       		.byte	0xe
 2479 0882 D5       		.byte	0xd5
 2480 0883 7C070000 		.4byte	0x77c
 2481 0887 44       		.byte	0x44
 2482 0888 0B       		.uleb128 0xb
 2483 0889 561A0000 		.4byte	.LASF148
 2484 088d 0E       		.byte	0xe
 2485 088e D8       		.byte	0xd8
 2486 088f 7E000000 		.4byte	0x7e
 2487 0893 4C       		.byte	0x4c
 2488 0894 0B       		.uleb128 0xb
 2489 0895 DA090000 		.4byte	.LASF149
 2490 0899 0E       		.byte	0xe
 2491 089a D9       		.byte	0xd9
 2492 089b 5D050000 		.4byte	0x55d
 2493 089f 50       		.byte	0x50
 2494 08a0 0B       		.uleb128 0xb
 2495 08a1 8F180000 		.4byte	.LASF150
 2496 08a5 0E       		.byte	0xe
 2497 08a6 DC       		.byte	0xdc
 2498 08a7 EF080000 		.4byte	0x8ef
 2499 08ab 54       		.byte	0x54
 2500 08ac 0B       		.uleb128 0xb
 2501 08ad 841A0000 		.4byte	.LASF151
 2502 08b1 0E       		.byte	0xe
 2503 08b2 E0       		.byte	0xe0
 2504 08b3 DA050000 		.4byte	0x5da
 2505 08b7 58       		.byte	0x58
 2506 08b8 0B       		.uleb128 0xb
 2507 08b9 2E060000 		.4byte	.LASF152
 2508 08bd 0E       		.byte	0xe
 2509 08be E2       		.byte	0xe2
 2510 08bf CF050000 		.4byte	0x5cf
 2511 08c3 5C       		.byte	0x5c
 2512 08c4 0B       		.uleb128 0xb
 2513 08c5 DC1F0000 		.4byte	.LASF153
 2514 08c9 0E       		.byte	0xe
 2515 08ca E3       		.byte	0xe3
ARM GAS  C:\Users\Brian\AppData\Local\Temp\ccNQoqIU.s 			page 70


 2516 08cb 7E000000 		.4byte	0x7e
 2517 08cf 64       		.byte	0x64
 2518 08d0 00       		.byte	0
 2519 08d1 1F       		.uleb128 0x1f
 2520 08d2 7E000000 		.4byte	0x7e
 2521 08d6 EF080000 		.4byte	0x8ef
 2522 08da 13       		.uleb128 0x13
 2523 08db EF080000 		.4byte	0x8ef
 2524 08df 13       		.uleb128 0x13
 2525 08e0 B4020000 		.4byte	0x2b4
 2526 08e4 13       		.uleb128 0x13
 2527 08e5 E5050000 		.4byte	0x5e5
 2528 08e9 13       		.uleb128 0x13
 2529 08ea 7E000000 		.4byte	0x7e
 2530 08ee 00       		.byte	0
 2531 08ef 0E       		.uleb128 0xe
 2532 08f0 04       		.byte	0x4
 2533 08f1 F5080000 		.4byte	0x8f5
 2534 08f5 20       		.uleb128 0x20
 2535 08f6 1F1E0000 		.4byte	.LASF154
 2536 08fa 2804     		.2byte	0x428
 2537 08fc 0E       		.byte	0xe
 2538 08fd 3802     		.2byte	0x238
 2539 08ff 270A0000 		.4byte	0xa27
 2540 0903 15       		.uleb128 0x15
 2541 0904 2A020000 		.4byte	.LASF155
 2542 0908 0E       		.byte	0xe
 2543 0909 3A02     		.2byte	0x23a
 2544 090b 7E000000 		.4byte	0x7e
 2545 090f 00       		.byte	0
 2546 0910 15       		.uleb128 0x15
 2547 0911 AF100000 		.4byte	.LASF156
 2548 0915 0E       		.byte	0xe
 2549 0916 3F02     		.2byte	0x23f
 2550 0918 010B0000 		.4byte	0xb01
 2551 091c 04       		.byte	0x4
 2552 091d 15       		.uleb128 0x15
 2553 091e 4D050000 		.4byte	.LASF157
 2554 0922 0E       		.byte	0xe
 2555 0923 3F02     		.2byte	0x23f
 2556 0925 010B0000 		.4byte	0xb01
 2557 0929 08       		.byte	0x8
 2558 092a 15       		.uleb128 0x15
 2559 092b B11B0000 		.4byte	.LASF158
 2560 092f 0E       		.byte	0xe
 2561 0930 3F02     		.2byte	0x23f
 2562 0932 010B0000 		.4byte	0xb01
 2563 0936 0C       		.byte	0xc
 2564 0937 15       		.uleb128 0x15
 2565 0938 F20B0000 		.4byte	.LASF159
 2566 093c 0E       		.byte	0xe
 2567 093d 4102     		.2byte	0x241
 2568 093f 7E000000 		.4byte	0x7e
 2569 0943 10       		.byte	0x10
 2570 0944 15       		.uleb128 0x15
 2571 0945 FF060000 		.4byte	.LASF160
 2572 0949 0E       		.byte	0xe
ARM GAS  C:\Users\Brian\AppData\Local\Temp\ccNQoqIU.s 			page 71


 2573 094a 4202     		.2byte	0x242
 2574 094c E30C0000 		.4byte	0xce3
 2575 0950 14       		.byte	0x14
 2576 0951 15       		.uleb128 0x15
 2577 0952 C9190000 		.4byte	.LASF161
 2578 0956 0E       		.byte	0xe
 2579 0957 4402     		.2byte	0x244
 2580 0959 7E000000 		.4byte	0x7e
 2581 095d 30       		.byte	0x30
 2582 095e 15       		.uleb128 0x15
 2583 095f 550B0000 		.4byte	.LASF162
 2584 0963 0E       		.byte	0xe
 2585 0964 4502     		.2byte	0x245
 2586 0966 4B0A0000 		.4byte	0xa4b
 2587 096a 34       		.byte	0x34
 2588 096b 15       		.uleb128 0x15
 2589 096c 09100000 		.4byte	.LASF163
 2590 0970 0E       		.byte	0xe
 2591 0971 4702     		.2byte	0x247
 2592 0973 7E000000 		.4byte	0x7e
 2593 0977 38       		.byte	0x38
 2594 0978 15       		.uleb128 0x15
 2595 0979 49120000 		.4byte	.LASF164
 2596 097d 0E       		.byte	0xe
 2597 097e 4902     		.2byte	0x249
 2598 0980 FE0C0000 		.4byte	0xcfe
 2599 0984 3C       		.byte	0x3c
 2600 0985 15       		.uleb128 0x15
 2601 0986 61060000 		.4byte	.LASF165
 2602 098a 0E       		.byte	0xe
 2603 098b 4C02     		.2byte	0x24c
 2604 098d 49060000 		.4byte	0x649
 2605 0991 40       		.byte	0x40
 2606 0992 15       		.uleb128 0x15
 2607 0993 B7080000 		.4byte	.LASF166
 2608 0997 0E       		.byte	0xe
 2609 0998 4D02     		.2byte	0x24d
 2610 099a 7E000000 		.4byte	0x7e
 2611 099e 44       		.byte	0x44
 2612 099f 15       		.uleb128 0x15
 2613 09a0 8B0D0000 		.4byte	.LASF167
 2614 09a4 0E       		.byte	0xe
 2615 09a5 4E02     		.2byte	0x24e
 2616 09a7 49060000 		.4byte	0x649
 2617 09ab 48       		.byte	0x48
 2618 09ac 15       		.uleb128 0x15
 2619 09ad 1B110000 		.4byte	.LASF168
 2620 09b1 0E       		.byte	0xe
 2621 09b2 4F02     		.2byte	0x24f
 2622 09b4 040D0000 		.4byte	0xd04
 2623 09b8 4C       		.byte	0x4c
 2624 09b9 15       		.uleb128 0x15
 2625 09ba 8A1A0000 		.4byte	.LASF169
 2626 09be 0E       		.byte	0xe
 2627 09bf 5202     		.2byte	0x252
 2628 09c1 7E000000 		.4byte	0x7e
 2629 09c5 50       		.byte	0x50
ARM GAS  C:\Users\Brian\AppData\Local\Temp\ccNQoqIU.s 			page 72


 2630 09c6 15       		.uleb128 0x15
 2631 09c7 9B1B0000 		.4byte	.LASF170
 2632 09cb 0E       		.byte	0xe
 2633 09cc 5302     		.2byte	0x253
 2634 09ce E5050000 		.4byte	0x5e5
 2635 09d2 54       		.byte	0x54
 2636 09d3 15       		.uleb128 0x15
 2637 09d4 B2190000 		.4byte	.LASF171
 2638 09d8 0E       		.byte	0xe
 2639 09d9 7602     		.2byte	0x276
 2640 09db C10C0000 		.4byte	0xcc1
 2641 09df 58       		.byte	0x58
 2642 09e0 21       		.uleb128 0x21
 2643 09e1 19160000 		.4byte	.LASF131
 2644 09e5 0E       		.byte	0xe
 2645 09e6 7A02     		.2byte	0x27a
 2646 09e8 66070000 		.4byte	0x766
 2647 09ec 4801     		.2byte	0x148
 2648 09ee 21       		.uleb128 0x21
 2649 09ef B1150000 		.4byte	.LASF172
 2650 09f3 0E       		.byte	0xe
 2651 09f4 7B02     		.2byte	0x27b
 2652 09f6 28070000 		.4byte	0x728
 2653 09fa 4C01     		.2byte	0x14c
 2654 09fc 21       		.uleb128 0x21
 2655 09fd B00E0000 		.4byte	.LASF173
 2656 0a01 0E       		.byte	0xe
 2657 0a02 7F02     		.2byte	0x27f
 2658 0a04 150D0000 		.4byte	0xd15
 2659 0a08 DC02     		.2byte	0x2dc
 2660 0a0a 21       		.uleb128 0x21
 2661 0a0b A11D0000 		.4byte	.LASF174
 2662 0a0f 0E       		.byte	0xe
 2663 0a10 8402     		.2byte	0x284
 2664 0a12 C60A0000 		.4byte	0xac6
 2665 0a16 E002     		.2byte	0x2e0
 2666 0a18 21       		.uleb128 0x21
 2667 0a19 48180000 		.4byte	.LASF175
 2668 0a1d 0E       		.byte	0xe
 2669 0a1e 8502     		.2byte	0x285
 2670 0a20 210D0000 		.4byte	0xd21
 2671 0a24 EC02     		.2byte	0x2ec
 2672 0a26 00       		.byte	0
 2673 0a27 0E       		.uleb128 0xe
 2674 0a28 04       		.byte	0x4
 2675 0a29 D1080000 		.4byte	0x8d1
 2676 0a2d 1F       		.uleb128 0x1f
 2677 0a2e 7E000000 		.4byte	0x7e
 2678 0a32 4B0A0000 		.4byte	0xa4b
 2679 0a36 13       		.uleb128 0x13
 2680 0a37 EF080000 		.4byte	0x8ef
 2681 0a3b 13       		.uleb128 0x13
 2682 0a3c B4020000 		.4byte	0x2b4
 2683 0a40 13       		.uleb128 0x13
 2684 0a41 4B0A0000 		.4byte	0xa4b
 2685 0a45 13       		.uleb128 0x13
 2686 0a46 7E000000 		.4byte	0x7e
ARM GAS  C:\Users\Brian\AppData\Local\Temp\ccNQoqIU.s 			page 73


 2687 0a4a 00       		.byte	0
 2688 0a4b 0E       		.uleb128 0xe
 2689 0a4c 04       		.byte	0x4
 2690 0a4d 510A0000 		.4byte	0xa51
 2691 0a51 06       		.uleb128 0x6
 2692 0a52 87020000 		.4byte	0x287
 2693 0a56 0E       		.uleb128 0xe
 2694 0a57 04       		.byte	0x4
 2695 0a58 2D0A0000 		.4byte	0xa2d
 2696 0a5c 1F       		.uleb128 0x1f
 2697 0a5d 68050000 		.4byte	0x568
 2698 0a61 7A0A0000 		.4byte	0xa7a
 2699 0a65 13       		.uleb128 0x13
 2700 0a66 EF080000 		.4byte	0x8ef
 2701 0a6a 13       		.uleb128 0x13
 2702 0a6b B4020000 		.4byte	0x2b4
 2703 0a6f 13       		.uleb128 0x13
 2704 0a70 68050000 		.4byte	0x568
 2705 0a74 13       		.uleb128 0x13
 2706 0a75 7E000000 		.4byte	0x7e
 2707 0a79 00       		.byte	0
 2708 0a7a 0E       		.uleb128 0xe
 2709 0a7b 04       		.byte	0x4
 2710 0a7c 5C0A0000 		.4byte	0xa5c
 2711 0a80 1F       		.uleb128 0x1f
 2712 0a81 7E000000 		.4byte	0x7e
 2713 0a85 940A0000 		.4byte	0xa94
 2714 0a89 13       		.uleb128 0x13
 2715 0a8a EF080000 		.4byte	0x8ef
 2716 0a8e 13       		.uleb128 0x13
 2717 0a8f B4020000 		.4byte	0x2b4
 2718 0a93 00       		.byte	0
 2719 0a94 0E       		.uleb128 0xe
 2720 0a95 04       		.byte	0x4
 2721 0a96 800A0000 		.4byte	0xa80
 2722 0a9a 07       		.uleb128 0x7
 2723 0a9b 2C000000 		.4byte	0x2c
 2724 0a9f AA0A0000 		.4byte	0xaaa
 2725 0aa3 08       		.uleb128 0x8
 2726 0aa4 AD000000 		.4byte	0xad
 2727 0aa8 02       		.byte	0x2
 2728 0aa9 00       		.byte	0
 2729 0aaa 07       		.uleb128 0x7
 2730 0aab 2C000000 		.4byte	0x2c
 2731 0aaf BA0A0000 		.4byte	0xaba
 2732 0ab3 08       		.uleb128 0x8
 2733 0ab4 AD000000 		.4byte	0xad
 2734 0ab8 00       		.byte	0
 2735 0ab9 00       		.byte	0
 2736 0aba 10       		.uleb128 0x10
 2737 0abb 78090000 		.4byte	.LASF176
 2738 0abf 0E       		.byte	0xe
 2739 0ac0 1D01     		.2byte	0x11d
 2740 0ac2 A7070000 		.4byte	0x7a7
 2741 0ac6 14       		.uleb128 0x14
 2742 0ac7 5C1D0000 		.4byte	.LASF177
 2743 0acb 0C       		.byte	0xc
ARM GAS  C:\Users\Brian\AppData\Local\Temp\ccNQoqIU.s 			page 74


 2744 0acc 0E       		.byte	0xe
 2745 0acd 2101     		.2byte	0x121
 2746 0acf FB0A0000 		.4byte	0xafb
 2747 0ad3 15       		.uleb128 0x15
 2748 0ad4 6D200000 		.4byte	.LASF112
 2749 0ad8 0E       		.byte	0xe
 2750 0ad9 2301     		.2byte	0x123
 2751 0adb FB0A0000 		.4byte	0xafb
 2752 0adf 00       		.byte	0
 2753 0ae0 15       		.uleb128 0x15
 2754 0ae1 E21A0000 		.4byte	.LASF178
 2755 0ae5 0E       		.byte	0xe
 2756 0ae6 2401     		.2byte	0x124
 2757 0ae8 7E000000 		.4byte	0x7e
 2758 0aec 04       		.byte	0x4
 2759 0aed 15       		.uleb128 0x15
 2760 0aee A50F0000 		.4byte	.LASF179
 2761 0af2 0E       		.byte	0xe
 2762 0af3 2501     		.2byte	0x125
 2763 0af5 010B0000 		.4byte	0xb01
 2764 0af9 08       		.byte	0x8
 2765 0afa 00       		.byte	0
 2766 0afb 0E       		.uleb128 0xe
 2767 0afc 04       		.byte	0x4
 2768 0afd C60A0000 		.4byte	0xac6
 2769 0b01 0E       		.uleb128 0xe
 2770 0b02 04       		.byte	0x4
 2771 0b03 BA0A0000 		.4byte	0xaba
 2772 0b07 14       		.uleb128 0x14
 2773 0b08 26090000 		.4byte	.LASF180
 2774 0b0c 0E       		.byte	0xe
 2775 0b0d 0E       		.byte	0xe
 2776 0b0e 3D01     		.2byte	0x13d
 2777 0b10 3C0B0000 		.4byte	0xb3c
 2778 0b14 15       		.uleb128 0x15
 2779 0b15 C5030000 		.4byte	.LASF181
 2780 0b19 0E       		.byte	0xe
 2781 0b1a 3E01     		.2byte	0x13e
 2782 0b1c 3C0B0000 		.4byte	0xb3c
 2783 0b20 00       		.byte	0
 2784 0b21 15       		.uleb128 0x15
 2785 0b22 EC0B0000 		.4byte	.LASF182
 2786 0b26 0E       		.byte	0xe
 2787 0b27 3F01     		.2byte	0x13f
 2788 0b29 3C0B0000 		.4byte	0xb3c
 2789 0b2d 06       		.byte	0x6
 2790 0b2e 15       		.uleb128 0x15
 2791 0b2f 3E110000 		.4byte	.LASF183
 2792 0b33 0E       		.byte	0xe
 2793 0b34 4001     		.2byte	0x140
 2794 0b36 50000000 		.4byte	0x50
 2795 0b3a 0C       		.byte	0xc
 2796 0b3b 00       		.byte	0
 2797 0b3c 07       		.uleb128 0x7
 2798 0b3d 50000000 		.4byte	0x50
 2799 0b41 4C0B0000 		.4byte	0xb4c
 2800 0b45 08       		.uleb128 0x8
ARM GAS  C:\Users\Brian\AppData\Local\Temp\ccNQoqIU.s 			page 75


 2801 0b46 AD000000 		.4byte	0xad
 2802 0b4a 02       		.byte	0x2
 2803 0b4b 00       		.byte	0
 2804 0b4c 1A       		.uleb128 0x1a
 2805 0b4d D0       		.byte	0xd0
 2806 0b4e 0E       		.byte	0xe
 2807 0b4f 5702     		.2byte	0x257
 2808 0b51 4D0C0000 		.4byte	0xc4d
 2809 0b55 15       		.uleb128 0x15
 2810 0b56 5F1F0000 		.4byte	.LASF184
 2811 0b5a 0E       		.byte	0xe
 2812 0b5b 5902     		.2byte	0x259
 2813 0b5d 85000000 		.4byte	0x85
 2814 0b61 00       		.byte	0
 2815 0b62 15       		.uleb128 0x15
 2816 0b63 B61D0000 		.4byte	.LASF185
 2817 0b67 0E       		.byte	0xe
 2818 0b68 5A02     		.2byte	0x25a
 2819 0b6a E5050000 		.4byte	0x5e5
 2820 0b6e 04       		.byte	0x4
 2821 0b6f 15       		.uleb128 0x15
 2822 0b70 CC080000 		.4byte	.LASF186
 2823 0b74 0E       		.byte	0xe
 2824 0b75 5B02     		.2byte	0x25b
 2825 0b77 4D0C0000 		.4byte	0xc4d
 2826 0b7b 08       		.byte	0x8
 2827 0b7c 15       		.uleb128 0x15
 2828 0b7d BF010000 		.4byte	.LASF187
 2829 0b81 0E       		.byte	0xe
 2830 0b82 5C02     		.2byte	0x25c
 2831 0b84 5F060000 		.4byte	0x65f
 2832 0b88 24       		.byte	0x24
 2833 0b89 15       		.uleb128 0x15
 2834 0b8a D9150000 		.4byte	.LASF188
 2835 0b8e 0E       		.byte	0xe
 2836 0b8f 5D02     		.2byte	0x25d
 2837 0b91 7E000000 		.4byte	0x7e
 2838 0b95 48       		.byte	0x48
 2839 0b96 15       		.uleb128 0x15
 2840 0b97 5C200000 		.4byte	.LASF189
 2841 0b9b 0E       		.byte	0xe
 2842 0b9c 5E02     		.2byte	0x25e
 2843 0b9e 77000000 		.4byte	0x77
 2844 0ba2 50       		.byte	0x50
 2845 0ba3 15       		.uleb128 0x15
 2846 0ba4 15020000 		.4byte	.LASF190
 2847 0ba8 0E       		.byte	0xe
 2848 0ba9 5F02     		.2byte	0x25f
 2849 0bab 070B0000 		.4byte	0xb07
 2850 0baf 58       		.byte	0x58
 2851 0bb0 15       		.uleb128 0x15
 2852 0bb1 58120000 		.4byte	.LASF191
 2853 0bb5 0E       		.byte	0xe
 2854 0bb6 6002     		.2byte	0x260
 2855 0bb8 CF050000 		.4byte	0x5cf
 2856 0bbc 68       		.byte	0x68
 2857 0bbd 15       		.uleb128 0x15
ARM GAS  C:\Users\Brian\AppData\Local\Temp\ccNQoqIU.s 			page 76


 2858 0bbe C31D0000 		.4byte	.LASF192
 2859 0bc2 0E       		.byte	0xe
 2860 0bc3 6102     		.2byte	0x261
 2861 0bc5 CF050000 		.4byte	0x5cf
 2862 0bc9 70       		.byte	0x70
 2863 0bca 15       		.uleb128 0x15
 2864 0bcb 2C1F0000 		.4byte	.LASF193
 2865 0bcf 0E       		.byte	0xe
 2866 0bd0 6202     		.2byte	0x262
 2867 0bd2 CF050000 		.4byte	0x5cf
 2868 0bd6 78       		.byte	0x78
 2869 0bd7 15       		.uleb128 0x15
 2870 0bd8 BF190000 		.4byte	.LASF194
 2871 0bdc 0E       		.byte	0xe
 2872 0bdd 6302     		.2byte	0x263
 2873 0bdf 5D0C0000 		.4byte	0xc5d
 2874 0be3 80       		.byte	0x80
 2875 0be4 15       		.uleb128 0x15
 2876 0be5 4B020000 		.4byte	.LASF195
 2877 0be9 0E       		.byte	0xe
 2878 0bea 6402     		.2byte	0x264
 2879 0bec 6D0C0000 		.4byte	0xc6d
 2880 0bf0 88       		.byte	0x88
 2881 0bf1 15       		.uleb128 0x15
 2882 0bf2 A91D0000 		.4byte	.LASF196
 2883 0bf6 0E       		.byte	0xe
 2884 0bf7 6502     		.2byte	0x265
 2885 0bf9 7E000000 		.4byte	0x7e
 2886 0bfd A0       		.byte	0xa0
 2887 0bfe 15       		.uleb128 0x15
 2888 0bff B5040000 		.4byte	.LASF197
 2889 0c03 0E       		.byte	0xe
 2890 0c04 6602     		.2byte	0x266
 2891 0c06 CF050000 		.4byte	0x5cf
 2892 0c0a A4       		.byte	0xa4
 2893 0c0b 15       		.uleb128 0x15
 2894 0c0c 7E040000 		.4byte	.LASF198
 2895 0c10 0E       		.byte	0xe
 2896 0c11 6702     		.2byte	0x267
 2897 0c13 CF050000 		.4byte	0x5cf
 2898 0c17 AC       		.byte	0xac
 2899 0c18 15       		.uleb128 0x15
 2900 0c19 820C0000 		.4byte	.LASF199
 2901 0c1d 0E       		.byte	0xe
 2902 0c1e 6802     		.2byte	0x268
 2903 0c20 CF050000 		.4byte	0x5cf
 2904 0c24 B4       		.byte	0xb4
 2905 0c25 15       		.uleb128 0x15
 2906 0c26 D5110000 		.4byte	.LASF200
 2907 0c2a 0E       		.byte	0xe
 2908 0c2b 6902     		.2byte	0x269
 2909 0c2d CF050000 		.4byte	0x5cf
 2910 0c31 BC       		.byte	0xbc
 2911 0c32 15       		.uleb128 0x15
 2912 0c33 050E0000 		.4byte	.LASF201
 2913 0c37 0E       		.byte	0xe
 2914 0c38 6A02     		.2byte	0x26a
ARM GAS  C:\Users\Brian\AppData\Local\Temp\ccNQoqIU.s 			page 77


 2915 0c3a CF050000 		.4byte	0x5cf
 2916 0c3e C4       		.byte	0xc4
 2917 0c3f 15       		.uleb128 0x15
 2918 0c40 891F0000 		.4byte	.LASF202
 2919 0c44 0E       		.byte	0xe
 2920 0c45 6B02     		.2byte	0x26b
 2921 0c47 7E000000 		.4byte	0x7e
 2922 0c4b CC       		.byte	0xcc
 2923 0c4c 00       		.byte	0
 2924 0c4d 07       		.uleb128 0x7
 2925 0c4e 87020000 		.4byte	0x287
 2926 0c52 5D0C0000 		.4byte	0xc5d
 2927 0c56 08       		.uleb128 0x8
 2928 0c57 AD000000 		.4byte	0xad
 2929 0c5b 19       		.byte	0x19
 2930 0c5c 00       		.byte	0
 2931 0c5d 07       		.uleb128 0x7
 2932 0c5e 87020000 		.4byte	0x287
 2933 0c62 6D0C0000 		.4byte	0xc6d
 2934 0c66 08       		.uleb128 0x8
 2935 0c67 AD000000 		.4byte	0xad
 2936 0c6b 07       		.byte	0x7
 2937 0c6c 00       		.byte	0
 2938 0c6d 07       		.uleb128 0x7
 2939 0c6e 87020000 		.4byte	0x287
 2940 0c72 7D0C0000 		.4byte	0xc7d
 2941 0c76 08       		.uleb128 0x8
 2942 0c77 AD000000 		.4byte	0xad
 2943 0c7b 17       		.byte	0x17
 2944 0c7c 00       		.byte	0
 2945 0c7d 1A       		.uleb128 0x1a
 2946 0c7e F0       		.byte	0xf0
 2947 0c7f 0E       		.byte	0xe
 2948 0c80 7002     		.2byte	0x270
 2949 0c82 A10C0000 		.4byte	0xca1
 2950 0c86 15       		.uleb128 0x15
 2951 0c87 4B080000 		.4byte	.LASF203
 2952 0c8b 0E       		.byte	0xe
 2953 0c8c 7302     		.2byte	0x273
 2954 0c8e A10C0000 		.4byte	0xca1
 2955 0c92 00       		.byte	0
 2956 0c93 15       		.uleb128 0x15
 2957 0c94 CC200000 		.4byte	.LASF204
 2958 0c98 0E       		.byte	0xe
 2959 0c99 7402     		.2byte	0x274
 2960 0c9b B10C0000 		.4byte	0xcb1
 2961 0c9f 78       		.byte	0x78
 2962 0ca0 00       		.byte	0
 2963 0ca1 07       		.uleb128 0x7
 2964 0ca2 A1070000 		.4byte	0x7a1
 2965 0ca6 B10C0000 		.4byte	0xcb1
 2966 0caa 08       		.uleb128 0x8
 2967 0cab AD000000 		.4byte	0xad
 2968 0caf 1D       		.byte	0x1d
 2969 0cb0 00       		.byte	0
 2970 0cb1 07       		.uleb128 0x7
 2971 0cb2 85000000 		.4byte	0x85
ARM GAS  C:\Users\Brian\AppData\Local\Temp\ccNQoqIU.s 			page 78


 2972 0cb6 C10C0000 		.4byte	0xcc1
 2973 0cba 08       		.uleb128 0x8
 2974 0cbb AD000000 		.4byte	0xad
 2975 0cbf 1D       		.byte	0x1d
 2976 0cc0 00       		.byte	0
 2977 0cc1 22       		.uleb128 0x22
 2978 0cc2 F0       		.byte	0xf0
 2979 0cc3 0E       		.byte	0xe
 2980 0cc4 5502     		.2byte	0x255
 2981 0cc6 E30C0000 		.4byte	0xce3
 2982 0cca 23       		.uleb128 0x23
 2983 0ccb 1F1E0000 		.4byte	.LASF154
 2984 0ccf 0E       		.byte	0xe
 2985 0cd0 6C02     		.2byte	0x26c
 2986 0cd2 4C0B0000 		.4byte	0xb4c
 2987 0cd6 23       		.uleb128 0x23
 2988 0cd7 A0190000 		.4byte	.LASF205
 2989 0cdb 0E       		.byte	0xe
 2990 0cdc 7502     		.2byte	0x275
 2991 0cde 7D0C0000 		.4byte	0xc7d
 2992 0ce2 00       		.byte	0
 2993 0ce3 07       		.uleb128 0x7
 2994 0ce4 87020000 		.4byte	0x287
 2995 0ce8 F30C0000 		.4byte	0xcf3
 2996 0cec 08       		.uleb128 0x8
 2997 0ced AD000000 		.4byte	0xad
 2998 0cf1 18       		.byte	0x18
 2999 0cf2 00       		.byte	0
 3000 0cf3 12       		.uleb128 0x12
 3001 0cf4 FE0C0000 		.4byte	0xcfe
 3002 0cf8 13       		.uleb128 0x13
 3003 0cf9 EF080000 		.4byte	0x8ef
 3004 0cfd 00       		.byte	0
 3005 0cfe 0E       		.uleb128 0xe
 3006 0cff 04       		.byte	0x4
 3007 0d00 F30C0000 		.4byte	0xcf3
 3008 0d04 0E       		.uleb128 0xe
 3009 0d05 04       		.byte	0x4
 3010 0d06 49060000 		.4byte	0x649
 3011 0d0a 12       		.uleb128 0x12
 3012 0d0b 150D0000 		.4byte	0xd15
 3013 0d0f 13       		.uleb128 0x13
 3014 0d10 7E000000 		.4byte	0x7e
 3015 0d14 00       		.byte	0
 3016 0d15 0E       		.uleb128 0xe
 3017 0d16 04       		.byte	0x4
 3018 0d17 1B0D0000 		.4byte	0xd1b
 3019 0d1b 0E       		.uleb128 0xe
 3020 0d1c 04       		.byte	0x4
 3021 0d1d 0A0D0000 		.4byte	0xd0a
 3022 0d21 07       		.uleb128 0x7
 3023 0d22 BA0A0000 		.4byte	0xaba
 3024 0d26 310D0000 		.4byte	0xd31
 3025 0d2a 08       		.uleb128 0x8
 3026 0d2b AD000000 		.4byte	0xad
 3027 0d2f 02       		.byte	0x2
 3028 0d30 00       		.byte	0
ARM GAS  C:\Users\Brian\AppData\Local\Temp\ccNQoqIU.s 			page 79


 3029 0d31 19       		.uleb128 0x19
 3030 0d32 02       		.byte	0x2
 3031 0d33 50000000 		.4byte	0x50
 3032 0d37 0F       		.byte	0xf
 3033 0d38 4201     		.2byte	0x142
 3034 0d3a 6A100000 		.4byte	0x106a
 3035 0d3e 17       		.uleb128 0x17
 3036 0d3f 7D170000 		.4byte	.LASF206
 3037 0d43 00       		.byte	0
 3038 0d44 24       		.uleb128 0x24
 3039 0d45 0A070000 		.4byte	.LASF207
 3040 0d49 0010     		.2byte	0x1000
 3041 0d4b 24       		.uleb128 0x24
 3042 0d4c 711A0000 		.4byte	.LASF208
 3043 0d50 0110     		.2byte	0x1001
 3044 0d52 24       		.uleb128 0x24
 3045 0d53 300D0000 		.4byte	.LASF209
 3046 0d57 0210     		.2byte	0x1002
 3047 0d59 24       		.uleb128 0x24
 3048 0d5a 900D0000 		.4byte	.LASF210
 3049 0d5e 0310     		.2byte	0x1003
 3050 0d60 24       		.uleb128 0x24
 3051 0d61 C9000000 		.4byte	.LASF211
 3052 0d65 0410     		.2byte	0x1004
 3053 0d67 24       		.uleb128 0x24
 3054 0d68 F5020000 		.4byte	.LASF212
 3055 0d6c 0510     		.2byte	0x1005
 3056 0d6e 24       		.uleb128 0x24
 3057 0d6f F5150000 		.4byte	.LASF213
 3058 0d73 0020     		.2byte	0x2000
 3059 0d75 24       		.uleb128 0x24
 3060 0d76 22190000 		.4byte	.LASF214
 3061 0d7a 0120     		.2byte	0x2001
 3062 0d7c 24       		.uleb128 0x24
 3063 0d7d 47150000 		.4byte	.LASF215
 3064 0d81 0220     		.2byte	0x2002
 3065 0d83 24       		.uleb128 0x24
 3066 0d84 CB030000 		.4byte	.LASF216
 3067 0d88 0320     		.2byte	0x2003
 3068 0d8a 24       		.uleb128 0x24
 3069 0d8b 3E0F0000 		.4byte	.LASF217
 3070 0d8f 0420     		.2byte	0x2004
 3071 0d91 24       		.uleb128 0x24
 3072 0d92 91110000 		.4byte	.LASF218
 3073 0d96 0520     		.2byte	0x2005
 3074 0d98 24       		.uleb128 0x24
 3075 0d99 BB0C0000 		.4byte	.LASF219
 3076 0d9d 0620     		.2byte	0x2006
 3077 0d9f 24       		.uleb128 0x24
 3078 0da0 DB190000 		.4byte	.LASF220
 3079 0da4 0720     		.2byte	0x2007
 3080 0da6 24       		.uleb128 0x24
 3081 0da7 651C0000 		.4byte	.LASF221
 3082 0dab 0820     		.2byte	0x2008
 3083 0dad 24       		.uleb128 0x24
 3084 0dae ED090000 		.4byte	.LASF222
 3085 0db2 0920     		.2byte	0x2009
ARM GAS  C:\Users\Brian\AppData\Local\Temp\ccNQoqIU.s 			page 80


 3086 0db4 24       		.uleb128 0x24
 3087 0db5 70070000 		.4byte	.LASF223
 3088 0db9 0A20     		.2byte	0x200a
 3089 0dbb 24       		.uleb128 0x24
 3090 0dbc 80200000 		.4byte	.LASF224
 3091 0dc0 0B20     		.2byte	0x200b
 3092 0dc2 24       		.uleb128 0x24
 3093 0dc3 BA150000 		.4byte	.LASF225
 3094 0dc7 0C20     		.2byte	0x200c
 3095 0dc9 24       		.uleb128 0x24
 3096 0dca DC060000 		.4byte	.LASF226
 3097 0dce 0D20     		.2byte	0x200d
 3098 0dd0 24       		.uleb128 0x24
 3099 0dd1 100F0000 		.4byte	.LASF227
 3100 0dd5 0E20     		.2byte	0x200e
 3101 0dd7 24       		.uleb128 0x24
 3102 0dd8 7A160000 		.4byte	.LASF228
 3103 0ddc 0F20     		.2byte	0x200f
 3104 0dde 24       		.uleb128 0x24
 3105 0ddf 61110000 		.4byte	.LASF229
 3106 0de3 1020     		.2byte	0x2010
 3107 0de5 24       		.uleb128 0x24
 3108 0de6 DE120000 		.4byte	.LASF230
 3109 0dea 1120     		.2byte	0x2011
 3110 0dec 24       		.uleb128 0x24
 3111 0ded 331C0000 		.4byte	.LASF231
 3112 0df1 1220     		.2byte	0x2012
 3113 0df3 24       		.uleb128 0x24
 3114 0df4 F9010000 		.4byte	.LASF232
 3115 0df8 1320     		.2byte	0x2013
 3116 0dfa 24       		.uleb128 0x24
 3117 0dfb 42100000 		.4byte	.LASF233
 3118 0dff 1420     		.2byte	0x2014
 3119 0e01 24       		.uleb128 0x24
 3120 0e02 FF040000 		.4byte	.LASF234
 3121 0e06 1520     		.2byte	0x2015
 3122 0e08 24       		.uleb128 0x24
 3123 0e09 3D200000 		.4byte	.LASF235
 3124 0e0d 1620     		.2byte	0x2016
 3125 0e0f 24       		.uleb128 0x24
 3126 0e10 84030000 		.4byte	.LASF236
 3127 0e14 1720     		.2byte	0x2017
 3128 0e16 24       		.uleb128 0x24
 3129 0e17 1E070000 		.4byte	.LASF237
 3130 0e1b 0030     		.2byte	0x3000
 3131 0e1d 24       		.uleb128 0x24
 3132 0e1e 360B0000 		.4byte	.LASF238
 3133 0e22 0130     		.2byte	0x3001
 3134 0e24 24       		.uleb128 0x24
 3135 0e25 B6090000 		.4byte	.LASF239
 3136 0e29 0230     		.2byte	0x3002
 3137 0e2b 24       		.uleb128 0x24
 3138 0e2c 74130000 		.4byte	.LASF240
 3139 0e30 0330     		.2byte	0x3003
 3140 0e32 24       		.uleb128 0x24
 3141 0e33 FD080000 		.4byte	.LASF241
 3142 0e37 0430     		.2byte	0x3004
ARM GAS  C:\Users\Brian\AppData\Local\Temp\ccNQoqIU.s 			page 81


 3143 0e39 24       		.uleb128 0x24
 3144 0e3a 2F1A0000 		.4byte	.LASF242
 3145 0e3e 0530     		.2byte	0x3005
 3146 0e40 24       		.uleb128 0x24
 3147 0e41 CE010000 		.4byte	.LASF243
 3148 0e45 0630     		.2byte	0x3006
 3149 0e47 24       		.uleb128 0x24
 3150 0e48 8F1E0000 		.4byte	.LASF244
 3151 0e4c 0730     		.2byte	0x3007
 3152 0e4e 24       		.uleb128 0x24
 3153 0e4f F5110000 		.4byte	.LASF245
 3154 0e53 0830     		.2byte	0x3008
 3155 0e55 24       		.uleb128 0x24
 3156 0e56 420C0000 		.4byte	.LASF246
 3157 0e5a 0930     		.2byte	0x3009
 3158 0e5c 24       		.uleb128 0x24
 3159 0e5d 0F1A0000 		.4byte	.LASF247
 3160 0e61 0A30     		.2byte	0x300a
 3161 0e63 24       		.uleb128 0x24
 3162 0e64 6C0E0000 		.4byte	.LASF248
 3163 0e68 0B30     		.2byte	0x300b
 3164 0e6a 24       		.uleb128 0x24
 3165 0e6b B1110000 		.4byte	.LASF249
 3166 0e6f 0C30     		.2byte	0x300c
 3167 0e71 24       		.uleb128 0x24
 3168 0e72 C20F0000 		.4byte	.LASF250
 3169 0e76 1130     		.2byte	0x3011
 3170 0e78 24       		.uleb128 0x24
 3171 0e79 C0160000 		.4byte	.LASF251
 3172 0e7d 1230     		.2byte	0x3012
 3173 0e7f 24       		.uleb128 0x24
 3174 0e80 101B0000 		.4byte	.LASF252
 3175 0e84 1330     		.2byte	0x3013
 3176 0e86 24       		.uleb128 0x24
 3177 0e87 4C190000 		.4byte	.LASF253
 3178 0e8b 1430     		.2byte	0x3014
 3179 0e8d 24       		.uleb128 0x24
 3180 0e8e 02180000 		.4byte	.LASF254
 3181 0e92 1530     		.2byte	0x3015
 3182 0e94 24       		.uleb128 0x24
 3183 0e95 BD1E0000 		.4byte	.LASF255
 3184 0e99 1630     		.2byte	0x3016
 3185 0e9b 24       		.uleb128 0x24
 3186 0e9c A5130000 		.4byte	.LASF256
 3187 0ea0 1730     		.2byte	0x3017
 3188 0ea2 24       		.uleb128 0x24
 3189 0ea3 B60D0000 		.4byte	.LASF257
 3190 0ea7 1830     		.2byte	0x3018
 3191 0ea9 24       		.uleb128 0x24
 3192 0eaa C7130000 		.4byte	.LASF258
 3193 0eae 0040     		.2byte	0x4000
 3194 0eb0 24       		.uleb128 0x24
 3195 0eb1 581E0000 		.4byte	.LASF259
 3196 0eb5 0140     		.2byte	0x4001
 3197 0eb7 24       		.uleb128 0x24
 3198 0eb8 65120000 		.4byte	.LASF260
 3199 0ebc 0240     		.2byte	0x4002
ARM GAS  C:\Users\Brian\AppData\Local\Temp\ccNQoqIU.s 			page 82


 3200 0ebe 24       		.uleb128 0x24
 3201 0ebf B51F0000 		.4byte	.LASF261
 3202 0ec3 0340     		.2byte	0x4003
 3203 0ec5 24       		.uleb128 0x24
 3204 0ec6 25100000 		.4byte	.LASF262
 3205 0eca 0440     		.2byte	0x4004
 3206 0ecc 24       		.uleb128 0x24
 3207 0ecd 1C200000 		.4byte	.LASF263
 3208 0ed1 0540     		.2byte	0x4005
 3209 0ed3 24       		.uleb128 0x24
 3210 0ed4 58000000 		.4byte	.LASF264
 3211 0ed8 0640     		.2byte	0x4006
 3212 0eda 24       		.uleb128 0x24
 3213 0edb F90A0000 		.4byte	.LASF265
 3214 0edf 0740     		.2byte	0x4007
 3215 0ee1 24       		.uleb128 0x24
 3216 0ee2 90170000 		.4byte	.LASF266
 3217 0ee6 0840     		.2byte	0x4008
 3218 0ee8 24       		.uleb128 0x24
 3219 0ee9 98090000 		.4byte	.LASF267
 3220 0eed 0940     		.2byte	0x4009
 3221 0eef 24       		.uleb128 0x24
 3222 0ef0 FE200000 		.4byte	.LASF268
 3223 0ef4 0A40     		.2byte	0x400a
 3224 0ef6 24       		.uleb128 0x24
 3225 0ef7 900E0000 		.4byte	.LASF269
 3226 0efb 0B40     		.2byte	0x400b
 3227 0efd 24       		.uleb128 0x24
 3228 0efe B9120000 		.4byte	.LASF270
 3229 0f02 0C40     		.2byte	0x400c
 3230 0f04 24       		.uleb128 0x24
 3231 0f05 6D0F0000 		.4byte	.LASF271
 3232 0f09 0D40     		.2byte	0x400d
 3233 0f0b 24       		.uleb128 0x24
 3234 0f0c 38140000 		.4byte	.LASF272
 3235 0f10 0E40     		.2byte	0x400e
 3236 0f12 24       		.uleb128 0x24
 3237 0f13 520A0000 		.4byte	.LASF273
 3238 0f17 0F40     		.2byte	0x400f
 3239 0f19 24       		.uleb128 0x24
 3240 0f1a 92080000 		.4byte	.LASF274
 3241 0f1e 1040     		.2byte	0x4010
 3242 0f20 24       		.uleb128 0x24
 3243 0f21 891C0000 		.4byte	.LASF275
 3244 0f25 1140     		.2byte	0x4011
 3245 0f27 24       		.uleb128 0x24
 3246 0f28 930C0000 		.4byte	.LASF276
 3247 0f2c 1240     		.2byte	0x4012
 3248 0f2e 24       		.uleb128 0x24
 3249 0f2f 60180000 		.4byte	.LASF277
 3250 0f33 1340     		.2byte	0x4013
 3251 0f35 24       		.uleb128 0x24
 3252 0f36 0B140000 		.4byte	.LASF278
 3253 0f3a 1440     		.2byte	0x4014
 3254 0f3c 24       		.uleb128 0x24
 3255 0f3d 55050000 		.4byte	.LASF279
 3256 0f41 1540     		.2byte	0x4015
ARM GAS  C:\Users\Brian\AppData\Local\Temp\ccNQoqIU.s 			page 83


 3257 0f43 24       		.uleb128 0x24
 3258 0f44 E41F0000 		.4byte	.LASF280
 3259 0f48 1640     		.2byte	0x4016
 3260 0f4a 24       		.uleb128 0x24
 3261 0f4b 76020000 		.4byte	.LASF281
 3262 0f4f 1740     		.2byte	0x4017
 3263 0f51 24       		.uleb128 0x24
 3264 0f52 25110000 		.4byte	.LASF282
 3265 0f56 1840     		.2byte	0x4018
 3266 0f58 24       		.uleb128 0x24
 3267 0f59 36170000 		.4byte	.LASF283
 3268 0f5d 1940     		.2byte	0x4019
 3269 0f5f 24       		.uleb128 0x24
 3270 0f60 27130000 		.4byte	.LASF284
 3271 0f64 1A40     		.2byte	0x401a
 3272 0f66 24       		.uleb128 0x24
 3273 0f67 21160000 		.4byte	.LASF285
 3274 0f6b 0050     		.2byte	0x5000
 3275 0f6d 24       		.uleb128 0x24
 3276 0f6e 62040000 		.4byte	.LASF286
 3277 0f72 0150     		.2byte	0x5001
 3278 0f74 24       		.uleb128 0x24
 3279 0f75 1C1D0000 		.4byte	.LASF287
 3280 0f79 0250     		.2byte	0x5002
 3281 0f7b 24       		.uleb128 0x24
 3282 0f7c 821D0000 		.4byte	.LASF288
 3283 0f80 0350     		.2byte	0x5003
 3284 0f82 24       		.uleb128 0x24
 3285 0f83 DE050000 		.4byte	.LASF289
 3286 0f87 0450     		.2byte	0x5004
 3287 0f89 24       		.uleb128 0x24
 3288 0f8a 52160000 		.4byte	.LASF290
 3289 0f8e 0550     		.2byte	0x5005
 3290 0f90 24       		.uleb128 0x24
 3291 0f91 EE0E0000 		.4byte	.LASF291
 3292 0f95 0650     		.2byte	0x5006
 3293 0f97 24       		.uleb128 0x24
 3294 0f98 65030000 		.4byte	.LASF292
 3295 0f9c 0750     		.2byte	0x5007
 3296 0f9e 24       		.uleb128 0x24
 3297 0f9f D7040000 		.4byte	.LASF293
 3298 0fa3 0850     		.2byte	0x5008
 3299 0fa5 24       		.uleb128 0x24
 3300 0fa6 47060000 		.4byte	.LASF294
 3301 0faa 0950     		.2byte	0x5009
 3302 0fac 24       		.uleb128 0x24
 3303 0fad 74060000 		.4byte	.LASF295
 3304 0fb1 0A50     		.2byte	0x500a
 3305 0fb3 24       		.uleb128 0x24
 3306 0fb4 42040000 		.4byte	.LASF296
 3307 0fb8 0B50     		.2byte	0x500b
 3308 0fba 24       		.uleb128 0x24
 3309 0fbb A5160000 		.4byte	.LASF297
 3310 0fbf 0C50     		.2byte	0x500c
 3311 0fc1 24       		.uleb128 0x24
 3312 0fc2 DF0C0000 		.4byte	.LASF298
 3313 0fc6 0D50     		.2byte	0x500d
ARM GAS  C:\Users\Brian\AppData\Local\Temp\ccNQoqIU.s 			page 84


 3314 0fc8 24       		.uleb128 0x24
 3315 0fc9 701E0000 		.4byte	.LASF299
 3316 0fcd 0E50     		.2byte	0x500e
 3317 0fcf 24       		.uleb128 0x24
 3318 0fd0 650B0000 		.4byte	.LASF300
 3319 0fd4 0F50     		.2byte	0x500f
 3320 0fd6 24       		.uleb128 0x24
 3321 0fd7 0B0A0000 		.4byte	.LASF301
 3322 0fdb 1050     		.2byte	0x5010
 3323 0fdd 24       		.uleb128 0x24
 3324 0fde 621D0000 		.4byte	.LASF302
 3325 0fe2 1150     		.2byte	0x5011
 3326 0fe4 24       		.uleb128 0x24
 3327 0fe5 F1000000 		.4byte	.LASF303
 3328 0fe9 1250     		.2byte	0x5012
 3329 0feb 24       		.uleb128 0x24
 3330 0fec C30B0000 		.4byte	.LASF304
 3331 0ff0 1350     		.2byte	0x5013
 3332 0ff2 24       		.uleb128 0x24
 3333 0ff3 FD050000 		.4byte	.LASF305
 3334 0ff7 1450     		.2byte	0x5014
 3335 0ff9 24       		.uleb128 0x24
 3336 0ffa B91B0000 		.4byte	.LASF306
 3337 0ffe 1550     		.2byte	0x5015
 3338 1000 24       		.uleb128 0x24
 3339 1001 5D1B0000 		.4byte	.LASF307
 3340 1005 1650     		.2byte	0x5016
 3341 1007 24       		.uleb128 0x24
 3342 1008 1B050000 		.4byte	.LASF308
 3343 100c 1750     		.2byte	0x5017
 3344 100e 24       		.uleb128 0x24
 3345 100f 18120000 		.4byte	.LASF309
 3346 1013 1850     		.2byte	0x5018
 3347 1015 24       		.uleb128 0x24
 3348 1016 F11E0000 		.4byte	.LASF310
 3349 101a 0060     		.2byte	0x6000
 3350 101c 24       		.uleb128 0x24
 3351 101d B51C0000 		.4byte	.LASF311
 3352 1021 0160     		.2byte	0x6001
 3353 1023 24       		.uleb128 0x24
 3354 1024 341B0000 		.4byte	.LASF312
 3355 1028 0260     		.2byte	0x6002
 3356 102a 24       		.uleb128 0x24
 3357 102b EC130000 		.4byte	.LASF313
 3358 102f 0360     		.2byte	0x6003
 3359 1031 24       		.uleb128 0x24
 3360 1032 D9100000 		.4byte	.LASF314
 3361 1036 0460     		.2byte	0x6004
 3362 1038 24       		.uleb128 0x24
 3363 1039 B4180000 		.4byte	.LASF315
 3364 103d 0560     		.2byte	0x6005
 3365 103f 24       		.uleb128 0x24
 3366 1040 170C0000 		.4byte	.LASF316
 3367 1044 0660     		.2byte	0x6006
 3368 1046 24       		.uleb128 0x24
 3369 1047 2C000000 		.4byte	.LASF317
 3370 104b 0760     		.2byte	0x6007
ARM GAS  C:\Users\Brian\AppData\Local\Temp\ccNQoqIU.s 			page 85


 3371 104d 24       		.uleb128 0x24
 3372 104e 81000000 		.4byte	.LASF318
 3373 1052 0860     		.2byte	0x6008
 3374 1054 24       		.uleb128 0x24
 3375 1055 A5000000 		.4byte	.LASF319
 3376 1059 0960     		.2byte	0x6009
 3377 105b 24       		.uleb128 0x24
 3378 105c 3D130000 		.4byte	.LASF320
 3379 1060 0A60     		.2byte	0x600a
 3380 1062 24       		.uleb128 0x24
 3381 1063 080C0000 		.4byte	.LASF321
 3382 1067 FFFF     		.2byte	0xffff
 3383 1069 00       		.byte	0
 3384 106a 0E       		.uleb128 0xe
 3385 106b 04       		.byte	0x4
 3386 106c 70100000 		.4byte	0x1070
 3387 1070 06       		.uleb128 0x6
 3388 1071 8C000000 		.4byte	0x8c
 3389 1075 1A       		.uleb128 0x1a
 3390 1076 02       		.byte	0x2
 3391 1077 10       		.byte	0x10
 3392 1078 5B01     		.2byte	0x15b
 3393 107a 99100000 		.4byte	0x1099
 3394 107e 15       		.uleb128 0x15
 3395 107f D11D0000 		.4byte	.LASF322
 3396 1083 10       		.byte	0x10
 3397 1084 6501     		.2byte	0x165
 3398 1086 8C000000 		.4byte	0x8c
 3399 108a 00       		.byte	0
 3400 108b 15       		.uleb128 0x15
 3401 108c E2090000 		.4byte	.LASF323
 3402 1090 10       		.byte	0x10
 3403 1091 6901     		.2byte	0x169
 3404 1093 8C000000 		.4byte	0x8c
 3405 1097 01       		.byte	0x1
 3406 1098 00       		.byte	0
 3407 1099 10       		.uleb128 0x10
 3408 109a F1160000 		.4byte	.LASF324
 3409 109e 10       		.byte	0x10
 3410 109f 6B01     		.2byte	0x16b
 3411 10a1 75100000 		.4byte	0x1075
 3412 10a5 10       		.uleb128 0x10
 3413 10a6 190B0000 		.4byte	.LASF325
 3414 10aa 11       		.byte	0x11
 3415 10ab 7F01     		.2byte	0x17f
 3416 10ad 97000000 		.4byte	0x97
 3417 10b1 1A       		.uleb128 0x1a
 3418 10b2 08       		.byte	0x8
 3419 10b3 11       		.byte	0x11
 3420 10b4 9401     		.2byte	0x194
 3421 10b6 E2100000 		.4byte	0x10e2
 3422 10ba 25       		.uleb128 0x25
 3423 10bb 76616C00 		.ascii	"val\000"
 3424 10bf 11       		.byte	0x11
 3425 10c0 9701     		.2byte	0x197
 3426 10c2 CE020000 		.4byte	0x2ce
 3427 10c6 00       		.byte	0
ARM GAS  C:\Users\Brian\AppData\Local\Temp\ccNQoqIU.s 			page 86


 3428 10c7 25       		.uleb128 0x25
 3429 10c8 6C656E00 		.ascii	"len\000"
 3430 10cc 11       		.byte	0x11
 3431 10cd 9A01     		.2byte	0x19a
 3432 10cf 97000000 		.4byte	0x97
 3433 10d3 04       		.byte	0x4
 3434 10d4 15       		.uleb128 0x15
 3435 10d5 18190000 		.4byte	.LASF326
 3436 10d9 11       		.byte	0x11
 3437 10da A101     		.2byte	0x1a1
 3438 10dc 97000000 		.4byte	0x97
 3439 10e0 06       		.byte	0x6
 3440 10e1 00       		.byte	0
 3441 10e2 10       		.uleb128 0x10
 3442 10e3 1B1C0000 		.4byte	.LASF327
 3443 10e7 11       		.byte	0x11
 3444 10e8 A301     		.2byte	0x1a3
 3445 10ea B1100000 		.4byte	0x10b1
 3446 10ee 1A       		.uleb128 0x1a
 3447 10ef 0C       		.byte	0xc
 3448 10f0 11       		.byte	0x11
 3449 10f1 A601     		.2byte	0x1a6
 3450 10f3 12110000 		.4byte	0x1112
 3451 10f7 15       		.uleb128 0x15
 3452 10f8 7C0A0000 		.4byte	.LASF328
 3453 10fc 11       		.byte	0x11
 3454 10fd A901     		.2byte	0x1a9
 3455 10ff E2100000 		.4byte	0x10e2
 3456 1103 00       		.byte	0
 3457 1104 15       		.uleb128 0x15
 3458 1105 2B0A0000 		.4byte	.LASF329
 3459 1109 11       		.byte	0x11
 3460 110a AC01     		.2byte	0x1ac
 3461 110c A5100000 		.4byte	0x10a5
 3462 1110 08       		.byte	0x8
 3463 1111 00       		.byte	0
 3464 1112 10       		.uleb128 0x10
 3465 1113 BE1A0000 		.4byte	.LASF330
 3466 1117 11       		.byte	0x11
 3467 1118 AE01     		.2byte	0x1ae
 3468 111a EE100000 		.4byte	0x10ee
 3469 111e 1A       		.uleb128 0x1a
 3470 111f 10       		.byte	0x10
 3471 1120 11       		.byte	0x11
 3472 1121 D201     		.2byte	0x1d2
 3473 1123 42110000 		.4byte	0x1142
 3474 1127 15       		.uleb128 0x15
 3475 1128 E4180000 		.4byte	.LASF331
 3476 112c 11       		.byte	0x11
 3477 112d D501     		.2byte	0x1d5
 3478 112f 12110000 		.4byte	0x1112
 3479 1133 00       		.byte	0
 3480 1134 15       		.uleb128 0x15
 3481 1135 E4110000 		.4byte	.LASF332
 3482 1139 11       		.byte	0x11
 3483 113a D801     		.2byte	0x1d8
 3484 113c 99100000 		.4byte	0x1099
ARM GAS  C:\Users\Brian\AppData\Local\Temp\ccNQoqIU.s 			page 87


 3485 1140 0C       		.byte	0xc
 3486 1141 00       		.byte	0
 3487 1142 10       		.uleb128 0x10
 3488 1143 43110000 		.4byte	.LASF333
 3489 1147 11       		.byte	0x11
 3490 1148 DA01     		.2byte	0x1da
 3491 114a 1E110000 		.4byte	0x111e
 3492 114e 26       		.uleb128 0x26
 3493 114f 01       		.byte	0x1
 3494 1150 2C000000 		.4byte	0x2c
 3495 1154 12       		.byte	0x12
 3496 1155 69       		.byte	0x69
 3497 1156 6D110000 		.4byte	0x116d
 3498 115a 17       		.uleb128 0x17
 3499 115b 03190000 		.4byte	.LASF334
 3500 115f 00       		.byte	0
 3501 1160 17       		.uleb128 0x17
 3502 1161 74010000 		.4byte	.LASF335
 3503 1165 01       		.byte	0x1
 3504 1166 17       		.uleb128 0x17
 3505 1167 801B0000 		.4byte	.LASF336
 3506 116b 02       		.byte	0x2
 3507 116c 00       		.byte	0
 3508 116d 03       		.uleb128 0x3
 3509 116e 9F150000 		.4byte	.LASF337
 3510 1172 12       		.byte	0x12
 3511 1173 70       		.byte	0x70
 3512 1174 4E110000 		.4byte	0x114e
 3513 1178 26       		.uleb128 0x26
 3514 1179 01       		.byte	0x1
 3515 117a 2C000000 		.4byte	0x2c
 3516 117e 12       		.byte	0x12
 3517 117f 7E       		.byte	0x7e
 3518 1180 9D110000 		.4byte	0x119d
 3519 1184 17       		.uleb128 0x17
 3520 1185 9C040000 		.4byte	.LASF338
 3521 1189 00       		.byte	0
 3522 118a 17       		.uleb128 0x17
 3523 118b 4E090000 		.4byte	.LASF339
 3524 118f 01       		.byte	0x1
 3525 1190 17       		.uleb128 0x17
 3526 1191 650C0000 		.4byte	.LASF340
 3527 1195 02       		.byte	0x2
 3528 1196 17       		.uleb128 0x17
 3529 1197 E50D0000 		.4byte	.LASF341
 3530 119b 03       		.byte	0x3
 3531 119c 00       		.byte	0
 3532 119d 03       		.uleb128 0x3
 3533 119e E7080000 		.4byte	.LASF342
 3534 11a2 12       		.byte	0x12
 3535 11a3 83       		.byte	0x83
 3536 11a4 78110000 		.4byte	0x1178
 3537 11a8 26       		.uleb128 0x26
 3538 11a9 01       		.byte	0x1
 3539 11aa 2C000000 		.4byte	0x2c
 3540 11ae 12       		.byte	0x12
 3541 11af 87       		.byte	0x87
ARM GAS  C:\Users\Brian\AppData\Local\Temp\ccNQoqIU.s 			page 88


 3542 11b0 E5110000 		.4byte	0x11e5
 3543 11b4 17       		.uleb128 0x17
 3544 11b5 CF0E0000 		.4byte	.LASF343
 3545 11b9 00       		.byte	0
 3546 11ba 17       		.uleb128 0x17
 3547 11bb 94050000 		.4byte	.LASF344
 3548 11bf 01       		.byte	0x1
 3549 11c0 17       		.uleb128 0x17
 3550 11c1 92140000 		.4byte	.LASF345
 3551 11c5 02       		.byte	0x2
 3552 11c6 17       		.uleb128 0x17
 3553 11c7 A2200000 		.4byte	.LASF346
 3554 11cb 03       		.byte	0x3
 3555 11cc 17       		.uleb128 0x17
 3556 11cd C4140000 		.4byte	.LASF347
 3557 11d1 04       		.byte	0x4
 3558 11d2 17       		.uleb128 0x17
 3559 11d3 160E0000 		.4byte	.LASF348
 3560 11d7 05       		.byte	0x5
 3561 11d8 17       		.uleb128 0x17
 3562 11d9 67140000 		.4byte	.LASF349
 3563 11dd 06       		.byte	0x6
 3564 11de 17       		.uleb128 0x17
 3565 11df 50010000 		.4byte	.LASF350
 3566 11e3 07       		.byte	0x7
 3567 11e4 00       		.byte	0
 3568 11e5 03       		.uleb128 0x3
 3569 11e6 46030000 		.4byte	.LASF351
 3570 11ea 12       		.byte	0x12
 3571 11eb 90       		.byte	0x90
 3572 11ec A8110000 		.4byte	0x11a8
 3573 11f0 03       		.uleb128 0x3
 3574 11f1 08040000 		.4byte	.LASF352
 3575 11f5 13       		.byte	0x13
 3576 11f6 A0       		.byte	0xa0
 3577 11f7 42110000 		.4byte	0x1142
 3578 11fb 03       		.uleb128 0x3
 3579 11fc 850B0000 		.4byte	.LASF353
 3580 1200 13       		.byte	0x13
 3581 1201 C2       		.byte	0xc2
 3582 1202 F0110000 		.4byte	0x11f0
 3583 1206 09       		.uleb128 0x9
 3584 1207 14       		.byte	0x14
 3585 1208 14       		.byte	0x14
 3586 1209 3B       		.byte	0x3b
 3587 120a 4B120000 		.4byte	0x124b
 3588 120e 0B       		.uleb128 0xb
 3589 120f 3A030000 		.4byte	.LASF354
 3590 1213 14       		.byte	0x14
 3591 1214 3D       		.byte	0x3d
 3592 1215 A2000000 		.4byte	0xa2
 3593 1219 00       		.byte	0
 3594 121a 0B       		.uleb128 0xb
 3595 121b 52080000 		.4byte	.LASF355
 3596 121f 14       		.byte	0x14
 3597 1220 3E       		.byte	0x3e
 3598 1221 A2000000 		.4byte	0xa2
ARM GAS  C:\Users\Brian\AppData\Local\Temp\ccNQoqIU.s 			page 89


 3599 1225 04       		.byte	0x4
 3600 1226 0B       		.uleb128 0xb
 3601 1227 041B0000 		.4byte	.LASF356
 3602 122b 14       		.byte	0x14
 3603 122c 3F       		.byte	0x3f
 3604 122d 4B120000 		.4byte	0x124b
 3605 1231 08       		.byte	0x8
 3606 1232 0B       		.uleb128 0xb
 3607 1233 B21E0000 		.4byte	.LASF357
 3608 1237 14       		.byte	0x14
 3609 1238 40       		.byte	0x40
 3610 1239 A2000000 		.4byte	0xa2
 3611 123d 0C       		.byte	0xc
 3612 123e 0B       		.uleb128 0xb
 3613 123f E21C0000 		.4byte	.LASF358
 3614 1243 14       		.byte	0x14
 3615 1244 45       		.byte	0x45
 3616 1245 A2000000 		.4byte	0xa2
 3617 1249 10       		.byte	0x10
 3618 124a 00       		.byte	0
 3619 124b 0E       		.uleb128 0xe
 3620 124c 04       		.byte	0x4
 3621 124d 51120000 		.4byte	0x1251
 3622 1251 06       		.uleb128 0x6
 3623 1252 46050000 		.4byte	0x546
 3624 1256 03       		.uleb128 0x3
 3625 1257 62130000 		.4byte	.LASF359
 3626 125b 14       		.byte	0x14
 3627 125c 48       		.byte	0x48
 3628 125d 06120000 		.4byte	0x1206
 3629 1261 27       		.uleb128 0x27
 3630 1262 AD1A0000 		.4byte	.LASF361
 3631 1266 01       		.byte	0x1
 3632 1267 2C000000 		.4byte	0x2c
 3633 126b 15       		.byte	0x15
 3634 126c 15       		.byte	0x15
 3635 126d 96120000 		.4byte	0x1296
 3636 1271 17       		.uleb128 0x17
 3637 1272 3C120000 		.4byte	.LASF362
 3638 1276 00       		.byte	0
 3639 1277 17       		.uleb128 0x17
 3640 1278 69060000 		.4byte	.LASF363
 3641 127c 01       		.byte	0x1
 3642 127d 17       		.uleb128 0x17
 3643 127e 930A0000 		.4byte	.LASF364
 3644 1282 02       		.byte	0x2
 3645 1283 17       		.uleb128 0x17
 3646 1284 2E090000 		.4byte	.LASF365
 3647 1288 03       		.byte	0x3
 3648 1289 17       		.uleb128 0x17
 3649 128a 13010000 		.4byte	.LASF366
 3650 128e 04       		.byte	0x4
 3651 128f 17       		.uleb128 0x17
 3652 1290 ED010000 		.4byte	.LASF367
 3653 1294 05       		.byte	0x5
 3654 1295 00       		.byte	0
 3655 1296 03       		.uleb128 0x3
ARM GAS  C:\Users\Brian\AppData\Local\Temp\ccNQoqIU.s 			page 90


 3656 1297 AD1A0000 		.4byte	.LASF361
 3657 129b 15       		.byte	0x15
 3658 129c 1D       		.byte	0x1d
 3659 129d 61120000 		.4byte	0x1261
 3660 12a1 28       		.uleb128 0x28
 3661 12a2 23180000 		.4byte	.LASF428
 3662 12a6 02       		.byte	0x2
 3663 12a7 53       		.byte	0x53
 3664 12a8 03       		.byte	0x3
 3665 12a9 29       		.uleb128 0x29
 3666 12aa D9080000 		.4byte	.LASF429
 3667 12ae 03       		.byte	0x3
 3668 12af E502     		.2byte	0x2e5
 3669 12b1 03       		.byte	0x3
 3670 12b2 DB120000 		.4byte	0x12db
 3671 12b6 2A       		.uleb128 0x2a
 3672 12b7 46080000 		.4byte	.LASF368
 3673 12bb 03       		.byte	0x3
 3674 12bc E502     		.2byte	0x2e5
 3675 12be DB120000 		.4byte	0x12db
 3676 12c2 2A       		.uleb128 0x2a
 3677 12c3 2D1B0000 		.4byte	.LASF369
 3678 12c7 03       		.byte	0x3
 3679 12c8 E502     		.2byte	0x2e5
 3680 12ca A2000000 		.4byte	0xa2
 3681 12ce 2A       		.uleb128 0x2a
 3682 12cf 7C0A0000 		.4byte	.LASF328
 3683 12d3 03       		.byte	0x3
 3684 12d4 E502     		.2byte	0x2e5
 3685 12d6 A2000000 		.4byte	0xa2
 3686 12da 00       		.byte	0
 3687 12db 0E       		.uleb128 0xe
 3688 12dc 04       		.byte	0x4
 3689 12dd BC010000 		.4byte	0x1bc
 3690 12e1 2B       		.uleb128 0x2b
 3691 12e2 3C160000 		.4byte	.LASF370
 3692 12e6 01       		.byte	0x1
 3693 12e7 D2       		.byte	0xd2
 3694 12e8 00000000 		.4byte	.LFB445
 3695 12ec 08010000 		.4byte	.LFE445-.LFB445
 3696 12f0 01       		.uleb128 0x1
 3697 12f1 9C       		.byte	0x9c
 3698 12f2 53140000 		.4byte	0x1453
 3699 12f6 2C       		.uleb128 0x2c
 3700 12f7 4D1D0000 		.4byte	.LASF372
 3701 12fb 01       		.byte	0x1
 3702 12fc D2       		.byte	0xd2
 3703 12fd CE020000 		.4byte	0x2ce
 3704 1301 00000000 		.4byte	.LLST0
 3705 1305 2D       		.uleb128 0x2d
 3706 1306 FC0B0000 		.4byte	.LASF374
 3707 130a 01       		.byte	0x1
 3708 130b D4       		.byte	0xd4
 3709 130c 12110000 		.4byte	0x1112
 3710 1310 02       		.uleb128 0x2
 3711 1311 91       		.byte	0x91
 3712 1312 64       		.sleb128 -28
ARM GAS  C:\Users\Brian\AppData\Local\Temp\ccNQoqIU.s 			page 91


 3713 1313 2E       		.uleb128 0x2e
 3714 1314 18000000 		.4byte	.LVL2
 3715 1318 A51D0000 		.4byte	0x1da5
 3716 131c 27130000 		.4byte	0x1327
 3717 1320 2F       		.uleb128 0x2f
 3718 1321 01       		.uleb128 0x1
 3719 1322 50       		.byte	0x50
 3720 1323 02       		.uleb128 0x2
 3721 1324 74       		.byte	0x74
 3722 1325 00       		.sleb128 0
 3723 1326 00       		.byte	0
 3724 1327 2E       		.uleb128 0x2e
 3725 1328 28000000 		.4byte	.LVL3
 3726 132c A51D0000 		.4byte	0x1da5
 3727 1330 3B130000 		.4byte	0x133b
 3728 1334 2F       		.uleb128 0x2f
 3729 1335 01       		.uleb128 0x1
 3730 1336 50       		.byte	0x50
 3731 1337 02       		.uleb128 0x2
 3732 1338 74       		.byte	0x74
 3733 1339 00       		.sleb128 0
 3734 133a 00       		.byte	0
 3735 133b 2E       		.uleb128 0x2e
 3736 133c 38000000 		.4byte	.LVL4
 3737 1340 A51D0000 		.4byte	0x1da5
 3738 1344 4F130000 		.4byte	0x134f
 3739 1348 2F       		.uleb128 0x2f
 3740 1349 01       		.uleb128 0x1
 3741 134a 50       		.byte	0x50
 3742 134b 02       		.uleb128 0x2
 3743 134c 74       		.byte	0x74
 3744 134d 00       		.sleb128 0
 3745 134e 00       		.byte	0
 3746 134f 2E       		.uleb128 0x2e
 3747 1350 48000000 		.4byte	.LVL5
 3748 1354 A51D0000 		.4byte	0x1da5
 3749 1358 63130000 		.4byte	0x1363
 3750 135c 2F       		.uleb128 0x2f
 3751 135d 01       		.uleb128 0x1
 3752 135e 50       		.byte	0x50
 3753 135f 02       		.uleb128 0x2
 3754 1360 74       		.byte	0x74
 3755 1361 00       		.sleb128 0
 3756 1362 00       		.byte	0
 3757 1363 2E       		.uleb128 0x2e
 3758 1364 58000000 		.4byte	.LVL6
 3759 1368 A51D0000 		.4byte	0x1da5
 3760 136c 77130000 		.4byte	0x1377
 3761 1370 2F       		.uleb128 0x2f
 3762 1371 01       		.uleb128 0x1
 3763 1372 50       		.byte	0x50
 3764 1373 02       		.uleb128 0x2
 3765 1374 74       		.byte	0x74
 3766 1375 00       		.sleb128 0
 3767 1376 00       		.byte	0
 3768 1377 2E       		.uleb128 0x2e
 3769 1378 68000000 		.4byte	.LVL7
ARM GAS  C:\Users\Brian\AppData\Local\Temp\ccNQoqIU.s 			page 92


 3770 137c A51D0000 		.4byte	0x1da5
 3771 1380 8B130000 		.4byte	0x138b
 3772 1384 2F       		.uleb128 0x2f
 3773 1385 01       		.uleb128 0x1
 3774 1386 50       		.byte	0x50
 3775 1387 02       		.uleb128 0x2
 3776 1388 74       		.byte	0x74
 3777 1389 00       		.sleb128 0
 3778 138a 00       		.byte	0
 3779 138b 2E       		.uleb128 0x2e
 3780 138c 78000000 		.4byte	.LVL8
 3781 1390 A51D0000 		.4byte	0x1da5
 3782 1394 9F130000 		.4byte	0x139f
 3783 1398 2F       		.uleb128 0x2f
 3784 1399 01       		.uleb128 0x1
 3785 139a 50       		.byte	0x50
 3786 139b 02       		.uleb128 0x2
 3787 139c 74       		.byte	0x74
 3788 139d 00       		.sleb128 0
 3789 139e 00       		.byte	0
 3790 139f 2E       		.uleb128 0x2e
 3791 13a0 88000000 		.4byte	.LVL9
 3792 13a4 A51D0000 		.4byte	0x1da5
 3793 13a8 B3130000 		.4byte	0x13b3
 3794 13ac 2F       		.uleb128 0x2f
 3795 13ad 01       		.uleb128 0x1
 3796 13ae 50       		.byte	0x50
 3797 13af 02       		.uleb128 0x2
 3798 13b0 74       		.byte	0x74
 3799 13b1 00       		.sleb128 0
 3800 13b2 00       		.byte	0
 3801 13b3 2E       		.uleb128 0x2e
 3802 13b4 98000000 		.4byte	.LVL10
 3803 13b8 A51D0000 		.4byte	0x1da5
 3804 13bc C7130000 		.4byte	0x13c7
 3805 13c0 2F       		.uleb128 0x2f
 3806 13c1 01       		.uleb128 0x1
 3807 13c2 50       		.byte	0x50
 3808 13c3 02       		.uleb128 0x2
 3809 13c4 74       		.byte	0x74
 3810 13c5 00       		.sleb128 0
 3811 13c6 00       		.byte	0
 3812 13c7 2E       		.uleb128 0x2e
 3813 13c8 A8000000 		.4byte	.LVL11
 3814 13cc A51D0000 		.4byte	0x1da5
 3815 13d0 DB130000 		.4byte	0x13db
 3816 13d4 2F       		.uleb128 0x2f
 3817 13d5 01       		.uleb128 0x1
 3818 13d6 50       		.byte	0x50
 3819 13d7 02       		.uleb128 0x2
 3820 13d8 74       		.byte	0x74
 3821 13d9 00       		.sleb128 0
 3822 13da 00       		.byte	0
 3823 13db 2E       		.uleb128 0x2e
 3824 13dc B8000000 		.4byte	.LVL12
 3825 13e0 A51D0000 		.4byte	0x1da5
 3826 13e4 EF130000 		.4byte	0x13ef
ARM GAS  C:\Users\Brian\AppData\Local\Temp\ccNQoqIU.s 			page 93


 3827 13e8 2F       		.uleb128 0x2f
 3828 13e9 01       		.uleb128 0x1
 3829 13ea 50       		.byte	0x50
 3830 13eb 02       		.uleb128 0x2
 3831 13ec 74       		.byte	0x74
 3832 13ed 00       		.sleb128 0
 3833 13ee 00       		.byte	0
 3834 13ef 2E       		.uleb128 0x2e
 3835 13f0 C8000000 		.4byte	.LVL13
 3836 13f4 A51D0000 		.4byte	0x1da5
 3837 13f8 03140000 		.4byte	0x1403
 3838 13fc 2F       		.uleb128 0x2f
 3839 13fd 01       		.uleb128 0x1
 3840 13fe 50       		.byte	0x50
 3841 13ff 02       		.uleb128 0x2
 3842 1400 74       		.byte	0x74
 3843 1401 00       		.sleb128 0
 3844 1402 00       		.byte	0
 3845 1403 2E       		.uleb128 0x2e
 3846 1404 D8000000 		.4byte	.LVL14
 3847 1408 A51D0000 		.4byte	0x1da5
 3848 140c 17140000 		.4byte	0x1417
 3849 1410 2F       		.uleb128 0x2f
 3850 1411 01       		.uleb128 0x1
 3851 1412 50       		.byte	0x50
 3852 1413 02       		.uleb128 0x2
 3853 1414 74       		.byte	0x74
 3854 1415 00       		.sleb128 0
 3855 1416 00       		.byte	0
 3856 1417 2E       		.uleb128 0x2e
 3857 1418 E8000000 		.4byte	.LVL15
 3858 141c A51D0000 		.4byte	0x1da5
 3859 1420 2B140000 		.4byte	0x142b
 3860 1424 2F       		.uleb128 0x2f
 3861 1425 01       		.uleb128 0x1
 3862 1426 50       		.byte	0x50
 3863 1427 02       		.uleb128 0x2
 3864 1428 74       		.byte	0x74
 3865 1429 00       		.sleb128 0
 3866 142a 00       		.byte	0
 3867 142b 2E       		.uleb128 0x2e
 3868 142c F8000000 		.4byte	.LVL18
 3869 1430 A51D0000 		.4byte	0x1da5
 3870 1434 3F140000 		.4byte	0x143f
 3871 1438 2F       		.uleb128 0x2f
 3872 1439 01       		.uleb128 0x1
 3873 143a 50       		.byte	0x50
 3874 143b 02       		.uleb128 0x2
 3875 143c 74       		.byte	0x74
 3876 143d 00       		.sleb128 0
 3877 143e 00       		.byte	0
 3878 143f 30       		.uleb128 0x30
 3879 1440 FE000000 		.4byte	.LVL19
 3880 1444 B01D0000 		.4byte	0x1db0
 3881 1448 2F       		.uleb128 0x2f
 3882 1449 01       		.uleb128 0x1
 3883 144a 50       		.byte	0x50
ARM GAS  C:\Users\Brian\AppData\Local\Temp\ccNQoqIU.s 			page 94


 3884 144b 05       		.uleb128 0x5
 3885 144c 03       		.byte	0x3
 3886 144d 00000000 		.4byte	.LC0
 3887 1451 00       		.byte	0
 3888 1452 00       		.byte	0
 3889 1453 31       		.uleb128 0x31
 3890 1454 DA020000 		.4byte	.LASF371
 3891 1458 01       		.byte	0x1
 3892 1459 1501     		.2byte	0x115
 3893 145b 00000000 		.4byte	.LFB446
 3894 145f 28000000 		.4byte	.LFE446-.LFB446
 3895 1463 01       		.uleb128 0x1
 3896 1464 9C       		.byte	0x9c
 3897 1465 B0140000 		.4byte	0x14b0
 3898 1469 32       		.uleb128 0x32
 3899 146a AB0B0000 		.4byte	.LASF373
 3900 146e 01       		.byte	0x1
 3901 146f 1501     		.2byte	0x115
 3902 1471 CE020000 		.4byte	0x2ce
 3903 1475 47000000 		.4byte	.LLST1
 3904 1479 33       		.uleb128 0x33
 3905 147a FC0B0000 		.4byte	.LASF374
 3906 147e 01       		.byte	0x1
 3907 147f 1701     		.2byte	0x117
 3908 1481 12110000 		.4byte	0x1112
 3909 1485 02       		.uleb128 0x2
 3910 1486 91       		.byte	0x91
 3911 1487 6C       		.sleb128 -20
 3912 1488 2E       		.uleb128 0x2e
 3913 1489 16000000 		.4byte	.LVL23
 3914 148d A51D0000 		.4byte	0x1da5
 3915 1491 9C140000 		.4byte	0x149c
 3916 1495 2F       		.uleb128 0x2f
 3917 1496 01       		.uleb128 0x1
 3918 1497 50       		.byte	0x50
 3919 1498 02       		.uleb128 0x2
 3920 1499 91       		.byte	0x91
 3921 149a 6C       		.sleb128 -20
 3922 149b 00       		.byte	0
 3923 149c 30       		.uleb128 0x30
 3924 149d 1E000000 		.4byte	.LVL24
 3925 14a1 BF1D0000 		.4byte	0x1dbf
 3926 14a5 2F       		.uleb128 0x2f
 3927 14a6 01       		.uleb128 0x1
 3928 14a7 50       		.byte	0x50
 3929 14a8 05       		.uleb128 0x5
 3930 14a9 03       		.byte	0x3
 3931 14aa 18000000 		.4byte	.LC2
 3932 14ae 00       		.byte	0
 3933 14af 00       		.byte	0
 3934 14b0 31       		.uleb128 0x31
 3935 14b1 30180000 		.4byte	.LASF375
 3936 14b5 01       		.byte	0x1
 3937 14b6 1F01     		.2byte	0x11f
 3938 14b8 00000000 		.4byte	.LFB447
 3939 14bc 1A000000 		.4byte	.LFE447-.LFB447
 3940 14c0 01       		.uleb128 0x1
ARM GAS  C:\Users\Brian\AppData\Local\Temp\ccNQoqIU.s 			page 95


 3941 14c1 9C       		.byte	0x9c
 3942 14c2 F6140000 		.4byte	0x14f6
 3943 14c6 32       		.uleb128 0x32
 3944 14c7 20010000 		.4byte	.LASF376
 3945 14cb 01       		.byte	0x1
 3946 14cc 1F01     		.2byte	0x11f
 3947 14ce CE020000 		.4byte	0x2ce
 3948 14d2 73000000 		.4byte	.LLST2
 3949 14d6 33       		.uleb128 0x33
 3950 14d7 FC0B0000 		.4byte	.LASF374
 3951 14db 01       		.byte	0x1
 3952 14dc 2101     		.2byte	0x121
 3953 14de 12110000 		.4byte	0x1112
 3954 14e2 02       		.uleb128 0x2
 3955 14e3 91       		.byte	0x91
 3956 14e4 6C       		.sleb128 -20
 3957 14e5 30       		.uleb128 0x30
 3958 14e6 16000000 		.4byte	.LVL28
 3959 14ea A51D0000 		.4byte	0x1da5
 3960 14ee 2F       		.uleb128 0x2f
 3961 14ef 01       		.uleb128 0x1
 3962 14f0 50       		.byte	0x50
 3963 14f1 02       		.uleb128 0x2
 3964 14f2 91       		.byte	0x91
 3965 14f3 6C       		.sleb128 -20
 3966 14f4 00       		.byte	0
 3967 14f5 00       		.byte	0
 3968 14f6 31       		.uleb128 0x31
 3969 14f7 31020000 		.4byte	.LASF377
 3970 14fb 01       		.byte	0x1
 3971 14fc 2801     		.2byte	0x128
 3972 14fe 00000000 		.4byte	.LFB448
 3973 1502 34000000 		.4byte	.LFE448-.LFB448
 3974 1506 01       		.uleb128 0x1
 3975 1507 9C       		.byte	0x9c
 3976 1508 63150000 		.4byte	0x1563
 3977 150c 32       		.uleb128 0x32
 3978 150d BB020000 		.4byte	.LASF378
 3979 1511 01       		.byte	0x1
 3980 1512 2801     		.2byte	0x128
 3981 1514 CE020000 		.4byte	0x2ce
 3982 1518 A0000000 		.4byte	.LLST3
 3983 151c 32       		.uleb128 0x32
 3984 151d 5D0E0000 		.4byte	.LASF379
 3985 1521 01       		.byte	0x1
 3986 1522 2801     		.2byte	0x128
 3987 1524 87020000 		.4byte	0x287
 3988 1528 CD000000 		.4byte	.LLST4
 3989 152c 33       		.uleb128 0x33
 3990 152d FC0B0000 		.4byte	.LASF374
 3991 1531 01       		.byte	0x1
 3992 1532 2A01     		.2byte	0x12a
 3993 1534 12110000 		.4byte	0x1112
 3994 1538 02       		.uleb128 0x2
 3995 1539 91       		.byte	0x91
 3996 153a 6C       		.sleb128 -20
 3997 153b 2E       		.uleb128 0x2e
ARM GAS  C:\Users\Brian\AppData\Local\Temp\ccNQoqIU.s 			page 96


 3998 153c 24000000 		.4byte	.LVL31
 3999 1540 A51D0000 		.4byte	0x1da5
 4000 1544 4F150000 		.4byte	0x154f
 4001 1548 2F       		.uleb128 0x2f
 4002 1549 01       		.uleb128 0x1
 4003 154a 50       		.byte	0x50
 4004 154b 02       		.uleb128 0x2
 4005 154c 91       		.byte	0x91
 4006 154d 6C       		.sleb128 -20
 4007 154e 00       		.byte	0
 4008 154f 30       		.uleb128 0x30
 4009 1550 2A000000 		.4byte	.LVL32
 4010 1554 B01D0000 		.4byte	0x1db0
 4011 1558 2F       		.uleb128 0x2f
 4012 1559 01       		.uleb128 0x1
 4013 155a 50       		.byte	0x50
 4014 155b 05       		.uleb128 0x5
 4015 155c 03       		.byte	0x3
 4016 155d 44000000 		.4byte	.LC4
 4017 1561 00       		.byte	0
 4018 1562 00       		.byte	0
 4019 1563 31       		.uleb128 0x31
 4020 1564 F01A0000 		.4byte	.LASF380
 4021 1568 01       		.byte	0x1
 4022 1569 3901     		.2byte	0x139
 4023 156b 00000000 		.4byte	.LFB449
 4024 156f 68000000 		.4byte	.LFE449-.LFB449
 4025 1573 01       		.uleb128 0x1
 4026 1574 9C       		.byte	0x9c
 4027 1575 DD150000 		.4byte	0x15dd
 4028 1579 33       		.uleb128 0x33
 4029 157a CF040000 		.4byte	.LASF381
 4030 157e 01       		.byte	0x1
 4031 157f 3B01     		.2byte	0x13b
 4032 1581 DD150000 		.4byte	0x15dd
 4033 1585 03       		.uleb128 0x3
 4034 1586 91       		.byte	0x91
 4035 1587 F87B     		.sleb128 -520
 4036 1589 34       		.uleb128 0x34
 4037 158a 8B080000 		.4byte	.LASF382
 4038 158e 01       		.byte	0x1
 4039 158f 4701     		.2byte	0x147
 4040 1591 2B040000 		.4byte	0x42b
 4041 1595 EE000000 		.4byte	.LLST5
 4042 1599 35       		.uleb128 0x35
 4043 159a 04000000 		.4byte	.LBB17
 4044 159e 14000000 		.4byte	.LBE17-.LBB17
 4045 15a2 B5150000 		.4byte	0x15b5
 4046 15a6 36       		.uleb128 0x36
 4047 15a7 6900     		.ascii	"i\000"
 4048 15a9 01       		.byte	0x1
 4049 15aa 3C01     		.2byte	0x13c
 4050 15ac 97000000 		.4byte	0x97
 4051 15b0 01010000 		.4byte	.LLST6
 4052 15b4 00       		.byte	0
 4053 15b5 2E       		.uleb128 0x2e
 4054 15b6 46000000 		.4byte	.LVL38
ARM GAS  C:\Users\Brian\AppData\Local\Temp\ccNQoqIU.s 			page 97


 4055 15ba CA1D0000 		.4byte	0x1dca
 4056 15be C9150000 		.4byte	0x15c9
 4057 15c2 2F       		.uleb128 0x2f
 4058 15c3 01       		.uleb128 0x1
 4059 15c4 51       		.byte	0x51
 4060 15c5 02       		.uleb128 0x2
 4061 15c6 7D       		.byte	0x7d
 4062 15c7 00       		.sleb128 0
 4063 15c8 00       		.byte	0
 4064 15c9 30       		.uleb128 0x30
 4065 15ca 50000000 		.4byte	.LVL40
 4066 15ce B01D0000 		.4byte	0x1db0
 4067 15d2 2F       		.uleb128 0x2f
 4068 15d3 01       		.uleb128 0x1
 4069 15d4 50       		.byte	0x50
 4070 15d5 05       		.uleb128 0x5
 4071 15d6 03       		.byte	0x3
 4072 15d7 64000000 		.4byte	.LC9
 4073 15db 00       		.byte	0
 4074 15dc 00       		.byte	0
 4075 15dd 07       		.uleb128 0x7
 4076 15de 8C000000 		.4byte	0x8c
 4077 15e2 EE150000 		.4byte	0x15ee
 4078 15e6 37       		.uleb128 0x37
 4079 15e7 AD000000 		.4byte	0xad
 4080 15eb FF01     		.2byte	0x1ff
 4081 15ed 00       		.byte	0
 4082 15ee 2B       		.uleb128 0x2b
 4083 15ef B6100000 		.4byte	.LASF383
 4084 15f3 01       		.byte	0x1
 4085 15f4 15       		.byte	0x15
 4086 15f5 00000000 		.4byte	.LFB443
 4087 15f9 F0010000 		.4byte	.LFE443-.LFB443
 4088 15fd 01       		.uleb128 0x1
 4089 15fe 9C       		.byte	0x9c
 4090 15ff 95180000 		.4byte	0x1895
 4091 1603 2C       		.uleb128 0x2c
 4092 1604 A60B0000 		.4byte	.LASF384
 4093 1608 01       		.byte	0x1
 4094 1609 15       		.byte	0x15
 4095 160a 95180000 		.4byte	0x1895
 4096 160e 2B010000 		.4byte	.LLST7
 4097 1612 38       		.uleb128 0x38
 4098 1613 A1120000 		.4byte	0x12a1
 4099 1617 0A000000 		.4byte	.LBB18
 4100 161b 02000000 		.4byte	.LBE18-.LBB18
 4101 161f 01       		.byte	0x1
 4102 1620 1B       		.byte	0x1b
 4103 1621 35       		.uleb128 0x35
 4104 1622 96000000 		.4byte	.LBB20
 4105 1626 4A000000 		.4byte	.LBE20-.LBB20
 4106 162a 53160000 		.4byte	0x1653
 4107 162e 39       		.uleb128 0x39
 4108 162f 6900     		.ascii	"i\000"
 4109 1631 01       		.byte	0x1
 4110 1632 3F       		.byte	0x3f
 4111 1633 8C000000 		.4byte	0x8c
ARM GAS  C:\Users\Brian\AppData\Local\Temp\ccNQoqIU.s 			page 98


 4112 1637 5B010000 		.4byte	.LLST8
 4113 163b 3A       		.uleb128 0x3a
 4114 163c AC000000 		.4byte	.LBB21
 4115 1640 2A000000 		.4byte	.LBE21-.LBB21
 4116 1644 39       		.uleb128 0x39
 4117 1645 6A00     		.ascii	"j\000"
 4118 1647 01       		.byte	0x1
 4119 1648 42       		.byte	0x42
 4120 1649 97000000 		.4byte	0x97
 4121 164d 85010000 		.4byte	.LLST9
 4122 1651 00       		.byte	0
 4123 1652 00       		.byte	0
 4124 1653 35       		.uleb128 0x35
 4125 1654 E0000000 		.4byte	.LBB22
 4126 1658 7A000000 		.4byte	.LBE22-.LBB22
 4127 165c 05170000 		.4byte	0x1705
 4128 1660 2D       		.uleb128 0x2d
 4129 1661 CF040000 		.4byte	.LASF381
 4130 1665 01       		.byte	0x1
 4131 1666 5E       		.byte	0x5e
 4132 1667 DD150000 		.4byte	0x15dd
 4133 166b 03       		.uleb128 0x3
 4134 166c 91       		.byte	0x91
 4135 166d E87B     		.sleb128 -536
 4136 166f 35       		.uleb128 0x35
 4137 1670 00010000 		.4byte	.LBB23
 4138 1674 28000000 		.4byte	.LBE23-.LBB23
 4139 1678 9D160000 		.4byte	0x169d
 4140 167c 39       		.uleb128 0x39
 4141 167d 6900     		.ascii	"i\000"
 4142 167f 01       		.byte	0x1
 4143 1680 54       		.byte	0x54
 4144 1681 8C000000 		.4byte	0x8c
 4145 1685 AF010000 		.4byte	.LLST10
 4146 1689 3B       		.uleb128 0x3b
 4147 168a 00000000 		.4byte	.Ldebug_ranges0+0
 4148 168e 39       		.uleb128 0x39
 4149 168f 6A00     		.ascii	"j\000"
 4150 1691 01       		.byte	0x1
 4151 1692 56       		.byte	0x56
 4152 1693 97000000 		.4byte	0x97
 4153 1697 D9010000 		.4byte	.LLST11
 4154 169b 00       		.byte	0
 4155 169c 00       		.byte	0
 4156 169d 35       		.uleb128 0x35
 4157 169e 2C010000 		.4byte	.LBB26
 4158 16a2 18000000 		.4byte	.LBE26-.LBB26
 4159 16a6 B8160000 		.4byte	0x16b8
 4160 16aa 39       		.uleb128 0x39
 4161 16ab 6900     		.ascii	"i\000"
 4162 16ad 01       		.byte	0x1
 4163 16ae 5F       		.byte	0x5f
 4164 16af 97000000 		.4byte	0x97
 4165 16b3 02020000 		.4byte	.LLST12
 4166 16b7 00       		.byte	0
 4167 16b8 35       		.uleb128 0x35
 4168 16b9 44010000 		.4byte	.LBB27
ARM GAS  C:\Users\Brian\AppData\Local\Temp\ccNQoqIU.s 			page 99


 4169 16bd 16000000 		.4byte	.LBE27-.LBB27
 4170 16c1 E4160000 		.4byte	0x16e4
 4171 16c5 39       		.uleb128 0x39
 4172 16c6 6900     		.ascii	"i\000"
 4173 16c8 01       		.byte	0x1
 4174 16c9 63       		.byte	0x63
 4175 16ca 8C000000 		.4byte	0x8c
 4176 16ce 2C020000 		.4byte	.LLST13
 4177 16d2 30       		.uleb128 0x30
 4178 16d3 52010000 		.4byte	.LVL77
 4179 16d7 CA1D0000 		.4byte	0x1dca
 4180 16db 2F       		.uleb128 0x2f
 4181 16dc 01       		.uleb128 0x1
 4182 16dd 51       		.byte	0x51
 4183 16de 03       		.uleb128 0x3
 4184 16df 91       		.byte	0x91
 4185 16e0 E87B     		.sleb128 -536
 4186 16e2 00       		.byte	0
 4187 16e3 00       		.byte	0
 4188 16e4 2E       		.uleb128 0x2e
 4189 16e5 E6000000 		.4byte	.LVL63
 4190 16e9 B01D0000 		.4byte	0x1db0
 4191 16ed FB160000 		.4byte	0x16fb
 4192 16f1 2F       		.uleb128 0x2f
 4193 16f2 01       		.uleb128 0x1
 4194 16f3 50       		.byte	0x50
 4195 16f4 05       		.uleb128 0x5
 4196 16f5 03       		.byte	0x3
 4197 16f6 84010000 		.4byte	.LC32
 4198 16fa 00       		.byte	0
 4199 16fb 3C       		.uleb128 0x3c
 4200 16fc 2C010000 		.4byte	.LVL72
 4201 1700 63150000 		.4byte	0x1563
 4202 1704 00       		.byte	0
 4203 1705 2E       		.uleb128 0x2e
 4204 1706 12000000 		.4byte	.LVL43
 4205 170a D61D0000 		.4byte	0x1dd6
 4206 170e 1C170000 		.4byte	0x171c
 4207 1712 2F       		.uleb128 0x2f
 4208 1713 01       		.uleb128 0x1
 4209 1714 50       		.byte	0x50
 4210 1715 05       		.uleb128 0x5
 4211 1716 0C       		.byte	0xc
 4212 1717 00000810 		.4byte	0x10080000
 4213 171b 00       		.byte	0
 4214 171c 3C       		.uleb128 0x3c
 4215 171d 16000000 		.4byte	.LVL44
 4216 1721 E21D0000 		.4byte	0x1de2
 4217 1725 2E       		.uleb128 0x2e
 4218 1726 26000000 		.4byte	.LVL45
 4219 172a ED1D0000 		.4byte	0x1ded
 4220 172e 42170000 		.4byte	0x1742
 4221 1732 2F       		.uleb128 0x2f
 4222 1733 01       		.uleb128 0x1
 4223 1734 51       		.byte	0x51
 4224 1735 01       		.uleb128 0x1
 4225 1736 30       		.byte	0x30
ARM GAS  C:\Users\Brian\AppData\Local\Temp\ccNQoqIU.s 			page 100


 4226 1737 2F       		.uleb128 0x2f
 4227 1738 01       		.uleb128 0x1
 4228 1739 52       		.byte	0x52
 4229 173a 01       		.uleb128 0x1
 4230 173b 32       		.byte	0x32
 4231 173c 2F       		.uleb128 0x2f
 4232 173d 01       		.uleb128 0x1
 4233 173e 53       		.byte	0x53
 4234 173f 01       		.uleb128 0x1
 4235 1740 30       		.byte	0x30
 4236 1741 00       		.byte	0
 4237 1742 2E       		.uleb128 0x2e
 4238 1743 2C000000 		.4byte	.LVL46
 4239 1747 B01D0000 		.4byte	0x1db0
 4240 174b 59170000 		.4byte	0x1759
 4241 174f 2F       		.uleb128 0x2f
 4242 1750 01       		.uleb128 0x1
 4243 1751 50       		.byte	0x50
 4244 1752 05       		.uleb128 0x5
 4245 1753 03       		.byte	0x3
 4246 1754 80000000 		.4byte	.LC13
 4247 1758 00       		.byte	0
 4248 1759 2E       		.uleb128 0x2e
 4249 175a 32000000 		.4byte	.LVL47
 4250 175e B01D0000 		.4byte	0x1db0
 4251 1762 70170000 		.4byte	0x1770
 4252 1766 2F       		.uleb128 0x2f
 4253 1767 01       		.uleb128 0x1
 4254 1768 50       		.byte	0x50
 4255 1769 05       		.uleb128 0x5
 4256 176a 03       		.byte	0x3
 4257 176b A8000000 		.4byte	.LC15
 4258 176f 00       		.byte	0
 4259 1770 2E       		.uleb128 0x2e
 4260 1771 38000000 		.4byte	.LVL48
 4261 1775 B01D0000 		.4byte	0x1db0
 4262 1779 87170000 		.4byte	0x1787
 4263 177d 2F       		.uleb128 0x2f
 4264 177e 01       		.uleb128 0x1
 4265 177f 50       		.byte	0x50
 4266 1780 05       		.uleb128 0x5
 4267 1781 03       		.byte	0x3
 4268 1782 D0000000 		.4byte	.LC17
 4269 1786 00       		.byte	0
 4270 1787 2E       		.uleb128 0x2e
 4271 1788 3E000000 		.4byte	.LVL49
 4272 178c B01D0000 		.4byte	0x1db0
 4273 1790 9E170000 		.4byte	0x179e
 4274 1794 2F       		.uleb128 0x2f
 4275 1795 01       		.uleb128 0x1
 4276 1796 50       		.byte	0x50
 4277 1797 05       		.uleb128 0x5
 4278 1798 03       		.byte	0x3
 4279 1799 F8000000 		.4byte	.LC19
 4280 179d 00       		.byte	0
 4281 179e 2E       		.uleb128 0x2e
 4282 179f 44000000 		.4byte	.LVL50
ARM GAS  C:\Users\Brian\AppData\Local\Temp\ccNQoqIU.s 			page 101


 4283 17a3 B01D0000 		.4byte	0x1db0
 4284 17a7 B5170000 		.4byte	0x17b5
 4285 17ab 2F       		.uleb128 0x2f
 4286 17ac 01       		.uleb128 0x1
 4287 17ad 50       		.byte	0x50
 4288 17ae 05       		.uleb128 0x5
 4289 17af 03       		.byte	0x3
 4290 17b0 20010000 		.4byte	.LC21
 4291 17b4 00       		.byte	0
 4292 17b5 2E       		.uleb128 0x2e
 4293 17b6 4A000000 		.4byte	.LVL51
 4294 17ba B01D0000 		.4byte	0x1db0
 4295 17be CC170000 		.4byte	0x17cc
 4296 17c2 2F       		.uleb128 0x2f
 4297 17c3 01       		.uleb128 0x1
 4298 17c4 50       		.byte	0x50
 4299 17c5 05       		.uleb128 0x5
 4300 17c6 03       		.byte	0x3
 4301 17c7 48010000 		.4byte	.LC23
 4302 17cb 00       		.byte	0
 4303 17cc 2E       		.uleb128 0x2e
 4304 17cd 54000000 		.4byte	.LVL52
 4305 17d1 F81D0000 		.4byte	0x1df8
 4306 17d5 E4170000 		.4byte	0x17e4
 4307 17d9 2F       		.uleb128 0x2f
 4308 17da 01       		.uleb128 0x1
 4309 17db 50       		.byte	0x50
 4310 17dc 01       		.uleb128 0x1
 4311 17dd 30       		.byte	0x30
 4312 17de 2F       		.uleb128 0x2f
 4313 17df 01       		.uleb128 0x1
 4314 17e0 52       		.byte	0x52
 4315 17e1 01       		.uleb128 0x1
 4316 17e2 31       		.byte	0x31
 4317 17e3 00       		.byte	0
 4318 17e4 2E       		.uleb128 0x2e
 4319 17e5 70000000 		.4byte	.LVL53
 4320 17e9 B01D0000 		.4byte	0x1db0
 4321 17ed FB170000 		.4byte	0x17fb
 4322 17f1 2F       		.uleb128 0x2f
 4323 17f2 01       		.uleb128 0x1
 4324 17f3 50       		.byte	0x50
 4325 17f4 05       		.uleb128 0x5
 4326 17f5 03       		.byte	0x3
 4327 17f6 70010000 		.4byte	.LC26
 4328 17fa 00       		.byte	0
 4329 17fb 2E       		.uleb128 0x2e
 4330 17fc 60010000 		.4byte	.LVL81
 4331 1800 031E0000 		.4byte	0x1e03
 4332 1804 12180000 		.4byte	0x1812
 4333 1808 2F       		.uleb128 0x2f
 4334 1809 01       		.uleb128 0x1
 4335 180a 50       		.byte	0x50
 4336 180b 05       		.uleb128 0x5
 4337 180c 03       		.byte	0x3
 4338 180d 00000000 		.4byte	BluetoothEventHandler
 4339 1811 00       		.byte	0
ARM GAS  C:\Users\Brian\AppData\Local\Temp\ccNQoqIU.s 			page 102


 4340 1812 3C       		.uleb128 0x3c
 4341 1813 66010000 		.4byte	.LVL82
 4342 1817 0E1E0000 		.4byte	0x1e0e
 4343 181b 2E       		.uleb128 0x2e
 4344 181c 78010000 		.4byte	.LVL83
 4345 1820 1A1E0000 		.4byte	0x1e1a
 4346 1824 34180000 		.4byte	0x1834
 4347 1828 2F       		.uleb128 0x2f
 4348 1829 01       		.uleb128 0x1
 4349 182a 50       		.byte	0x50
 4350 182b 02       		.uleb128 0x2
 4351 182c 75       		.byte	0x75
 4352 182d 00       		.sleb128 0
 4353 182e 2F       		.uleb128 0x2f
 4354 182f 01       		.uleb128 0x1
 4355 1830 51       		.byte	0x51
 4356 1831 01       		.uleb128 0x1
 4357 1832 32       		.byte	0x32
 4358 1833 00       		.byte	0
 4359 1834 2E       		.uleb128 0x2e
 4360 1835 82010000 		.4byte	.LVL84
 4361 1839 1A1E0000 		.4byte	0x1e1a
 4362 183d 4D180000 		.4byte	0x184d
 4363 1841 2F       		.uleb128 0x2f
 4364 1842 01       		.uleb128 0x1
 4365 1843 50       		.byte	0x50
 4366 1844 02       		.uleb128 0x2
 4367 1845 74       		.byte	0x74
 4368 1846 00       		.sleb128 0
 4369 1847 2F       		.uleb128 0x2f
 4370 1848 01       		.uleb128 0x1
 4371 1849 51       		.byte	0x51
 4372 184a 01       		.uleb128 0x1
 4373 184b 33       		.byte	0x33
 4374 184c 00       		.byte	0
 4375 184d 2E       		.uleb128 0x2e
 4376 184e 88010000 		.4byte	.LVL85
 4377 1852 53140000 		.4byte	0x1453
 4378 1856 64180000 		.4byte	0x1864
 4379 185a 2F       		.uleb128 0x2f
 4380 185b 01       		.uleb128 0x1
 4381 185c 50       		.byte	0x50
 4382 185d 05       		.uleb128 0x5
 4383 185e 03       		.byte	0x3
 4384 185f 00000000 		.4byte	num_events
 4385 1863 00       		.byte	0
 4386 1864 2E       		.uleb128 0x2e
 4387 1865 90010000 		.4byte	.LVL86
 4388 1869 F6140000 		.4byte	0x14f6
 4389 186d 7E180000 		.4byte	0x187e
 4390 1871 2F       		.uleb128 0x2f
 4391 1872 01       		.uleb128 0x1
 4392 1873 50       		.byte	0x50
 4393 1874 02       		.uleb128 0x2
 4394 1875 75       		.byte	0x75
 4395 1876 00       		.sleb128 0
 4396 1877 2F       		.uleb128 0x2f
ARM GAS  C:\Users\Brian\AppData\Local\Temp\ccNQoqIU.s 			page 103


 4397 1878 01       		.uleb128 0x1
 4398 1879 51       		.byte	0x51
 4399 187a 02       		.uleb128 0x2
 4400 187b 08       		.byte	0x8
 4401 187c 75       		.byte	0x75
 4402 187d 00       		.byte	0
 4403 187e 30       		.uleb128 0x30
 4404 187f 98010000 		.4byte	.LVL87
 4405 1883 F6140000 		.4byte	0x14f6
 4406 1887 2F       		.uleb128 0x2f
 4407 1888 01       		.uleb128 0x1
 4408 1889 50       		.byte	0x50
 4409 188a 02       		.uleb128 0x2
 4410 188b 74       		.byte	0x74
 4411 188c 00       		.sleb128 0
 4412 188d 2F       		.uleb128 0x2f
 4413 188e 01       		.uleb128 0x1
 4414 188f 51       		.byte	0x51
 4415 1890 02       		.uleb128 0x2
 4416 1891 08       		.byte	0x8
 4417 1892 6C       		.byte	0x6c
 4418 1893 00       		.byte	0
 4419 1894 00       		.byte	0
 4420 1895 0E       		.uleb128 0xe
 4421 1896 04       		.byte	0x4
 4422 1897 9B180000 		.4byte	0x189b
 4423 189b 0E       		.uleb128 0xe
 4424 189c 04       		.byte	0x4
 4425 189d A1180000 		.4byte	0x18a1
 4426 18a1 06       		.uleb128 0x6
 4427 18a2 9C020000 		.4byte	0x29c
 4428 18a6 2B       		.uleb128 0x2b
 4429 18a7 F8100000 		.4byte	.LASF385
 4430 18ab 01       		.byte	0x1
 4431 18ac 79       		.byte	0x79
 4432 18ad 00000000 		.4byte	.LFB444
 4433 18b1 6C010000 		.4byte	.LFE444-.LFB444
 4434 18b5 01       		.uleb128 0x1
 4435 18b6 9C       		.byte	0x9c
 4436 18b7 311B0000 		.4byte	0x1b31
 4437 18bb 2C       		.uleb128 0x2c
 4438 18bc 091A0000 		.4byte	.LASF386
 4439 18c0 01       		.byte	0x1
 4440 18c1 79       		.byte	0x79
 4441 18c2 A8020000 		.4byte	0x2a8
 4442 18c6 4A020000 		.4byte	.LLST14
 4443 18ca 2C       		.uleb128 0x2c
 4444 18cb B4010000 		.4byte	.LASF387
 4445 18cf 01       		.byte	0x1
 4446 18d0 79       		.byte	0x79
 4447 18d1 B4020000 		.4byte	0x2b4
 4448 18d5 1A030000 		.4byte	.LLST15
 4449 18d9 3D       		.uleb128 0x3d
 4450 18da D6180000 		.4byte	.LASF388
 4451 18de 01       		.byte	0x1
 4452 18df 7B       		.byte	0x7b
 4453 18e0 311B0000 		.4byte	0x1b31
ARM GAS  C:\Users\Brian\AppData\Local\Temp\ccNQoqIU.s 			page 104


 4454 18e4 E0030000 		.4byte	.LLST16
 4455 18e8 3E       		.uleb128 0x3e
 4456 18e9 A9120000 		.4byte	0x12a9
 4457 18ed 2A000000 		.4byte	.LBB28
 4458 18f1 06000000 		.4byte	.LBE28-.LBB28
 4459 18f5 01       		.byte	0x1
 4460 18f6 82       		.byte	0x82
 4461 18f7 17190000 		.4byte	0x1917
 4462 18fb 3F       		.uleb128 0x3f
 4463 18fc CE120000 		.4byte	0x12ce
 4464 1900 6C040000 		.4byte	.LLST17
 4465 1904 3F       		.uleb128 0x3f
 4466 1905 C2120000 		.4byte	0x12c2
 4467 1909 6C040000 		.4byte	.LLST17
 4468 190d 3F       		.uleb128 0x3f
 4469 190e B6120000 		.4byte	0x12b6
 4470 1912 80040000 		.4byte	.LLST19
 4471 1916 00       		.byte	0
 4472 1917 3E       		.uleb128 0x3e
 4473 1918 A9120000 		.4byte	0x12a9
 4474 191c 40000000 		.4byte	.LBB30
 4475 1920 08000000 		.4byte	.LBE30-.LBB30
 4476 1924 01       		.byte	0x1
 4477 1925 8A       		.byte	0x8a
 4478 1926 46190000 		.4byte	0x1946
 4479 192a 3F       		.uleb128 0x3f
 4480 192b CE120000 		.4byte	0x12ce
 4481 192f 98040000 		.4byte	.LLST20
 4482 1933 3F       		.uleb128 0x3f
 4483 1934 C2120000 		.4byte	0x12c2
 4484 1938 AC040000 		.4byte	.LLST21
 4485 193c 3F       		.uleb128 0x3f
 4486 193d B6120000 		.4byte	0x12b6
 4487 1941 C0040000 		.4byte	.LLST22
 4488 1945 00       		.byte	0
 4489 1946 35       		.uleb128 0x35
 4490 1947 4E000000 		.4byte	.LBB32
 4491 194b 2E000000 		.4byte	.LBE32-.LBB32
 4492 194f BB190000 		.4byte	0x19bb
 4493 1953 3D       		.uleb128 0x3d
 4494 1954 360A0000 		.4byte	.LASF389
 4495 1958 01       		.byte	0x1
 4496 1959 91       		.byte	0x91
 4497 195a B6020000 		.4byte	0x2b6
 4498 195e D8040000 		.4byte	.LLST23
 4499 1962 2E       		.uleb128 0x2e
 4500 1963 64000000 		.4byte	.LVL99
 4501 1967 B01D0000 		.4byte	0x1db0
 4502 196b 79190000 		.4byte	0x1979
 4503 196f 2F       		.uleb128 0x2f
 4504 1970 01       		.uleb128 0x1
 4505 1971 50       		.byte	0x50
 4506 1972 05       		.uleb128 0x5
 4507 1973 03       		.byte	0x3
 4508 1974 E8010000 		.4byte	.LC40
 4509 1978 00       		.byte	0
 4510 1979 2E       		.uleb128 0x2e
ARM GAS  C:\Users\Brian\AppData\Local\Temp\ccNQoqIU.s 			page 105


 4511 197a 6C000000 		.4byte	.LVL102
 4512 197e B01D0000 		.4byte	0x1db0
 4513 1982 90190000 		.4byte	0x1990
 4514 1986 2F       		.uleb128 0x2f
 4515 1987 01       		.uleb128 0x1
 4516 1988 50       		.byte	0x50
 4517 1989 05       		.uleb128 0x5
 4518 198a 03       		.byte	0x3
 4519 198b 08020000 		.4byte	.LC42
 4520 198f 00       		.byte	0
 4521 1990 2E       		.uleb128 0x2e
 4522 1991 72000000 		.4byte	.LVL103
 4523 1995 251E0000 		.4byte	0x1e25
 4524 1999 A4190000 		.4byte	0x19a4
 4525 199d 2F       		.uleb128 0x2f
 4526 199e 01       		.uleb128 0x1
 4527 199f 50       		.byte	0x50
 4528 19a0 02       		.uleb128 0x2
 4529 19a1 75       		.byte	0x75
 4530 19a2 00       		.sleb128 0
 4531 19a3 00       		.byte	0
 4532 19a4 30       		.uleb128 0x30
 4533 19a5 7C000000 		.4byte	.LVL104
 4534 19a9 301E0000 		.4byte	0x1e30
 4535 19ad 2F       		.uleb128 0x2f
 4536 19ae 01       		.uleb128 0x1
 4537 19af 50       		.byte	0x50
 4538 19b0 02       		.uleb128 0x2
 4539 19b1 74       		.byte	0x74
 4540 19b2 0C       		.sleb128 12
 4541 19b3 2F       		.uleb128 0x2f
 4542 19b4 01       		.uleb128 0x1
 4543 19b5 51       		.byte	0x51
 4544 19b6 02       		.uleb128 0x2
 4545 19b7 74       		.byte	0x74
 4546 19b8 00       		.sleb128 0
 4547 19b9 00       		.byte	0
 4548 19ba 00       		.byte	0
 4549 19bb 35       		.uleb128 0x35
 4550 19bc 82000000 		.4byte	.LBB33
 4551 19c0 32000000 		.4byte	.LBE33-.LBB33
 4552 19c4 271A0000 		.4byte	0x1a27
 4553 19c8 3D       		.uleb128 0x3d
 4554 19c9 5D140000 		.4byte	.LASF390
 4555 19cd 01       		.byte	0x1
 4556 19ce A1       		.byte	0xa1
 4557 19cf 97000000 		.4byte	0x97
 4558 19d3 EB040000 		.4byte	.LLST24
 4559 19d7 2E       		.uleb128 0x2e
 4560 19d8 98000000 		.4byte	.LVL109
 4561 19dc BF1D0000 		.4byte	0x1dbf
 4562 19e0 F4190000 		.4byte	0x19f4
 4563 19e4 2F       		.uleb128 0x2f
 4564 19e5 01       		.uleb128 0x1
 4565 19e6 50       		.byte	0x50
 4566 19e7 05       		.uleb128 0x5
 4567 19e8 03       		.byte	0x3
ARM GAS  C:\Users\Brian\AppData\Local\Temp\ccNQoqIU.s 			page 106


 4568 19e9 28020000 		.4byte	.LC45
 4569 19ed 2F       		.uleb128 0x2f
 4570 19ee 01       		.uleb128 0x1
 4571 19ef 51       		.byte	0x51
 4572 19f0 02       		.uleb128 0x2
 4573 19f1 75       		.byte	0x75
 4574 19f2 00       		.sleb128 0
 4575 19f3 00       		.byte	0
 4576 19f4 2E       		.uleb128 0x2e
 4577 19f5 A8000000 		.4byte	.LVL112
 4578 19f9 E1120000 		.4byte	0x12e1
 4579 19fd 101A0000 		.4byte	0x1a10
 4580 1a01 2F       		.uleb128 0x2f
 4581 1a02 01       		.uleb128 0x1
 4582 1a03 50       		.byte	0x50
 4583 1a04 0A       		.uleb128 0xa
 4584 1a05 75       		.byte	0x75
 4585 1a06 00       		.sleb128 0
 4586 1a07 36       		.byte	0x36
 4587 1a08 24       		.byte	0x24
 4588 1a09 03       		.byte	0x3
 4589 1a0a 00000000 		.4byte	events
 4590 1a0e 22       		.byte	0x22
 4591 1a0f 00       		.byte	0
 4592 1a10 30       		.uleb128 0x30
 4593 1a11 B2000000 		.4byte	.LVL113
 4594 1a15 301E0000 		.4byte	0x1e30
 4595 1a19 2F       		.uleb128 0x2f
 4596 1a1a 01       		.uleb128 0x1
 4597 1a1b 50       		.byte	0x50
 4598 1a1c 02       		.uleb128 0x2
 4599 1a1d 74       		.byte	0x74
 4600 1a1e 0C       		.sleb128 12
 4601 1a1f 2F       		.uleb128 0x2f
 4602 1a20 01       		.uleb128 0x1
 4603 1a21 51       		.byte	0x51
 4604 1a22 02       		.uleb128 0x2
 4605 1a23 74       		.byte	0x74
 4606 1a24 00       		.sleb128 0
 4607 1a25 00       		.byte	0
 4608 1a26 00       		.byte	0
 4609 1a27 2E       		.uleb128 0x2e
 4610 1a28 2A000000 		.4byte	.LVL90
 4611 1a2c B01D0000 		.4byte	0x1db0
 4612 1a30 3E1A0000 		.4byte	0x1a3e
 4613 1a34 2F       		.uleb128 0x2f
 4614 1a35 01       		.uleb128 0x1
 4615 1a36 50       		.byte	0x50
 4616 1a37 05       		.uleb128 0x5
 4617 1a38 03       		.byte	0x3
 4618 1a39 9C010000 		.4byte	.LC36
 4619 1a3d 00       		.byte	0
 4620 1a3e 2E       		.uleb128 0x2e
 4621 1a3f 38000000 		.4byte	.LVL92
 4622 1a43 3B1E0000 		.4byte	0x1e3b
 4623 1a47 561A0000 		.4byte	0x1a56
 4624 1a4b 2F       		.uleb128 0x2f
ARM GAS  C:\Users\Brian\AppData\Local\Temp\ccNQoqIU.s 			page 107


 4625 1a4c 01       		.uleb128 0x1
 4626 1a4d 50       		.byte	0x50
 4627 1a4e 01       		.uleb128 0x1
 4628 1a4f 30       		.byte	0x30
 4629 1a50 2F       		.uleb128 0x2f
 4630 1a51 01       		.uleb128 0x1
 4631 1a52 51       		.byte	0x51
 4632 1a53 01       		.uleb128 0x1
 4633 1a54 30       		.byte	0x30
 4634 1a55 00       		.byte	0
 4635 1a56 2E       		.uleb128 0x2e
 4636 1a57 40000000 		.4byte	.LVL95
 4637 1a5b B01D0000 		.4byte	0x1db0
 4638 1a5f 6D1A0000 		.4byte	0x1a6d
 4639 1a63 2F       		.uleb128 0x2f
 4640 1a64 01       		.uleb128 0x1
 4641 1a65 50       		.byte	0x50
 4642 1a66 05       		.uleb128 0x5
 4643 1a67 03       		.byte	0x3
 4644 1a68 D0010000 		.4byte	.LC38
 4645 1a6c 00       		.byte	0
 4646 1a6d 2E       		.uleb128 0x2e
 4647 1a6e BE000000 		.4byte	.LVL116
 4648 1a72 B01D0000 		.4byte	0x1db0
 4649 1a76 841A0000 		.4byte	0x1a84
 4650 1a7a 2F       		.uleb128 0x2f
 4651 1a7b 01       		.uleb128 0x1
 4652 1a7c 50       		.byte	0x50
 4653 1a7d 05       		.uleb128 0x5
 4654 1a7e 03       		.byte	0x3
 4655 1a7f 48020000 		.4byte	.LC48
 4656 1a83 00       		.byte	0
 4657 1a84 2E       		.uleb128 0x2e
 4658 1a85 C6000000 		.4byte	.LVL117
 4659 1a89 1A1E0000 		.4byte	0x1e1a
 4660 1a8d 971A0000 		.4byte	0x1a97
 4661 1a91 2F       		.uleb128 0x2f
 4662 1a92 01       		.uleb128 0x1
 4663 1a93 51       		.byte	0x51
 4664 1a94 01       		.uleb128 0x1
 4665 1a95 32       		.byte	0x32
 4666 1a96 00       		.byte	0
 4667 1a97 3C       		.uleb128 0x3c
 4668 1a98 D8000000 		.4byte	.LVL118
 4669 1a9c 63150000 		.4byte	0x1563
 4670 1aa0 2E       		.uleb128 0x2e
 4671 1aa1 E2000000 		.4byte	.LVL119
 4672 1aa5 301E0000 		.4byte	0x1e30
 4673 1aa9 BA1A0000 		.4byte	0x1aba
 4674 1aad 2F       		.uleb128 0x2f
 4675 1aae 01       		.uleb128 0x1
 4676 1aaf 50       		.byte	0x50
 4677 1ab0 02       		.uleb128 0x2
 4678 1ab1 74       		.byte	0x74
 4679 1ab2 0C       		.sleb128 12
 4680 1ab3 2F       		.uleb128 0x2f
 4681 1ab4 01       		.uleb128 0x1
ARM GAS  C:\Users\Brian\AppData\Local\Temp\ccNQoqIU.s 			page 108


 4682 1ab5 51       		.byte	0x51
 4683 1ab6 02       		.uleb128 0x2
 4684 1ab7 74       		.byte	0x74
 4685 1ab8 00       		.sleb128 0
 4686 1ab9 00       		.byte	0
 4687 1aba 2E       		.uleb128 0x2e
 4688 1abb EE000000 		.4byte	.LVL122
 4689 1abf B01D0000 		.4byte	0x1db0
 4690 1ac3 D11A0000 		.4byte	0x1ad1
 4691 1ac7 2F       		.uleb128 0x2f
 4692 1ac8 01       		.uleb128 0x1
 4693 1ac9 50       		.byte	0x50
 4694 1aca 05       		.uleb128 0x5
 4695 1acb 03       		.byte	0x3
 4696 1acc 68020000 		.4byte	.LC51
 4697 1ad0 00       		.byte	0
 4698 1ad1 2E       		.uleb128 0x2e
 4699 1ad2 F6000000 		.4byte	.LVL123
 4700 1ad6 1A1E0000 		.4byte	0x1e1a
 4701 1ada E41A0000 		.4byte	0x1ae4
 4702 1ade 2F       		.uleb128 0x2f
 4703 1adf 01       		.uleb128 0x1
 4704 1ae0 51       		.byte	0x51
 4705 1ae1 01       		.uleb128 0x1
 4706 1ae2 33       		.byte	0x33
 4707 1ae3 00       		.byte	0
 4708 1ae4 3C       		.uleb128 0x3c
 4709 1ae5 08010000 		.4byte	.LVL124
 4710 1ae9 63150000 		.4byte	0x1563
 4711 1aed 2E       		.uleb128 0x2e
 4712 1aee 12010000 		.4byte	.LVL125
 4713 1af2 301E0000 		.4byte	0x1e30
 4714 1af6 071B0000 		.4byte	0x1b07
 4715 1afa 2F       		.uleb128 0x2f
 4716 1afb 01       		.uleb128 0x1
 4717 1afc 50       		.byte	0x50
 4718 1afd 02       		.uleb128 0x2
 4719 1afe 74       		.byte	0x74
 4720 1aff 0C       		.sleb128 12
 4721 1b00 2F       		.uleb128 0x2f
 4722 1b01 01       		.uleb128 0x1
 4723 1b02 51       		.byte	0x51
 4724 1b03 02       		.uleb128 0x2
 4725 1b04 74       		.byte	0x74
 4726 1b05 00       		.sleb128 0
 4727 1b06 00       		.byte	0
 4728 1b07 2E       		.uleb128 0x2e
 4729 1b08 1E010000 		.4byte	.LVL128
 4730 1b0c B01D0000 		.4byte	0x1db0
 4731 1b10 1E1B0000 		.4byte	0x1b1e
 4732 1b14 2F       		.uleb128 0x2f
 4733 1b15 01       		.uleb128 0x1
 4734 1b16 50       		.byte	0x50
 4735 1b17 05       		.uleb128 0x5
 4736 1b18 03       		.byte	0x3
 4737 1b19 88020000 		.4byte	.LC54
 4738 1b1d 00       		.byte	0
ARM GAS  C:\Users\Brian\AppData\Local\Temp\ccNQoqIU.s 			page 109


 4739 1b1e 3C       		.uleb128 0x3c
 4740 1b1f 22010000 		.4byte	.LVL129
 4741 1b23 471E0000 		.4byte	0x1e47
 4742 1b27 3C       		.uleb128 0x3c
 4743 1b28 28010000 		.4byte	.LVL130
 4744 1b2c 521E0000 		.4byte	0x1e52
 4745 1b30 00       		.byte	0
 4746 1b31 0E       		.uleb128 0xe
 4747 1b32 04       		.byte	0x4
 4748 1b33 FB110000 		.4byte	0x11fb
 4749 1b37 31       		.uleb128 0x31
 4750 1b38 73200000 		.4byte	.LASF391
 4751 1b3c 01       		.byte	0x1
 4752 1b3d 4F01     		.2byte	0x14f
 4753 1b3f 00000000 		.4byte	.LFB450
 4754 1b43 D0000000 		.4byte	.LFE450-.LFB450
 4755 1b47 01       		.uleb128 0x1
 4756 1b48 9C       		.byte	0x9c
 4757 1b49 491C0000 		.4byte	0x1c49
 4758 1b4d 32       		.uleb128 0x32
 4759 1b4e 6F0D0000 		.4byte	.LASF392
 4760 1b52 01       		.byte	0x1
 4761 1b53 4F01     		.2byte	0x14f
 4762 1b55 CE020000 		.4byte	0x2ce
 4763 1b59 16050000 		.4byte	.LLST25
 4764 1b5d 35       		.uleb128 0x35
 4765 1b5e 10000000 		.4byte	.LBB34
 4766 1b62 90000000 		.4byte	.LBE34-.LBB34
 4767 1b66 351C0000 		.4byte	0x1c35
 4768 1b6a 33       		.uleb128 0x33
 4769 1b6b CF040000 		.4byte	.LASF381
 4770 1b6f 01       		.byte	0x1
 4771 1b70 5D01     		.2byte	0x15d
 4772 1b72 DD150000 		.4byte	0x15dd
 4773 1b76 03       		.uleb128 0x3
 4774 1b77 91       		.byte	0x91
 4775 1b78 F07B     		.sleb128 -528
 4776 1b7a 34       		.uleb128 0x34
 4777 1b7b 8B080000 		.4byte	.LASF382
 4778 1b7f 01       		.byte	0x1
 4779 1b80 6701     		.2byte	0x167
 4780 1b82 2B040000 		.4byte	0x42b
 4781 1b86 58050000 		.4byte	.LLST26
 4782 1b8a 35       		.uleb128 0x35
 4783 1b8b 1A000000 		.4byte	.LBB35
 4784 1b8f 30000000 		.4byte	.LBE35-.LBB35
 4785 1b93 A61B0000 		.4byte	0x1ba6
 4786 1b97 36       		.uleb128 0x36
 4787 1b98 6900     		.ascii	"i\000"
 4788 1b9a 01       		.byte	0x1
 4789 1b9b 5801     		.2byte	0x158
 4790 1b9d 97000000 		.4byte	0x97
 4791 1ba1 76050000 		.4byte	.LLST27
 4792 1ba5 00       		.byte	0
 4793 1ba6 35       		.uleb128 0x35
 4794 1ba7 4A000000 		.4byte	.LBB36
 4795 1bab 10000000 		.4byte	.LBE36-.LBB36
ARM GAS  C:\Users\Brian\AppData\Local\Temp\ccNQoqIU.s 			page 110


 4796 1baf C21B0000 		.4byte	0x1bc2
 4797 1bb3 36       		.uleb128 0x36
 4798 1bb4 6900     		.ascii	"i\000"
 4799 1bb6 01       		.byte	0x1
 4800 1bb7 5E01     		.2byte	0x15e
 4801 1bb9 97000000 		.4byte	0x97
 4802 1bbd A0050000 		.4byte	.LLST28
 4803 1bc1 00       		.byte	0
 4804 1bc2 35       		.uleb128 0x35
 4805 1bc3 60000000 		.4byte	.LBB37
 4806 1bc7 1A000000 		.4byte	.LBE37-.LBB37
 4807 1bcb DE1B0000 		.4byte	0x1bde
 4808 1bcf 36       		.uleb128 0x36
 4809 1bd0 6900     		.ascii	"i\000"
 4810 1bd2 01       		.byte	0x1
 4811 1bd3 6301     		.2byte	0x163
 4812 1bd5 97000000 		.4byte	0x97
 4813 1bd9 BE050000 		.4byte	.LLST29
 4814 1bdd 00       		.byte	0
 4815 1bde 2E       		.uleb128 0x2e
 4816 1bdf 1A000000 		.4byte	.LVL134
 4817 1be3 53140000 		.4byte	0x1453
 4818 1be7 F51B0000 		.4byte	0x1bf5
 4819 1beb 2F       		.uleb128 0x2f
 4820 1bec 01       		.uleb128 0x1
 4821 1bed 50       		.byte	0x50
 4822 1bee 05       		.uleb128 0x5
 4823 1bef 03       		.byte	0x3
 4824 1bf0 00000000 		.4byte	num_events
 4825 1bf4 00       		.byte	0
 4826 1bf5 2E       		.uleb128 0x2e
 4827 1bf6 8C000000 		.4byte	.LVL147
 4828 1bfa CA1D0000 		.4byte	0x1dca
 4829 1bfe 0A1C0000 		.4byte	0x1c0a
 4830 1c02 2F       		.uleb128 0x2f
 4831 1c03 01       		.uleb128 0x1
 4832 1c04 51       		.byte	0x51
 4833 1c05 03       		.uleb128 0x3
 4834 1c06 91       		.byte	0x91
 4835 1c07 F07B     		.sleb128 -528
 4836 1c09 00       		.byte	0
 4837 1c0a 2E       		.uleb128 0x2e
 4838 1c0b 96000000 		.4byte	.LVL149
 4839 1c0f B01D0000 		.4byte	0x1db0
 4840 1c13 211C0000 		.4byte	0x1c21
 4841 1c17 2F       		.uleb128 0x2f
 4842 1c18 01       		.uleb128 0x1
 4843 1c19 50       		.byte	0x50
 4844 1c1a 05       		.uleb128 0x5
 4845 1c1b 03       		.byte	0x3
 4846 1c1c 98020000 		.4byte	.LC59
 4847 1c20 00       		.byte	0
 4848 1c21 30       		.uleb128 0x30
 4849 1c22 9E000000 		.4byte	.LVL152
 4850 1c26 B01D0000 		.4byte	0x1db0
 4851 1c2a 2F       		.uleb128 0x2f
 4852 1c2b 01       		.uleb128 0x1
ARM GAS  C:\Users\Brian\AppData\Local\Temp\ccNQoqIU.s 			page 111


 4853 1c2c 50       		.byte	0x50
 4854 1c2d 05       		.uleb128 0x5
 4855 1c2e 03       		.byte	0x3
 4856 1c2f B4020000 		.4byte	.LC61
 4857 1c33 00       		.byte	0
 4858 1c34 00       		.byte	0
 4859 1c35 30       		.uleb128 0x30
 4860 1c36 A6000000 		.4byte	.LVL155
 4861 1c3a B01D0000 		.4byte	0x1db0
 4862 1c3e 2F       		.uleb128 0x2f
 4863 1c3f 01       		.uleb128 0x1
 4864 1c40 50       		.byte	0x50
 4865 1c41 05       		.uleb128 0x5
 4866 1c42 03       		.byte	0x3
 4867 1c43 D8020000 		.4byte	.LC63
 4868 1c47 00       		.byte	0
 4869 1c48 00       		.byte	0
 4870 1c49 31       		.uleb128 0x31
 4871 1c4a 95120000 		.4byte	.LASF393
 4872 1c4e 01       		.byte	0x1
 4873 1c4f 7801     		.2byte	0x178
 4874 1c51 00000000 		.4byte	.LFB451
 4875 1c55 18000000 		.4byte	.LFE451-.LFB451
 4876 1c59 01       		.uleb128 0x1
 4877 1c5a 9C       		.byte	0x9c
 4878 1c5b 8F1C0000 		.4byte	0x1c8f
 4879 1c5f 32       		.uleb128 0x32
 4880 1c60 03150000 		.4byte	.LASF394
 4881 1c64 01       		.byte	0x1
 4882 1c65 7801     		.2byte	0x178
 4883 1c67 CE020000 		.4byte	0x2ce
 4884 1c6b E8050000 		.4byte	.LLST30
 4885 1c6f 33       		.uleb128 0x33
 4886 1c70 5D030000 		.4byte	.LASF395
 4887 1c74 01       		.byte	0x1
 4888 1c75 7A01     		.2byte	0x17a
 4889 1c77 CE000000 		.4byte	0xce
 4890 1c7b 02       		.uleb128 0x2
 4891 1c7c 91       		.byte	0x91
 4892 1c7d 74       		.sleb128 -12
 4893 1c7e 30       		.uleb128 0x30
 4894 1c7f 14000000 		.4byte	.LVL159
 4895 1c83 B0140000 		.4byte	0x14b0
 4896 1c87 2F       		.uleb128 0x2f
 4897 1c88 01       		.uleb128 0x1
 4898 1c89 50       		.byte	0x50
 4899 1c8a 02       		.uleb128 0x2
 4900 1c8b 91       		.byte	0x91
 4901 1c8c 74       		.sleb128 -12
 4902 1c8d 00       		.byte	0
 4903 1c8e 00       		.byte	0
 4904 1c8f 40       		.uleb128 0x40
 4905 1c90 C5050000 		.4byte	.LASF396
 4906 1c94 0E       		.byte	0xe
 4907 1c95 FD02     		.2byte	0x2fd
 4908 1c97 EF080000 		.4byte	0x8ef
 4909 1c9b 40       		.uleb128 0x40
ARM GAS  C:\Users\Brian\AppData\Local\Temp\ccNQoqIU.s 			page 112


 4910 1c9c 53180000 		.4byte	.LASF397
 4911 1ca0 12       		.byte	0x12
 4912 1ca1 1B02     		.2byte	0x21b
 4913 1ca3 6D110000 		.4byte	0x116d
 4914 1ca7 40       		.uleb128 0x40
 4915 1ca8 76100000 		.4byte	.LASF398
 4916 1cac 12       		.byte	0x12
 4917 1cad 2202     		.2byte	0x222
 4918 1caf 9D110000 		.4byte	0x119d
 4919 1cb3 07       		.uleb128 0x7
 4920 1cb4 99100000 		.4byte	0x1099
 4921 1cb8 C31C0000 		.4byte	0x1cc3
 4922 1cbc 08       		.uleb128 0x8
 4923 1cbd AD000000 		.4byte	0xad
 4924 1cc1 00       		.byte	0
 4925 1cc2 00       		.byte	0
 4926 1cc3 40       		.uleb128 0x40
 4927 1cc4 64020000 		.4byte	.LASF399
 4928 1cc8 12       		.byte	0x12
 4929 1cc9 2C02     		.2byte	0x22c
 4930 1ccb B31C0000 		.4byte	0x1cb3
 4931 1ccf 07       		.uleb128 0x7
 4932 1cd0 E5110000 		.4byte	0x11e5
 4933 1cd4 DF1C0000 		.4byte	0x1cdf
 4934 1cd8 08       		.uleb128 0x8
 4935 1cd9 AD000000 		.4byte	0xad
 4936 1cdd 00       		.byte	0
 4937 1cde 00       		.byte	0
 4938 1cdf 40       		.uleb128 0x40
 4939 1ce0 F7030000 		.4byte	.LASF400
 4940 1ce4 12       		.byte	0x12
 4941 1ce5 2D02     		.2byte	0x22d
 4942 1ce7 CF1C0000 		.4byte	0x1ccf
 4943 1ceb 40       		.uleb128 0x40
 4944 1cec E5200000 		.4byte	.LASF401
 4945 1cf0 12       		.byte	0x12
 4946 1cf1 5202     		.2byte	0x252
 4947 1cf3 8C000000 		.4byte	0x8c
 4948 1cf7 41       		.uleb128 0x41
 4949 1cf8 DA1D0000 		.4byte	.LASF402
 4950 1cfc 16       		.byte	0x16
 4951 1cfd 87       		.byte	0x87
 4952 1cfe A4030000 		.4byte	0x3a4
 4953 1d02 40       		.uleb128 0x40
 4954 1d03 3B1D0000 		.4byte	.LASF403
 4955 1d07 14       		.byte	0x14
 4956 1d08 6001     		.2byte	0x160
 4957 1d0a A2000000 		.4byte	0xa2
 4958 1d0e 07       		.uleb128 0x7
 4959 1d0f 1E1D0000 		.4byte	0x1d1e
 4960 1d13 1E1D0000 		.4byte	0x1d1e
 4961 1d17 08       		.uleb128 0x8
 4962 1d18 AD000000 		.4byte	0xad
 4963 1d1c 00       		.byte	0
 4964 1d1d 00       		.byte	0
 4965 1d1e 06       		.uleb128 0x6
 4966 1d1f 56120000 		.4byte	0x1256
ARM GAS  C:\Users\Brian\AppData\Local\Temp\ccNQoqIU.s 			page 113


 4967 1d23 40       		.uleb128 0x40
 4968 1d24 6E170000 		.4byte	.LASF404
 4969 1d28 14       		.byte	0x14
 4970 1d29 6401     		.2byte	0x164
 4971 1d2b 2F1D0000 		.4byte	0x1d2f
 4972 1d2f 06       		.uleb128 0x6
 4973 1d30 0E1D0000 		.4byte	0x1d0e
 4974 1d34 42       		.uleb128 0x42
 4975 1d35 B3170000 		.4byte	.LASF405
 4976 1d39 01       		.byte	0x1
 4977 1d3a 0F       		.byte	0xf
 4978 1d3b 451D0000 		.4byte	0x1d45
 4979 1d3f 05       		.uleb128 0x5
 4980 1d40 03       		.byte	0x3
 4981 1d41 00000000 		.4byte	flashPtrs
 4982 1d45 0E       		.uleb128 0xe
 4983 1d46 04       		.byte	0x4
 4984 1d47 6A100000 		.4byte	0x106a
 4985 1d4b 07       		.uleb128 0x7
 4986 1d4c 97000000 		.4byte	0x97
 4987 1d50 611D0000 		.4byte	0x1d61
 4988 1d54 08       		.uleb128 0x8
 4989 1d55 AD000000 		.4byte	0xad
 4990 1d59 09       		.byte	0x9
 4991 1d5a 08       		.uleb128 0x8
 4992 1d5b AD000000 		.4byte	0xad
 4993 1d5f 9F       		.byte	0x9f
 4994 1d60 00       		.byte	0
 4995 1d61 42       		.uleb128 0x42
 4996 1d62 0E030000 		.4byte	.LASF406
 4997 1d66 01       		.byte	0x1
 4998 1d67 10       		.byte	0x10
 4999 1d68 4B1D0000 		.4byte	0x1d4b
 5000 1d6c 05       		.uleb128 0x5
 5001 1d6d 03       		.byte	0x3
 5002 1d6e 00000000 		.4byte	events
 5003 1d72 42       		.uleb128 0x42
 5004 1d73 25040000 		.4byte	.LASF407
 5005 1d77 01       		.byte	0x1
 5006 1d78 11       		.byte	0x11
 5007 1d79 8C000000 		.4byte	0x8c
 5008 1d7d 05       		.uleb128 0x5
 5009 1d7e 03       		.byte	0x3
 5010 1d7f 00000000 		.4byte	num_events
 5011 1d83 42       		.uleb128 0x42
 5012 1d84 48070000 		.4byte	.LASF408
 5013 1d88 01       		.byte	0x1
 5014 1d89 12       		.byte	0x12
 5015 1d8a CE000000 		.4byte	0xce
 5016 1d8e 05       		.uleb128 0x5
 5017 1d8f 03       		.byte	0x3
 5018 1d90 00000000 		.4byte	upper_thresh
 5019 1d94 42       		.uleb128 0x42
 5020 1d95 0F1D0000 		.4byte	.LASF409
 5021 1d99 01       		.byte	0x1
 5022 1d9a 13       		.byte	0x13
 5023 1d9b CE000000 		.4byte	0xce
ARM GAS  C:\Users\Brian\AppData\Local\Temp\ccNQoqIU.s 			page 114


 5024 1d9f 05       		.uleb128 0x5
 5025 1da0 03       		.byte	0x3
 5026 1da1 00000000 		.4byte	lower_thresh
 5027 1da5 43       		.uleb128 0x43
 5028 1da6 DC170000 		.4byte	.LASF410
 5029 1daa DC170000 		.4byte	.LASF410
 5030 1dae 17       		.byte	0x17
 5031 1daf D5       		.byte	0xd5
 5032 1db0 44       		.uleb128 0x44
 5033 1db1 20100000 		.4byte	.LASF430
 5034 1db5 B30F0000 		.4byte	.LASF431
 5035 1db9 1E       		.byte	0x1e
 5036 1dba 00       		.byte	0
 5037 1dbb 20100000 		.4byte	.LASF430
 5038 1dbf 43       		.uleb128 0x43
 5039 1dc0 0E110000 		.4byte	.LASF411
 5040 1dc4 0E110000 		.4byte	.LASF411
 5041 1dc8 18       		.byte	0x18
 5042 1dc9 BB       		.byte	0xbb
 5043 1dca 45       		.uleb128 0x45
 5044 1dcb FA0C0000 		.4byte	.LASF412
 5045 1dcf FA0C0000 		.4byte	.LASF412
 5046 1dd3 09       		.byte	0x9
 5047 1dd4 8D01     		.2byte	0x18d
 5048 1dd6 45       		.uleb128 0x45
 5049 1dd7 0C0D0000 		.4byte	.LASF413
 5050 1ddb 0C0D0000 		.4byte	.LASF413
 5051 1ddf 19       		.byte	0x19
 5052 1de0 FE01     		.2byte	0x1fe
 5053 1de2 43       		.uleb128 0x43
 5054 1de3 C1080000 		.4byte	.LASF414
 5055 1de7 C1080000 		.4byte	.LASF414
 5056 1deb 16       		.byte	0x16
 5057 1dec 31       		.byte	0x31
 5058 1ded 43       		.uleb128 0x43
 5059 1dee 1A020000 		.4byte	.LASF415
 5060 1df2 1A020000 		.4byte	.LASF415
 5061 1df6 18       		.byte	0x18
 5062 1df7 B6       		.byte	0xb6
 5063 1df8 43       		.uleb128 0x43
 5064 1df9 97010000 		.4byte	.LASF416
 5065 1dfd 97010000 		.4byte	.LASF416
 5066 1e01 1A       		.byte	0x1a
 5067 1e02 FE       		.byte	0xfe
 5068 1e03 43       		.uleb128 0x43
 5069 1e04 98130000 		.4byte	.LASF417
 5070 1e08 98130000 		.4byte	.LASF417
 5071 1e0c 1B       		.byte	0x1b
 5072 1e0d 24       		.byte	0x24
 5073 1e0e 45       		.uleb128 0x45
 5074 1e0f F40F0000 		.4byte	.LASF418
 5075 1e13 F40F0000 		.4byte	.LASF418
 5076 1e17 0F       		.byte	0xf
 5077 1e18 B107     		.2byte	0x7b1
 5078 1e1a 43       		.uleb128 0x43
 5079 1e1b 6C1F0000 		.4byte	.LASF419
 5080 1e1f 6C1F0000 		.4byte	.LASF419
ARM GAS  C:\Users\Brian\AppData\Local\Temp\ccNQoqIU.s 			page 115


 5081 1e23 1C       		.byte	0x1c
 5082 1e24 2F       		.byte	0x2f
 5083 1e25 43       		.uleb128 0x43
 5084 1e26 BF100000 		.4byte	.LASF420
 5085 1e2a BF100000 		.4byte	.LASF420
 5086 1e2e 1C       		.byte	0x1c
 5087 1e2f 42       		.byte	0x42
 5088 1e30 43       		.uleb128 0x43
 5089 1e31 15030000 		.4byte	.LASF421
 5090 1e35 15030000 		.4byte	.LASF421
 5091 1e39 17       		.byte	0x17
 5092 1e3a D3       		.byte	0xd3
 5093 1e3b 45       		.uleb128 0x45
 5094 1e3c F31B0000 		.4byte	.LASF422
 5095 1e40 F31B0000 		.4byte	.LASF422
 5096 1e44 12       		.byte	0x12
 5097 1e45 F901     		.2byte	0x1f9
 5098 1e47 43       		.uleb128 0x43
 5099 1e48 7E080000 		.4byte	.LASF423
 5100 1e4c 7E080000 		.4byte	.LASF423
 5101 1e50 1C       		.byte	0x1c
 5102 1e51 39       		.byte	0x39
 5103 1e52 45       		.uleb128 0x45
 5104 1e53 C6170000 		.4byte	.LASF424
 5105 1e57 C6170000 		.4byte	.LASF424
 5106 1e5b 1D       		.byte	0x1d
 5107 1e5c 5F01     		.2byte	0x15f
 5108 1e5e 00       		.byte	0
 5109              		.section	.debug_abbrev,"",%progbits
 5110              	.Ldebug_abbrev0:
 5111 0000 01       		.uleb128 0x1
 5112 0001 11       		.uleb128 0x11
 5113 0002 01       		.byte	0x1
 5114 0003 25       		.uleb128 0x25
 5115 0004 0E       		.uleb128 0xe
 5116 0005 13       		.uleb128 0x13
 5117 0006 0B       		.uleb128 0xb
 5118 0007 03       		.uleb128 0x3
 5119 0008 0E       		.uleb128 0xe
 5120 0009 1B       		.uleb128 0x1b
 5121 000a 0E       		.uleb128 0xe
 5122 000b 55       		.uleb128 0x55
 5123 000c 17       		.uleb128 0x17
 5124 000d 11       		.uleb128 0x11
 5125 000e 01       		.uleb128 0x1
 5126 000f 10       		.uleb128 0x10
 5127 0010 17       		.uleb128 0x17
 5128 0011 00       		.byte	0
 5129 0012 00       		.byte	0
 5130 0013 02       		.uleb128 0x2
 5131 0014 24       		.uleb128 0x24
 5132 0015 00       		.byte	0
 5133 0016 0B       		.uleb128 0xb
 5134 0017 0B       		.uleb128 0xb
 5135 0018 3E       		.uleb128 0x3e
 5136 0019 0B       		.uleb128 0xb
 5137 001a 03       		.uleb128 0x3
ARM GAS  C:\Users\Brian\AppData\Local\Temp\ccNQoqIU.s 			page 116


 5138 001b 0E       		.uleb128 0xe
 5139 001c 00       		.byte	0
 5140 001d 00       		.byte	0
 5141 001e 03       		.uleb128 0x3
 5142 001f 16       		.uleb128 0x16
 5143 0020 00       		.byte	0
 5144 0021 03       		.uleb128 0x3
 5145 0022 0E       		.uleb128 0xe
 5146 0023 3A       		.uleb128 0x3a
 5147 0024 0B       		.uleb128 0xb
 5148 0025 3B       		.uleb128 0x3b
 5149 0026 0B       		.uleb128 0xb
 5150 0027 49       		.uleb128 0x49
 5151 0028 13       		.uleb128 0x13
 5152 0029 00       		.byte	0
 5153 002a 00       		.byte	0
 5154 002b 04       		.uleb128 0x4
 5155 002c 24       		.uleb128 0x24
 5156 002d 00       		.byte	0
 5157 002e 0B       		.uleb128 0xb
 5158 002f 0B       		.uleb128 0xb
 5159 0030 3E       		.uleb128 0x3e
 5160 0031 0B       		.uleb128 0xb
 5161 0032 03       		.uleb128 0x3
 5162 0033 08       		.uleb128 0x8
 5163 0034 00       		.byte	0
 5164 0035 00       		.byte	0
 5165 0036 05       		.uleb128 0x5
 5166 0037 35       		.uleb128 0x35
 5167 0038 00       		.byte	0
 5168 0039 49       		.uleb128 0x49
 5169 003a 13       		.uleb128 0x13
 5170 003b 00       		.byte	0
 5171 003c 00       		.byte	0
 5172 003d 06       		.uleb128 0x6
 5173 003e 26       		.uleb128 0x26
 5174 003f 00       		.byte	0
 5175 0040 49       		.uleb128 0x49
 5176 0041 13       		.uleb128 0x13
 5177 0042 00       		.byte	0
 5178 0043 00       		.byte	0
 5179 0044 07       		.uleb128 0x7
 5180 0045 01       		.uleb128 0x1
 5181 0046 01       		.byte	0x1
 5182 0047 49       		.uleb128 0x49
 5183 0048 13       		.uleb128 0x13
 5184 0049 01       		.uleb128 0x1
 5185 004a 13       		.uleb128 0x13
 5186 004b 00       		.byte	0
 5187 004c 00       		.byte	0
 5188 004d 08       		.uleb128 0x8
 5189 004e 21       		.uleb128 0x21
 5190 004f 00       		.byte	0
 5191 0050 49       		.uleb128 0x49
 5192 0051 13       		.uleb128 0x13
 5193 0052 2F       		.uleb128 0x2f
 5194 0053 0B       		.uleb128 0xb
ARM GAS  C:\Users\Brian\AppData\Local\Temp\ccNQoqIU.s 			page 117


 5195 0054 00       		.byte	0
 5196 0055 00       		.byte	0
 5197 0056 09       		.uleb128 0x9
 5198 0057 13       		.uleb128 0x13
 5199 0058 01       		.byte	0x1
 5200 0059 0B       		.uleb128 0xb
 5201 005a 0B       		.uleb128 0xb
 5202 005b 3A       		.uleb128 0x3a
 5203 005c 0B       		.uleb128 0xb
 5204 005d 3B       		.uleb128 0x3b
 5205 005e 0B       		.uleb128 0xb
 5206 005f 01       		.uleb128 0x1
 5207 0060 13       		.uleb128 0x13
 5208 0061 00       		.byte	0
 5209 0062 00       		.byte	0
 5210 0063 0A       		.uleb128 0xa
 5211 0064 0D       		.uleb128 0xd
 5212 0065 00       		.byte	0
 5213 0066 03       		.uleb128 0x3
 5214 0067 08       		.uleb128 0x8
 5215 0068 3A       		.uleb128 0x3a
 5216 0069 0B       		.uleb128 0xb
 5217 006a 3B       		.uleb128 0x3b
 5218 006b 0B       		.uleb128 0xb
 5219 006c 49       		.uleb128 0x49
 5220 006d 13       		.uleb128 0x13
 5221 006e 38       		.uleb128 0x38
 5222 006f 0B       		.uleb128 0xb
 5223 0070 00       		.byte	0
 5224 0071 00       		.byte	0
 5225 0072 0B       		.uleb128 0xb
 5226 0073 0D       		.uleb128 0xd
 5227 0074 00       		.byte	0
 5228 0075 03       		.uleb128 0x3
 5229 0076 0E       		.uleb128 0xe
 5230 0077 3A       		.uleb128 0x3a
 5231 0078 0B       		.uleb128 0xb
 5232 0079 3B       		.uleb128 0x3b
 5233 007a 0B       		.uleb128 0xb
 5234 007b 49       		.uleb128 0x49
 5235 007c 13       		.uleb128 0x13
 5236 007d 38       		.uleb128 0x38
 5237 007e 0B       		.uleb128 0xb
 5238 007f 00       		.byte	0
 5239 0080 00       		.byte	0
 5240 0081 0C       		.uleb128 0xc
 5241 0082 13       		.uleb128 0x13
 5242 0083 01       		.byte	0x1
 5243 0084 0B       		.uleb128 0xb
 5244 0085 05       		.uleb128 0x5
 5245 0086 3A       		.uleb128 0x3a
 5246 0087 0B       		.uleb128 0xb
 5247 0088 3B       		.uleb128 0x3b
 5248 0089 0B       		.uleb128 0xb
 5249 008a 01       		.uleb128 0x1
 5250 008b 13       		.uleb128 0x13
 5251 008c 00       		.byte	0
ARM GAS  C:\Users\Brian\AppData\Local\Temp\ccNQoqIU.s 			page 118


 5252 008d 00       		.byte	0
 5253 008e 0D       		.uleb128 0xd
 5254 008f 0D       		.uleb128 0xd
 5255 0090 00       		.byte	0
 5256 0091 03       		.uleb128 0x3
 5257 0092 0E       		.uleb128 0xe
 5258 0093 3A       		.uleb128 0x3a
 5259 0094 0B       		.uleb128 0xb
 5260 0095 3B       		.uleb128 0x3b
 5261 0096 0B       		.uleb128 0xb
 5262 0097 49       		.uleb128 0x49
 5263 0098 13       		.uleb128 0x13
 5264 0099 38       		.uleb128 0x38
 5265 009a 05       		.uleb128 0x5
 5266 009b 00       		.byte	0
 5267 009c 00       		.byte	0
 5268 009d 0E       		.uleb128 0xe
 5269 009e 0F       		.uleb128 0xf
 5270 009f 00       		.byte	0
 5271 00a0 0B       		.uleb128 0xb
 5272 00a1 0B       		.uleb128 0xb
 5273 00a2 49       		.uleb128 0x49
 5274 00a3 13       		.uleb128 0x13
 5275 00a4 00       		.byte	0
 5276 00a5 00       		.byte	0
 5277 00a6 0F       		.uleb128 0xf
 5278 00a7 15       		.uleb128 0x15
 5279 00a8 00       		.byte	0
 5280 00a9 27       		.uleb128 0x27
 5281 00aa 19       		.uleb128 0x19
 5282 00ab 00       		.byte	0
 5283 00ac 00       		.byte	0
 5284 00ad 10       		.uleb128 0x10
 5285 00ae 16       		.uleb128 0x16
 5286 00af 00       		.byte	0
 5287 00b0 03       		.uleb128 0x3
 5288 00b1 0E       		.uleb128 0xe
 5289 00b2 3A       		.uleb128 0x3a
 5290 00b3 0B       		.uleb128 0xb
 5291 00b4 3B       		.uleb128 0x3b
 5292 00b5 05       		.uleb128 0x5
 5293 00b6 49       		.uleb128 0x49
 5294 00b7 13       		.uleb128 0x13
 5295 00b8 00       		.byte	0
 5296 00b9 00       		.byte	0
 5297 00ba 11       		.uleb128 0x11
 5298 00bb 0F       		.uleb128 0xf
 5299 00bc 00       		.byte	0
 5300 00bd 0B       		.uleb128 0xb
 5301 00be 0B       		.uleb128 0xb
 5302 00bf 00       		.byte	0
 5303 00c0 00       		.byte	0
 5304 00c1 12       		.uleb128 0x12
 5305 00c2 15       		.uleb128 0x15
 5306 00c3 01       		.byte	0x1
 5307 00c4 27       		.uleb128 0x27
 5308 00c5 19       		.uleb128 0x19
ARM GAS  C:\Users\Brian\AppData\Local\Temp\ccNQoqIU.s 			page 119


 5309 00c6 01       		.uleb128 0x1
 5310 00c7 13       		.uleb128 0x13
 5311 00c8 00       		.byte	0
 5312 00c9 00       		.byte	0
 5313 00ca 13       		.uleb128 0x13
 5314 00cb 05       		.uleb128 0x5
 5315 00cc 00       		.byte	0
 5316 00cd 49       		.uleb128 0x49
 5317 00ce 13       		.uleb128 0x13
 5318 00cf 00       		.byte	0
 5319 00d0 00       		.byte	0
 5320 00d1 14       		.uleb128 0x14
 5321 00d2 13       		.uleb128 0x13
 5322 00d3 01       		.byte	0x1
 5323 00d4 03       		.uleb128 0x3
 5324 00d5 0E       		.uleb128 0xe
 5325 00d6 0B       		.uleb128 0xb
 5326 00d7 0B       		.uleb128 0xb
 5327 00d8 3A       		.uleb128 0x3a
 5328 00d9 0B       		.uleb128 0xb
 5329 00da 3B       		.uleb128 0x3b
 5330 00db 05       		.uleb128 0x5
 5331 00dc 01       		.uleb128 0x1
 5332 00dd 13       		.uleb128 0x13
 5333 00de 00       		.byte	0
 5334 00df 00       		.byte	0
 5335 00e0 15       		.uleb128 0x15
 5336 00e1 0D       		.uleb128 0xd
 5337 00e2 00       		.byte	0
 5338 00e3 03       		.uleb128 0x3
 5339 00e4 0E       		.uleb128 0xe
 5340 00e5 3A       		.uleb128 0x3a
 5341 00e6 0B       		.uleb128 0xb
 5342 00e7 3B       		.uleb128 0x3b
 5343 00e8 05       		.uleb128 0x5
 5344 00e9 49       		.uleb128 0x49
 5345 00ea 13       		.uleb128 0x13
 5346 00eb 38       		.uleb128 0x38
 5347 00ec 0B       		.uleb128 0xb
 5348 00ed 00       		.byte	0
 5349 00ee 00       		.byte	0
 5350 00ef 16       		.uleb128 0x16
 5351 00f0 04       		.uleb128 0x4
 5352 00f1 01       		.byte	0x1
 5353 00f2 03       		.uleb128 0x3
 5354 00f3 0E       		.uleb128 0xe
 5355 00f4 0B       		.uleb128 0xb
 5356 00f5 0B       		.uleb128 0xb
 5357 00f6 49       		.uleb128 0x49
 5358 00f7 13       		.uleb128 0x13
 5359 00f8 3A       		.uleb128 0x3a
 5360 00f9 0B       		.uleb128 0xb
 5361 00fa 3B       		.uleb128 0x3b
 5362 00fb 05       		.uleb128 0x5
 5363 00fc 01       		.uleb128 0x1
 5364 00fd 13       		.uleb128 0x13
 5365 00fe 00       		.byte	0
ARM GAS  C:\Users\Brian\AppData\Local\Temp\ccNQoqIU.s 			page 120


 5366 00ff 00       		.byte	0
 5367 0100 17       		.uleb128 0x17
 5368 0101 28       		.uleb128 0x28
 5369 0102 00       		.byte	0
 5370 0103 03       		.uleb128 0x3
 5371 0104 0E       		.uleb128 0xe
 5372 0105 1C       		.uleb128 0x1c
 5373 0106 0B       		.uleb128 0xb
 5374 0107 00       		.byte	0
 5375 0108 00       		.byte	0
 5376 0109 18       		.uleb128 0x18
 5377 010a 28       		.uleb128 0x28
 5378 010b 00       		.byte	0
 5379 010c 03       		.uleb128 0x3
 5380 010d 0E       		.uleb128 0xe
 5381 010e 1C       		.uleb128 0x1c
 5382 010f 06       		.uleb128 0x6
 5383 0110 00       		.byte	0
 5384 0111 00       		.byte	0
 5385 0112 19       		.uleb128 0x19
 5386 0113 04       		.uleb128 0x4
 5387 0114 01       		.byte	0x1
 5388 0115 0B       		.uleb128 0xb
 5389 0116 0B       		.uleb128 0xb
 5390 0117 49       		.uleb128 0x49
 5391 0118 13       		.uleb128 0x13
 5392 0119 3A       		.uleb128 0x3a
 5393 011a 0B       		.uleb128 0xb
 5394 011b 3B       		.uleb128 0x3b
 5395 011c 05       		.uleb128 0x5
 5396 011d 01       		.uleb128 0x1
 5397 011e 13       		.uleb128 0x13
 5398 011f 00       		.byte	0
 5399 0120 00       		.byte	0
 5400 0121 1A       		.uleb128 0x1a
 5401 0122 13       		.uleb128 0x13
 5402 0123 01       		.byte	0x1
 5403 0124 0B       		.uleb128 0xb
 5404 0125 0B       		.uleb128 0xb
 5405 0126 3A       		.uleb128 0x3a
 5406 0127 0B       		.uleb128 0xb
 5407 0128 3B       		.uleb128 0x3b
 5408 0129 05       		.uleb128 0x5
 5409 012a 01       		.uleb128 0x1
 5410 012b 13       		.uleb128 0x13
 5411 012c 00       		.byte	0
 5412 012d 00       		.byte	0
 5413 012e 1B       		.uleb128 0x1b
 5414 012f 17       		.uleb128 0x17
 5415 0130 01       		.byte	0x1
 5416 0131 0B       		.uleb128 0xb
 5417 0132 0B       		.uleb128 0xb
 5418 0133 3A       		.uleb128 0x3a
 5419 0134 0B       		.uleb128 0xb
 5420 0135 3B       		.uleb128 0x3b
 5421 0136 0B       		.uleb128 0xb
 5422 0137 01       		.uleb128 0x1
ARM GAS  C:\Users\Brian\AppData\Local\Temp\ccNQoqIU.s 			page 121


 5423 0138 13       		.uleb128 0x13
 5424 0139 00       		.byte	0
 5425 013a 00       		.byte	0
 5426 013b 1C       		.uleb128 0x1c
 5427 013c 0D       		.uleb128 0xd
 5428 013d 00       		.byte	0
 5429 013e 03       		.uleb128 0x3
 5430 013f 0E       		.uleb128 0xe
 5431 0140 3A       		.uleb128 0x3a
 5432 0141 0B       		.uleb128 0xb
 5433 0142 3B       		.uleb128 0x3b
 5434 0143 0B       		.uleb128 0xb
 5435 0144 49       		.uleb128 0x49
 5436 0145 13       		.uleb128 0x13
 5437 0146 00       		.byte	0
 5438 0147 00       		.byte	0
 5439 0148 1D       		.uleb128 0x1d
 5440 0149 13       		.uleb128 0x13
 5441 014a 01       		.byte	0x1
 5442 014b 03       		.uleb128 0x3
 5443 014c 0E       		.uleb128 0xe
 5444 014d 0B       		.uleb128 0xb
 5445 014e 0B       		.uleb128 0xb
 5446 014f 3A       		.uleb128 0x3a
 5447 0150 0B       		.uleb128 0xb
 5448 0151 3B       		.uleb128 0x3b
 5449 0152 0B       		.uleb128 0xb
 5450 0153 01       		.uleb128 0x1
 5451 0154 13       		.uleb128 0x13
 5452 0155 00       		.byte	0
 5453 0156 00       		.byte	0
 5454 0157 1E       		.uleb128 0x1e
 5455 0158 13       		.uleb128 0x13
 5456 0159 01       		.byte	0x1
 5457 015a 03       		.uleb128 0x3
 5458 015b 0E       		.uleb128 0xe
 5459 015c 0B       		.uleb128 0xb
 5460 015d 05       		.uleb128 0x5
 5461 015e 3A       		.uleb128 0x3a
 5462 015f 0B       		.uleb128 0xb
 5463 0160 3B       		.uleb128 0x3b
 5464 0161 0B       		.uleb128 0xb
 5465 0162 01       		.uleb128 0x1
 5466 0163 13       		.uleb128 0x13
 5467 0164 00       		.byte	0
 5468 0165 00       		.byte	0
 5469 0166 1F       		.uleb128 0x1f
 5470 0167 15       		.uleb128 0x15
 5471 0168 01       		.byte	0x1
 5472 0169 27       		.uleb128 0x27
 5473 016a 19       		.uleb128 0x19
 5474 016b 49       		.uleb128 0x49
 5475 016c 13       		.uleb128 0x13
 5476 016d 01       		.uleb128 0x1
 5477 016e 13       		.uleb128 0x13
 5478 016f 00       		.byte	0
 5479 0170 00       		.byte	0
ARM GAS  C:\Users\Brian\AppData\Local\Temp\ccNQoqIU.s 			page 122


 5480 0171 20       		.uleb128 0x20
 5481 0172 13       		.uleb128 0x13
 5482 0173 01       		.byte	0x1
 5483 0174 03       		.uleb128 0x3
 5484 0175 0E       		.uleb128 0xe
 5485 0176 0B       		.uleb128 0xb
 5486 0177 05       		.uleb128 0x5
 5487 0178 3A       		.uleb128 0x3a
 5488 0179 0B       		.uleb128 0xb
 5489 017a 3B       		.uleb128 0x3b
 5490 017b 05       		.uleb128 0x5
 5491 017c 01       		.uleb128 0x1
 5492 017d 13       		.uleb128 0x13
 5493 017e 00       		.byte	0
 5494 017f 00       		.byte	0
 5495 0180 21       		.uleb128 0x21
 5496 0181 0D       		.uleb128 0xd
 5497 0182 00       		.byte	0
 5498 0183 03       		.uleb128 0x3
 5499 0184 0E       		.uleb128 0xe
 5500 0185 3A       		.uleb128 0x3a
 5501 0186 0B       		.uleb128 0xb
 5502 0187 3B       		.uleb128 0x3b
 5503 0188 05       		.uleb128 0x5
 5504 0189 49       		.uleb128 0x49
 5505 018a 13       		.uleb128 0x13
 5506 018b 38       		.uleb128 0x38
 5507 018c 05       		.uleb128 0x5
 5508 018d 00       		.byte	0
 5509 018e 00       		.byte	0
 5510 018f 22       		.uleb128 0x22
 5511 0190 17       		.uleb128 0x17
 5512 0191 01       		.byte	0x1
 5513 0192 0B       		.uleb128 0xb
 5514 0193 0B       		.uleb128 0xb
 5515 0194 3A       		.uleb128 0x3a
 5516 0195 0B       		.uleb128 0xb
 5517 0196 3B       		.uleb128 0x3b
 5518 0197 05       		.uleb128 0x5
 5519 0198 01       		.uleb128 0x1
 5520 0199 13       		.uleb128 0x13
 5521 019a 00       		.byte	0
 5522 019b 00       		.byte	0
 5523 019c 23       		.uleb128 0x23
 5524 019d 0D       		.uleb128 0xd
 5525 019e 00       		.byte	0
 5526 019f 03       		.uleb128 0x3
 5527 01a0 0E       		.uleb128 0xe
 5528 01a1 3A       		.uleb128 0x3a
 5529 01a2 0B       		.uleb128 0xb
 5530 01a3 3B       		.uleb128 0x3b
 5531 01a4 05       		.uleb128 0x5
 5532 01a5 49       		.uleb128 0x49
 5533 01a6 13       		.uleb128 0x13
 5534 01a7 00       		.byte	0
 5535 01a8 00       		.byte	0
 5536 01a9 24       		.uleb128 0x24
ARM GAS  C:\Users\Brian\AppData\Local\Temp\ccNQoqIU.s 			page 123


 5537 01aa 28       		.uleb128 0x28
 5538 01ab 00       		.byte	0
 5539 01ac 03       		.uleb128 0x3
 5540 01ad 0E       		.uleb128 0xe
 5541 01ae 1C       		.uleb128 0x1c
 5542 01af 05       		.uleb128 0x5
 5543 01b0 00       		.byte	0
 5544 01b1 00       		.byte	0
 5545 01b2 25       		.uleb128 0x25
 5546 01b3 0D       		.uleb128 0xd
 5547 01b4 00       		.byte	0
 5548 01b5 03       		.uleb128 0x3
 5549 01b6 08       		.uleb128 0x8
 5550 01b7 3A       		.uleb128 0x3a
 5551 01b8 0B       		.uleb128 0xb
 5552 01b9 3B       		.uleb128 0x3b
 5553 01ba 05       		.uleb128 0x5
 5554 01bb 49       		.uleb128 0x49
 5555 01bc 13       		.uleb128 0x13
 5556 01bd 38       		.uleb128 0x38
 5557 01be 0B       		.uleb128 0xb
 5558 01bf 00       		.byte	0
 5559 01c0 00       		.byte	0
 5560 01c1 26       		.uleb128 0x26
 5561 01c2 04       		.uleb128 0x4
 5562 01c3 01       		.byte	0x1
 5563 01c4 0B       		.uleb128 0xb
 5564 01c5 0B       		.uleb128 0xb
 5565 01c6 49       		.uleb128 0x49
 5566 01c7 13       		.uleb128 0x13
 5567 01c8 3A       		.uleb128 0x3a
 5568 01c9 0B       		.uleb128 0xb
 5569 01ca 3B       		.uleb128 0x3b
 5570 01cb 0B       		.uleb128 0xb
 5571 01cc 01       		.uleb128 0x1
 5572 01cd 13       		.uleb128 0x13
 5573 01ce 00       		.byte	0
 5574 01cf 00       		.byte	0
 5575 01d0 27       		.uleb128 0x27
 5576 01d1 04       		.uleb128 0x4
 5577 01d2 01       		.byte	0x1
 5578 01d3 03       		.uleb128 0x3
 5579 01d4 0E       		.uleb128 0xe
 5580 01d5 0B       		.uleb128 0xb
 5581 01d6 0B       		.uleb128 0xb
 5582 01d7 49       		.uleb128 0x49
 5583 01d8 13       		.uleb128 0x13
 5584 01d9 3A       		.uleb128 0x3a
 5585 01da 0B       		.uleb128 0xb
 5586 01db 3B       		.uleb128 0x3b
 5587 01dc 0B       		.uleb128 0xb
 5588 01dd 01       		.uleb128 0x1
 5589 01de 13       		.uleb128 0x13
 5590 01df 00       		.byte	0
 5591 01e0 00       		.byte	0
 5592 01e1 28       		.uleb128 0x28
 5593 01e2 2E       		.uleb128 0x2e
ARM GAS  C:\Users\Brian\AppData\Local\Temp\ccNQoqIU.s 			page 124


 5594 01e3 00       		.byte	0
 5595 01e4 03       		.uleb128 0x3
 5596 01e5 0E       		.uleb128 0xe
 5597 01e6 3A       		.uleb128 0x3a
 5598 01e7 0B       		.uleb128 0xb
 5599 01e8 3B       		.uleb128 0x3b
 5600 01e9 0B       		.uleb128 0xb
 5601 01ea 27       		.uleb128 0x27
 5602 01eb 19       		.uleb128 0x19
 5603 01ec 20       		.uleb128 0x20
 5604 01ed 0B       		.uleb128 0xb
 5605 01ee 00       		.byte	0
 5606 01ef 00       		.byte	0
 5607 01f0 29       		.uleb128 0x29
 5608 01f1 2E       		.uleb128 0x2e
 5609 01f2 01       		.byte	0x1
 5610 01f3 03       		.uleb128 0x3
 5611 01f4 0E       		.uleb128 0xe
 5612 01f5 3A       		.uleb128 0x3a
 5613 01f6 0B       		.uleb128 0xb
 5614 01f7 3B       		.uleb128 0x3b
 5615 01f8 05       		.uleb128 0x5
 5616 01f9 27       		.uleb128 0x27
 5617 01fa 19       		.uleb128 0x19
 5618 01fb 20       		.uleb128 0x20
 5619 01fc 0B       		.uleb128 0xb
 5620 01fd 01       		.uleb128 0x1
 5621 01fe 13       		.uleb128 0x13
 5622 01ff 00       		.byte	0
 5623 0200 00       		.byte	0
 5624 0201 2A       		.uleb128 0x2a
 5625 0202 05       		.uleb128 0x5
 5626 0203 00       		.byte	0
 5627 0204 03       		.uleb128 0x3
 5628 0205 0E       		.uleb128 0xe
 5629 0206 3A       		.uleb128 0x3a
 5630 0207 0B       		.uleb128 0xb
 5631 0208 3B       		.uleb128 0x3b
 5632 0209 05       		.uleb128 0x5
 5633 020a 49       		.uleb128 0x49
 5634 020b 13       		.uleb128 0x13
 5635 020c 00       		.byte	0
 5636 020d 00       		.byte	0
 5637 020e 2B       		.uleb128 0x2b
 5638 020f 2E       		.uleb128 0x2e
 5639 0210 01       		.byte	0x1
 5640 0211 3F       		.uleb128 0x3f
 5641 0212 19       		.uleb128 0x19
 5642 0213 03       		.uleb128 0x3
 5643 0214 0E       		.uleb128 0xe
 5644 0215 3A       		.uleb128 0x3a
 5645 0216 0B       		.uleb128 0xb
 5646 0217 3B       		.uleb128 0x3b
 5647 0218 0B       		.uleb128 0xb
 5648 0219 27       		.uleb128 0x27
 5649 021a 19       		.uleb128 0x19
 5650 021b 11       		.uleb128 0x11
ARM GAS  C:\Users\Brian\AppData\Local\Temp\ccNQoqIU.s 			page 125


 5651 021c 01       		.uleb128 0x1
 5652 021d 12       		.uleb128 0x12
 5653 021e 06       		.uleb128 0x6
 5654 021f 40       		.uleb128 0x40
 5655 0220 18       		.uleb128 0x18
 5656 0221 9742     		.uleb128 0x2117
 5657 0223 19       		.uleb128 0x19
 5658 0224 01       		.uleb128 0x1
 5659 0225 13       		.uleb128 0x13
 5660 0226 00       		.byte	0
 5661 0227 00       		.byte	0
 5662 0228 2C       		.uleb128 0x2c
 5663 0229 05       		.uleb128 0x5
 5664 022a 00       		.byte	0
 5665 022b 03       		.uleb128 0x3
 5666 022c 0E       		.uleb128 0xe
 5667 022d 3A       		.uleb128 0x3a
 5668 022e 0B       		.uleb128 0xb
 5669 022f 3B       		.uleb128 0x3b
 5670 0230 0B       		.uleb128 0xb
 5671 0231 49       		.uleb128 0x49
 5672 0232 13       		.uleb128 0x13
 5673 0233 02       		.uleb128 0x2
 5674 0234 17       		.uleb128 0x17
 5675 0235 00       		.byte	0
 5676 0236 00       		.byte	0
 5677 0237 2D       		.uleb128 0x2d
 5678 0238 34       		.uleb128 0x34
 5679 0239 00       		.byte	0
 5680 023a 03       		.uleb128 0x3
 5681 023b 0E       		.uleb128 0xe
 5682 023c 3A       		.uleb128 0x3a
 5683 023d 0B       		.uleb128 0xb
 5684 023e 3B       		.uleb128 0x3b
 5685 023f 0B       		.uleb128 0xb
 5686 0240 49       		.uleb128 0x49
 5687 0241 13       		.uleb128 0x13
 5688 0242 02       		.uleb128 0x2
 5689 0243 18       		.uleb128 0x18
 5690 0244 00       		.byte	0
 5691 0245 00       		.byte	0
 5692 0246 2E       		.uleb128 0x2e
 5693 0247 898201   		.uleb128 0x4109
 5694 024a 01       		.byte	0x1
 5695 024b 11       		.uleb128 0x11
 5696 024c 01       		.uleb128 0x1
 5697 024d 31       		.uleb128 0x31
 5698 024e 13       		.uleb128 0x13
 5699 024f 01       		.uleb128 0x1
 5700 0250 13       		.uleb128 0x13
 5701 0251 00       		.byte	0
 5702 0252 00       		.byte	0
 5703 0253 2F       		.uleb128 0x2f
 5704 0254 8A8201   		.uleb128 0x410a
 5705 0257 00       		.byte	0
 5706 0258 02       		.uleb128 0x2
 5707 0259 18       		.uleb128 0x18
ARM GAS  C:\Users\Brian\AppData\Local\Temp\ccNQoqIU.s 			page 126


 5708 025a 9142     		.uleb128 0x2111
 5709 025c 18       		.uleb128 0x18
 5710 025d 00       		.byte	0
 5711 025e 00       		.byte	0
 5712 025f 30       		.uleb128 0x30
 5713 0260 898201   		.uleb128 0x4109
 5714 0263 01       		.byte	0x1
 5715 0264 11       		.uleb128 0x11
 5716 0265 01       		.uleb128 0x1
 5717 0266 31       		.uleb128 0x31
 5718 0267 13       		.uleb128 0x13
 5719 0268 00       		.byte	0
 5720 0269 00       		.byte	0
 5721 026a 31       		.uleb128 0x31
 5722 026b 2E       		.uleb128 0x2e
 5723 026c 01       		.byte	0x1
 5724 026d 3F       		.uleb128 0x3f
 5725 026e 19       		.uleb128 0x19
 5726 026f 03       		.uleb128 0x3
 5727 0270 0E       		.uleb128 0xe
 5728 0271 3A       		.uleb128 0x3a
 5729 0272 0B       		.uleb128 0xb
 5730 0273 3B       		.uleb128 0x3b
 5731 0274 05       		.uleb128 0x5
 5732 0275 27       		.uleb128 0x27
 5733 0276 19       		.uleb128 0x19
 5734 0277 11       		.uleb128 0x11
 5735 0278 01       		.uleb128 0x1
 5736 0279 12       		.uleb128 0x12
 5737 027a 06       		.uleb128 0x6
 5738 027b 40       		.uleb128 0x40
 5739 027c 18       		.uleb128 0x18
 5740 027d 9742     		.uleb128 0x2117
 5741 027f 19       		.uleb128 0x19
 5742 0280 01       		.uleb128 0x1
 5743 0281 13       		.uleb128 0x13
 5744 0282 00       		.byte	0
 5745 0283 00       		.byte	0
 5746 0284 32       		.uleb128 0x32
 5747 0285 05       		.uleb128 0x5
 5748 0286 00       		.byte	0
 5749 0287 03       		.uleb128 0x3
 5750 0288 0E       		.uleb128 0xe
 5751 0289 3A       		.uleb128 0x3a
 5752 028a 0B       		.uleb128 0xb
 5753 028b 3B       		.uleb128 0x3b
 5754 028c 05       		.uleb128 0x5
 5755 028d 49       		.uleb128 0x49
 5756 028e 13       		.uleb128 0x13
 5757 028f 02       		.uleb128 0x2
 5758 0290 17       		.uleb128 0x17
 5759 0291 00       		.byte	0
 5760 0292 00       		.byte	0
 5761 0293 33       		.uleb128 0x33
 5762 0294 34       		.uleb128 0x34
 5763 0295 00       		.byte	0
 5764 0296 03       		.uleb128 0x3
ARM GAS  C:\Users\Brian\AppData\Local\Temp\ccNQoqIU.s 			page 127


 5765 0297 0E       		.uleb128 0xe
 5766 0298 3A       		.uleb128 0x3a
 5767 0299 0B       		.uleb128 0xb
 5768 029a 3B       		.uleb128 0x3b
 5769 029b 05       		.uleb128 0x5
 5770 029c 49       		.uleb128 0x49
 5771 029d 13       		.uleb128 0x13
 5772 029e 02       		.uleb128 0x2
 5773 029f 18       		.uleb128 0x18
 5774 02a0 00       		.byte	0
 5775 02a1 00       		.byte	0
 5776 02a2 34       		.uleb128 0x34
 5777 02a3 34       		.uleb128 0x34
 5778 02a4 00       		.byte	0
 5779 02a5 03       		.uleb128 0x3
 5780 02a6 0E       		.uleb128 0xe
 5781 02a7 3A       		.uleb128 0x3a
 5782 02a8 0B       		.uleb128 0xb
 5783 02a9 3B       		.uleb128 0x3b
 5784 02aa 05       		.uleb128 0x5
 5785 02ab 49       		.uleb128 0x49
 5786 02ac 13       		.uleb128 0x13
 5787 02ad 02       		.uleb128 0x2
 5788 02ae 17       		.uleb128 0x17
 5789 02af 00       		.byte	0
 5790 02b0 00       		.byte	0
 5791 02b1 35       		.uleb128 0x35
 5792 02b2 0B       		.uleb128 0xb
 5793 02b3 01       		.byte	0x1
 5794 02b4 11       		.uleb128 0x11
 5795 02b5 01       		.uleb128 0x1
 5796 02b6 12       		.uleb128 0x12
 5797 02b7 06       		.uleb128 0x6
 5798 02b8 01       		.uleb128 0x1
 5799 02b9 13       		.uleb128 0x13
 5800 02ba 00       		.byte	0
 5801 02bb 00       		.byte	0
 5802 02bc 36       		.uleb128 0x36
 5803 02bd 34       		.uleb128 0x34
 5804 02be 00       		.byte	0
 5805 02bf 03       		.uleb128 0x3
 5806 02c0 08       		.uleb128 0x8
 5807 02c1 3A       		.uleb128 0x3a
 5808 02c2 0B       		.uleb128 0xb
 5809 02c3 3B       		.uleb128 0x3b
 5810 02c4 05       		.uleb128 0x5
 5811 02c5 49       		.uleb128 0x49
 5812 02c6 13       		.uleb128 0x13
 5813 02c7 02       		.uleb128 0x2
 5814 02c8 17       		.uleb128 0x17
 5815 02c9 00       		.byte	0
 5816 02ca 00       		.byte	0
 5817 02cb 37       		.uleb128 0x37
 5818 02cc 21       		.uleb128 0x21
 5819 02cd 00       		.byte	0
 5820 02ce 49       		.uleb128 0x49
 5821 02cf 13       		.uleb128 0x13
ARM GAS  C:\Users\Brian\AppData\Local\Temp\ccNQoqIU.s 			page 128


 5822 02d0 2F       		.uleb128 0x2f
 5823 02d1 05       		.uleb128 0x5
 5824 02d2 00       		.byte	0
 5825 02d3 00       		.byte	0
 5826 02d4 38       		.uleb128 0x38
 5827 02d5 1D       		.uleb128 0x1d
 5828 02d6 00       		.byte	0
 5829 02d7 31       		.uleb128 0x31
 5830 02d8 13       		.uleb128 0x13
 5831 02d9 11       		.uleb128 0x11
 5832 02da 01       		.uleb128 0x1
 5833 02db 12       		.uleb128 0x12
 5834 02dc 06       		.uleb128 0x6
 5835 02dd 58       		.uleb128 0x58
 5836 02de 0B       		.uleb128 0xb
 5837 02df 59       		.uleb128 0x59
 5838 02e0 0B       		.uleb128 0xb
 5839 02e1 00       		.byte	0
 5840 02e2 00       		.byte	0
 5841 02e3 39       		.uleb128 0x39
 5842 02e4 34       		.uleb128 0x34
 5843 02e5 00       		.byte	0
 5844 02e6 03       		.uleb128 0x3
 5845 02e7 08       		.uleb128 0x8
 5846 02e8 3A       		.uleb128 0x3a
 5847 02e9 0B       		.uleb128 0xb
 5848 02ea 3B       		.uleb128 0x3b
 5849 02eb 0B       		.uleb128 0xb
 5850 02ec 49       		.uleb128 0x49
 5851 02ed 13       		.uleb128 0x13
 5852 02ee 02       		.uleb128 0x2
 5853 02ef 17       		.uleb128 0x17
 5854 02f0 00       		.byte	0
 5855 02f1 00       		.byte	0
 5856 02f2 3A       		.uleb128 0x3a
 5857 02f3 0B       		.uleb128 0xb
 5858 02f4 01       		.byte	0x1
 5859 02f5 11       		.uleb128 0x11
 5860 02f6 01       		.uleb128 0x1
 5861 02f7 12       		.uleb128 0x12
 5862 02f8 06       		.uleb128 0x6
 5863 02f9 00       		.byte	0
 5864 02fa 00       		.byte	0
 5865 02fb 3B       		.uleb128 0x3b
 5866 02fc 0B       		.uleb128 0xb
 5867 02fd 01       		.byte	0x1
 5868 02fe 55       		.uleb128 0x55
 5869 02ff 17       		.uleb128 0x17
 5870 0300 00       		.byte	0
 5871 0301 00       		.byte	0
 5872 0302 3C       		.uleb128 0x3c
 5873 0303 898201   		.uleb128 0x4109
 5874 0306 00       		.byte	0
 5875 0307 11       		.uleb128 0x11
 5876 0308 01       		.uleb128 0x1
 5877 0309 31       		.uleb128 0x31
 5878 030a 13       		.uleb128 0x13
ARM GAS  C:\Users\Brian\AppData\Local\Temp\ccNQoqIU.s 			page 129


 5879 030b 00       		.byte	0
 5880 030c 00       		.byte	0
 5881 030d 3D       		.uleb128 0x3d
 5882 030e 34       		.uleb128 0x34
 5883 030f 00       		.byte	0
 5884 0310 03       		.uleb128 0x3
 5885 0311 0E       		.uleb128 0xe
 5886 0312 3A       		.uleb128 0x3a
 5887 0313 0B       		.uleb128 0xb
 5888 0314 3B       		.uleb128 0x3b
 5889 0315 0B       		.uleb128 0xb
 5890 0316 49       		.uleb128 0x49
 5891 0317 13       		.uleb128 0x13
 5892 0318 02       		.uleb128 0x2
 5893 0319 17       		.uleb128 0x17
 5894 031a 00       		.byte	0
 5895 031b 00       		.byte	0
 5896 031c 3E       		.uleb128 0x3e
 5897 031d 1D       		.uleb128 0x1d
 5898 031e 01       		.byte	0x1
 5899 031f 31       		.uleb128 0x31
 5900 0320 13       		.uleb128 0x13
 5901 0321 11       		.uleb128 0x11
 5902 0322 01       		.uleb128 0x1
 5903 0323 12       		.uleb128 0x12
 5904 0324 06       		.uleb128 0x6
 5905 0325 58       		.uleb128 0x58
 5906 0326 0B       		.uleb128 0xb
 5907 0327 59       		.uleb128 0x59
 5908 0328 0B       		.uleb128 0xb
 5909 0329 01       		.uleb128 0x1
 5910 032a 13       		.uleb128 0x13
 5911 032b 00       		.byte	0
 5912 032c 00       		.byte	0
 5913 032d 3F       		.uleb128 0x3f
 5914 032e 05       		.uleb128 0x5
 5915 032f 00       		.byte	0
 5916 0330 31       		.uleb128 0x31
 5917 0331 13       		.uleb128 0x13
 5918 0332 02       		.uleb128 0x2
 5919 0333 17       		.uleb128 0x17
 5920 0334 00       		.byte	0
 5921 0335 00       		.byte	0
 5922 0336 40       		.uleb128 0x40
 5923 0337 34       		.uleb128 0x34
 5924 0338 00       		.byte	0
 5925 0339 03       		.uleb128 0x3
 5926 033a 0E       		.uleb128 0xe
 5927 033b 3A       		.uleb128 0x3a
 5928 033c 0B       		.uleb128 0xb
 5929 033d 3B       		.uleb128 0x3b
 5930 033e 05       		.uleb128 0x5
 5931 033f 49       		.uleb128 0x49
 5932 0340 13       		.uleb128 0x13
 5933 0341 3F       		.uleb128 0x3f
 5934 0342 19       		.uleb128 0x19
 5935 0343 3C       		.uleb128 0x3c
ARM GAS  C:\Users\Brian\AppData\Local\Temp\ccNQoqIU.s 			page 130


 5936 0344 19       		.uleb128 0x19
 5937 0345 00       		.byte	0
 5938 0346 00       		.byte	0
 5939 0347 41       		.uleb128 0x41
 5940 0348 34       		.uleb128 0x34
 5941 0349 00       		.byte	0
 5942 034a 03       		.uleb128 0x3
 5943 034b 0E       		.uleb128 0xe
 5944 034c 3A       		.uleb128 0x3a
 5945 034d 0B       		.uleb128 0xb
 5946 034e 3B       		.uleb128 0x3b
 5947 034f 0B       		.uleb128 0xb
 5948 0350 49       		.uleb128 0x49
 5949 0351 13       		.uleb128 0x13
 5950 0352 3F       		.uleb128 0x3f
 5951 0353 19       		.uleb128 0x19
 5952 0354 3C       		.uleb128 0x3c
 5953 0355 19       		.uleb128 0x19
 5954 0356 00       		.byte	0
 5955 0357 00       		.byte	0
 5956 0358 42       		.uleb128 0x42
 5957 0359 34       		.uleb128 0x34
 5958 035a 00       		.byte	0
 5959 035b 03       		.uleb128 0x3
 5960 035c 0E       		.uleb128 0xe
 5961 035d 3A       		.uleb128 0x3a
 5962 035e 0B       		.uleb128 0xb
 5963 035f 3B       		.uleb128 0x3b
 5964 0360 0B       		.uleb128 0xb
 5965 0361 49       		.uleb128 0x49
 5966 0362 13       		.uleb128 0x13
 5967 0363 3F       		.uleb128 0x3f
 5968 0364 19       		.uleb128 0x19
 5969 0365 02       		.uleb128 0x2
 5970 0366 18       		.uleb128 0x18
 5971 0367 00       		.byte	0
 5972 0368 00       		.byte	0
 5973 0369 43       		.uleb128 0x43
 5974 036a 2E       		.uleb128 0x2e
 5975 036b 00       		.byte	0
 5976 036c 3F       		.uleb128 0x3f
 5977 036d 19       		.uleb128 0x19
 5978 036e 3C       		.uleb128 0x3c
 5979 036f 19       		.uleb128 0x19
 5980 0370 6E       		.uleb128 0x6e
 5981 0371 0E       		.uleb128 0xe
 5982 0372 03       		.uleb128 0x3
 5983 0373 0E       		.uleb128 0xe
 5984 0374 3A       		.uleb128 0x3a
 5985 0375 0B       		.uleb128 0xb
 5986 0376 3B       		.uleb128 0x3b
 5987 0377 0B       		.uleb128 0xb
 5988 0378 00       		.byte	0
 5989 0379 00       		.byte	0
 5990 037a 44       		.uleb128 0x44
 5991 037b 2E       		.uleb128 0x2e
 5992 037c 00       		.byte	0
ARM GAS  C:\Users\Brian\AppData\Local\Temp\ccNQoqIU.s 			page 131


 5993 037d 3F       		.uleb128 0x3f
 5994 037e 19       		.uleb128 0x19
 5995 037f 3C       		.uleb128 0x3c
 5996 0380 19       		.uleb128 0x19
 5997 0381 6E       		.uleb128 0x6e
 5998 0382 0E       		.uleb128 0xe
 5999 0383 03       		.uleb128 0x3
 6000 0384 0E       		.uleb128 0xe
 6001 0385 3A       		.uleb128 0x3a
 6002 0386 0B       		.uleb128 0xb
 6003 0387 3B       		.uleb128 0x3b
 6004 0388 0B       		.uleb128 0xb
 6005 0389 6E       		.uleb128 0x6e
 6006 038a 0E       		.uleb128 0xe
 6007 038b 00       		.byte	0
 6008 038c 00       		.byte	0
 6009 038d 45       		.uleb128 0x45
 6010 038e 2E       		.uleb128 0x2e
 6011 038f 00       		.byte	0
 6012 0390 3F       		.uleb128 0x3f
 6013 0391 19       		.uleb128 0x19
 6014 0392 3C       		.uleb128 0x3c
 6015 0393 19       		.uleb128 0x19
 6016 0394 6E       		.uleb128 0x6e
 6017 0395 0E       		.uleb128 0xe
 6018 0396 03       		.uleb128 0x3
 6019 0397 0E       		.uleb128 0xe
 6020 0398 3A       		.uleb128 0x3a
 6021 0399 0B       		.uleb128 0xb
 6022 039a 3B       		.uleb128 0x3b
 6023 039b 05       		.uleb128 0x5
 6024 039c 00       		.byte	0
 6025 039d 00       		.byte	0
 6026 039e 00       		.byte	0
 6027              		.section	.debug_loc,"",%progbits
 6028              	.Ldebug_loc0:
 6029              	.LLST0:
 6030 0000 00000000 		.4byte	.LVL0
 6031 0004 14000000 		.4byte	.LVL1
 6032 0008 0100     		.2byte	0x1
 6033 000a 50       		.byte	0x50
 6034 000b 14000000 		.4byte	.LVL1
 6035 000f EE000000 		.4byte	.LVL16
 6036 0013 0100     		.2byte	0x1
 6037 0015 55       		.byte	0x55
 6038 0016 EE000000 		.4byte	.LVL16
 6039 001a F0000000 		.4byte	.LVL17
 6040 001e 0300     		.2byte	0x3
 6041 0020 75       		.byte	0x75
 6042 0021 67       		.sleb128 -25
 6043 0022 9F       		.byte	0x9f
 6044 0023 F0000000 		.4byte	.LVL17
 6045 0027 00010000 		.4byte	.LVL20
 6046 002b 0400     		.2byte	0x4
 6047 002d 75       		.byte	0x75
 6048 002e E87D     		.sleb128 -280
 6049 0030 9F       		.byte	0x9f
ARM GAS  C:\Users\Brian\AppData\Local\Temp\ccNQoqIU.s 			page 132


 6050 0031 00010000 		.4byte	.LVL20
 6051 0035 08010000 		.4byte	.LFE445
 6052 0039 0400     		.2byte	0x4
 6053 003b F3       		.byte	0xf3
 6054 003c 01       		.uleb128 0x1
 6055 003d 50       		.byte	0x50
 6056 003e 9F       		.byte	0x9f
 6057 003f 00000000 		.4byte	0
 6058 0043 00000000 		.4byte	0
 6059              	.LLST1:
 6060 0047 00000000 		.4byte	.LVL21
 6061 004b 08000000 		.4byte	.LVL22
 6062 004f 0100     		.2byte	0x1
 6063 0051 50       		.byte	0x50
 6064 0052 08000000 		.4byte	.LVL22
 6065 0056 20000000 		.4byte	.LVL25
 6066 005a 0100     		.2byte	0x1
 6067 005c 54       		.byte	0x54
 6068 005d 20000000 		.4byte	.LVL25
 6069 0061 28000000 		.4byte	.LFE446
 6070 0065 0400     		.2byte	0x4
 6071 0067 F3       		.byte	0xf3
 6072 0068 01       		.uleb128 0x1
 6073 0069 50       		.byte	0x50
 6074 006a 9F       		.byte	0x9f
 6075 006b 00000000 		.4byte	0
 6076 006f 00000000 		.4byte	0
 6077              	.LLST2:
 6078 0073 00000000 		.4byte	.LVL26
 6079 0077 12000000 		.4byte	.LVL27
 6080 007b 0100     		.2byte	0x1
 6081 007d 50       		.byte	0x50
 6082 007e 12000000 		.4byte	.LVL27
 6083 0082 15000000 		.4byte	.LVL28-1
 6084 0086 0200     		.2byte	0x2
 6085 0088 70       		.byte	0x70
 6086 0089 00       		.sleb128 0
 6087 008a 15000000 		.4byte	.LVL28-1
 6088 008e 1A000000 		.4byte	.LFE447
 6089 0092 0400     		.2byte	0x4
 6090 0094 F3       		.byte	0xf3
 6091 0095 01       		.uleb128 0x1
 6092 0096 50       		.byte	0x50
 6093 0097 9F       		.byte	0x9f
 6094 0098 00000000 		.4byte	0
 6095 009c 00000000 		.4byte	0
 6096              	.LLST3:
 6097 00a0 00000000 		.4byte	.LVL29
 6098 00a4 20000000 		.4byte	.LVL30
 6099 00a8 0100     		.2byte	0x1
 6100 00aa 50       		.byte	0x50
 6101 00ab 20000000 		.4byte	.LVL30
 6102 00af 23000000 		.4byte	.LVL31-1
 6103 00b3 0200     		.2byte	0x2
 6104 00b5 70       		.byte	0x70
 6105 00b6 00       		.sleb128 0
 6106 00b7 23000000 		.4byte	.LVL31-1
ARM GAS  C:\Users\Brian\AppData\Local\Temp\ccNQoqIU.s 			page 133


 6107 00bb 34000000 		.4byte	.LFE448
 6108 00bf 0400     		.2byte	0x4
 6109 00c1 F3       		.byte	0xf3
 6110 00c2 01       		.uleb128 0x1
 6111 00c3 50       		.byte	0x50
 6112 00c4 9F       		.byte	0x9f
 6113 00c5 00000000 		.4byte	0
 6114 00c9 00000000 		.4byte	0
 6115              	.LLST4:
 6116 00cd 00000000 		.4byte	.LVL29
 6117 00d1 23000000 		.4byte	.LVL31-1
 6118 00d5 0100     		.2byte	0x1
 6119 00d7 51       		.byte	0x51
 6120 00d8 23000000 		.4byte	.LVL31-1
 6121 00dc 34000000 		.4byte	.LFE448
 6122 00e0 0400     		.2byte	0x4
 6123 00e2 F3       		.byte	0xf3
 6124 00e3 01       		.uleb128 0x1
 6125 00e4 51       		.byte	0x51
 6126 00e5 9F       		.byte	0x9f
 6127 00e6 00000000 		.4byte	0
 6128 00ea 00000000 		.4byte	0
 6129              	.LLST5:
 6130 00ee 46000000 		.4byte	.LVL38
 6131 00f2 4C000000 		.4byte	.LVL39
 6132 00f6 0100     		.2byte	0x1
 6133 00f8 50       		.byte	0x50
 6134 00f9 00000000 		.4byte	0
 6135 00fd 00000000 		.4byte	0
 6136              	.LLST6:
 6137 0101 04000000 		.4byte	.LVL33
 6138 0105 08000000 		.4byte	.LVL34
 6139 0109 0200     		.2byte	0x2
 6140 010b 30       		.byte	0x30
 6141 010c 9F       		.byte	0x9f
 6142 010d 08000000 		.4byte	.LVL34
 6143 0111 10000000 		.4byte	.LVL35
 6144 0115 0100     		.2byte	0x1
 6145 0117 53       		.byte	0x53
 6146 0118 12000000 		.4byte	.LVL36
 6147 011c 1A000000 		.4byte	.LVL37
 6148 0120 0100     		.2byte	0x1
 6149 0122 53       		.byte	0x53
 6150 0123 00000000 		.4byte	0
 6151 0127 00000000 		.4byte	0
 6152              	.LLST7:
 6153 012b 00000000 		.4byte	.LVL41
 6154 012f 0E000000 		.4byte	.LVL42
 6155 0133 0100     		.2byte	0x1
 6156 0135 50       		.byte	0x50
 6157 0136 0E000000 		.4byte	.LVL42
 6158 013a 11000000 		.4byte	.LVL43-1
 6159 013e 0500     		.2byte	0x5
 6160 0140 03       		.byte	0x3
 6161 0141 00000000 		.4byte	flashPtrs
 6162 0145 11000000 		.4byte	.LVL43-1
 6163 0149 F0010000 		.4byte	.LFE443
ARM GAS  C:\Users\Brian\AppData\Local\Temp\ccNQoqIU.s 			page 134


 6164 014d 0400     		.2byte	0x4
 6165 014f F3       		.byte	0xf3
 6166 0150 01       		.uleb128 0x1
 6167 0151 50       		.byte	0x50
 6168 0152 9F       		.byte	0x9f
 6169 0153 00000000 		.4byte	0
 6170 0157 00000000 		.4byte	0
 6171              	.LLST8:
 6172 015b 96000000 		.4byte	.LVL54
 6173 015f 9A000000 		.4byte	.LVL55
 6174 0163 0200     		.2byte	0x2
 6175 0165 30       		.byte	0x30
 6176 0166 9F       		.byte	0x9f
 6177 0167 9A000000 		.4byte	.LVL55
 6178 016b D8000000 		.4byte	.LVL60
 6179 016f 0100     		.2byte	0x1
 6180 0171 54       		.byte	0x54
 6181 0172 DA000000 		.4byte	.LVL61
 6182 0176 E0000000 		.4byte	.LVL62
 6183 017a 0100     		.2byte	0x1
 6184 017c 54       		.byte	0x54
 6185 017d 00000000 		.4byte	0
 6186 0181 00000000 		.4byte	0
 6187              	.LLST9:
 6188 0185 AC000000 		.4byte	.LVL56
 6189 0189 B0000000 		.4byte	.LVL57
 6190 018d 0200     		.2byte	0x2
 6191 018f 30       		.byte	0x30
 6192 0190 9F       		.byte	0x9f
 6193 0191 B0000000 		.4byte	.LVL57
 6194 0195 D0000000 		.4byte	.LVL58
 6195 0199 0100     		.2byte	0x1
 6196 019b 53       		.byte	0x53
 6197 019c D2000000 		.4byte	.LVL59
 6198 01a0 DA000000 		.4byte	.LVL61
 6199 01a4 0100     		.2byte	0x1
 6200 01a6 53       		.byte	0x53
 6201 01a7 00000000 		.4byte	0
 6202 01ab 00000000 		.4byte	0
 6203              	.LLST10:
 6204 01af 00010000 		.4byte	.LVL64
 6205 01b3 04010000 		.4byte	.LVL65
 6206 01b7 0200     		.2byte	0x2
 6207 01b9 30       		.byte	0x30
 6208 01ba 9F       		.byte	0x9f
 6209 01bb 04010000 		.4byte	.LVL65
 6210 01bf 22010000 		.4byte	.LVL70
 6211 01c3 0100     		.2byte	0x1
 6212 01c5 50       		.byte	0x50
 6213 01c6 24010000 		.4byte	.LVL71
 6214 01ca 2B010000 		.4byte	.LVL72-1
 6215 01ce 0100     		.2byte	0x1
 6216 01d0 50       		.byte	0x50
 6217 01d1 00000000 		.4byte	0
 6218 01d5 00000000 		.4byte	0
 6219              	.LLST11:
 6220 01d9 04010000 		.4byte	.LVL65
ARM GAS  C:\Users\Brian\AppData\Local\Temp\ccNQoqIU.s 			page 135


 6221 01dd 16010000 		.4byte	.LVL66
 6222 01e1 0100     		.2byte	0x1
 6223 01e3 52       		.byte	0x52
 6224 01e4 18010000 		.4byte	.LVL67
 6225 01e8 1A010000 		.4byte	.LVL68
 6226 01ec 0100     		.2byte	0x1
 6227 01ee 52       		.byte	0x52
 6228 01ef 1C010000 		.4byte	.LVL69
 6229 01f3 24010000 		.4byte	.LVL71
 6230 01f7 0100     		.2byte	0x1
 6231 01f9 52       		.byte	0x52
 6232 01fa 00000000 		.4byte	0
 6233 01fe 00000000 		.4byte	0
 6234              	.LLST12:
 6235 0202 2C010000 		.4byte	.LVL72
 6236 0206 30010000 		.4byte	.LVL73
 6237 020a 0200     		.2byte	0x2
 6238 020c 30       		.byte	0x30
 6239 020d 9F       		.byte	0x9f
 6240 020e 30010000 		.4byte	.LVL73
 6241 0212 38010000 		.4byte	.LVL74
 6242 0216 0100     		.2byte	0x1
 6243 0218 53       		.byte	0x53
 6244 0219 3A010000 		.4byte	.LVL75
 6245 021d 44010000 		.4byte	.LVL76
 6246 0221 0100     		.2byte	0x1
 6247 0223 53       		.byte	0x53
 6248 0224 00000000 		.4byte	0
 6249 0228 00000000 		.4byte	0
 6250              	.LLST13:
 6251 022c 44010000 		.4byte	.LVL76
 6252 0230 54010000 		.4byte	.LVL78
 6253 0234 0100     		.2byte	0x1
 6254 0236 54       		.byte	0x54
 6255 0237 56010000 		.4byte	.LVL79
 6256 023b 5A010000 		.4byte	.LVL80
 6257 023f 0100     		.2byte	0x1
 6258 0241 54       		.byte	0x54
 6259 0242 00000000 		.4byte	0
 6260 0246 00000000 		.4byte	0
 6261              	.LLST14:
 6262 024a 00000000 		.4byte	.LVL88
 6263 024e 26000000 		.4byte	.LVL89
 6264 0252 0100     		.2byte	0x1
 6265 0254 50       		.byte	0x50
 6266 0255 26000000 		.4byte	.LVL89
 6267 0259 3A000000 		.4byte	.LVL93
 6268 025d 0400     		.2byte	0x4
 6269 025f F3       		.byte	0xf3
 6270 0260 01       		.uleb128 0x1
 6271 0261 50       		.byte	0x50
 6272 0262 9F       		.byte	0x9f
 6273 0263 3A000000 		.4byte	.LVL93
 6274 0267 3C000000 		.4byte	.LVL94
 6275 026b 0100     		.2byte	0x1
 6276 026d 50       		.byte	0x50
 6277 026e 3C000000 		.4byte	.LVL94
ARM GAS  C:\Users\Brian\AppData\Local\Temp\ccNQoqIU.s 			page 136


 6278 0272 48000000 		.4byte	.LVL96
 6279 0276 0400     		.2byte	0x4
 6280 0278 F3       		.byte	0xf3
 6281 0279 01       		.uleb128 0x1
 6282 027a 50       		.byte	0x50
 6283 027b 9F       		.byte	0x9f
 6284 027c 48000000 		.4byte	.LVL96
 6285 0280 60000000 		.4byte	.LVL98
 6286 0284 0100     		.2byte	0x1
 6287 0286 50       		.byte	0x50
 6288 0287 60000000 		.4byte	.LVL98
 6289 028b 66000000 		.4byte	.LVL100
 6290 028f 0400     		.2byte	0x4
 6291 0291 F3       		.byte	0xf3
 6292 0292 01       		.uleb128 0x1
 6293 0293 50       		.byte	0x50
 6294 0294 9F       		.byte	0x9f
 6295 0295 66000000 		.4byte	.LVL100
 6296 0299 68000000 		.4byte	.LVL101
 6297 029d 0100     		.2byte	0x1
 6298 029f 50       		.byte	0x50
 6299 02a0 68000000 		.4byte	.LVL101
 6300 02a4 7E000000 		.4byte	.LVL105
 6301 02a8 0400     		.2byte	0x4
 6302 02aa F3       		.byte	0xf3
 6303 02ab 01       		.uleb128 0x1
 6304 02ac 50       		.byte	0x50
 6305 02ad 9F       		.byte	0x9f
 6306 02ae 7E000000 		.4byte	.LVL105
 6307 02b2 94000000 		.4byte	.LVL108
 6308 02b6 0100     		.2byte	0x1
 6309 02b8 50       		.byte	0x50
 6310 02b9 94000000 		.4byte	.LVL108
 6311 02bd B4000000 		.4byte	.LVL114
 6312 02c1 0400     		.2byte	0x4
 6313 02c3 F3       		.byte	0xf3
 6314 02c4 01       		.uleb128 0x1
 6315 02c5 50       		.byte	0x50
 6316 02c6 9F       		.byte	0x9f
 6317 02c7 B4000000 		.4byte	.LVL114
 6318 02cb BA000000 		.4byte	.LVL115
 6319 02cf 0100     		.2byte	0x1
 6320 02d1 50       		.byte	0x50
 6321 02d2 BA000000 		.4byte	.LVL115
 6322 02d6 E4000000 		.4byte	.LVL120
 6323 02da 0400     		.2byte	0x4
 6324 02dc F3       		.byte	0xf3
 6325 02dd 01       		.uleb128 0x1
 6326 02de 50       		.byte	0x50
 6327 02df 9F       		.byte	0x9f
 6328 02e0 E4000000 		.4byte	.LVL120
 6329 02e4 EA000000 		.4byte	.LVL121
 6330 02e8 0100     		.2byte	0x1
 6331 02ea 50       		.byte	0x50
 6332 02eb EA000000 		.4byte	.LVL121
 6333 02ef 14010000 		.4byte	.LVL126
 6334 02f3 0400     		.2byte	0x4
ARM GAS  C:\Users\Brian\AppData\Local\Temp\ccNQoqIU.s 			page 137


 6335 02f5 F3       		.byte	0xf3
 6336 02f6 01       		.uleb128 0x1
 6337 02f7 50       		.byte	0x50
 6338 02f8 9F       		.byte	0x9f
 6339 02f9 14010000 		.4byte	.LVL126
 6340 02fd 1A010000 		.4byte	.LVL127
 6341 0301 0100     		.2byte	0x1
 6342 0303 50       		.byte	0x50
 6343 0304 1A010000 		.4byte	.LVL127
 6344 0308 6C010000 		.4byte	.LFE444
 6345 030c 0400     		.2byte	0x4
 6346 030e F3       		.byte	0xf3
 6347 030f 01       		.uleb128 0x1
 6348 0310 50       		.byte	0x50
 6349 0311 9F       		.byte	0x9f
 6350 0312 00000000 		.4byte	0
 6351 0316 00000000 		.4byte	0
 6352              	.LLST15:
 6353 031a 00000000 		.4byte	.LVL88
 6354 031e 29000000 		.4byte	.LVL90-1
 6355 0322 0100     		.2byte	0x1
 6356 0324 51       		.byte	0x51
 6357 0325 29000000 		.4byte	.LVL90-1
 6358 0329 3A000000 		.4byte	.LVL93
 6359 032d 0100     		.2byte	0x1
 6360 032f 54       		.byte	0x54
 6361 0330 3A000000 		.4byte	.LVL93
 6362 0334 3F000000 		.4byte	.LVL95-1
 6363 0338 0100     		.2byte	0x1
 6364 033a 51       		.byte	0x51
 6365 033b 3F000000 		.4byte	.LVL95-1
 6366 033f 48000000 		.4byte	.LVL96
 6367 0343 0100     		.2byte	0x1
 6368 0345 54       		.byte	0x54
 6369 0346 48000000 		.4byte	.LVL96
 6370 034a 63000000 		.4byte	.LVL99-1
 6371 034e 0100     		.2byte	0x1
 6372 0350 51       		.byte	0x51
 6373 0351 63000000 		.4byte	.LVL99-1
 6374 0355 66000000 		.4byte	.LVL100
 6375 0359 0100     		.2byte	0x1
 6376 035b 54       		.byte	0x54
 6377 035c 66000000 		.4byte	.LVL100
 6378 0360 6B000000 		.4byte	.LVL102-1
 6379 0364 0100     		.2byte	0x1
 6380 0366 51       		.byte	0x51
 6381 0367 6B000000 		.4byte	.LVL102-1
 6382 036b 7E000000 		.4byte	.LVL105
 6383 036f 0100     		.2byte	0x1
 6384 0371 54       		.byte	0x54
 6385 0372 7E000000 		.4byte	.LVL105
 6386 0376 92000000 		.4byte	.LVL107
 6387 037a 0100     		.2byte	0x1
 6388 037c 51       		.byte	0x51
 6389 037d 92000000 		.4byte	.LVL107
 6390 0381 B4000000 		.4byte	.LVL114
 6391 0385 0100     		.2byte	0x1
ARM GAS  C:\Users\Brian\AppData\Local\Temp\ccNQoqIU.s 			page 138


 6392 0387 54       		.byte	0x54
 6393 0388 B4000000 		.4byte	.LVL114
 6394 038c BD000000 		.4byte	.LVL116-1
 6395 0390 0100     		.2byte	0x1
 6396 0392 51       		.byte	0x51
 6397 0393 BD000000 		.4byte	.LVL116-1
 6398 0397 E4000000 		.4byte	.LVL120
 6399 039b 0100     		.2byte	0x1
 6400 039d 54       		.byte	0x54
 6401 039e E4000000 		.4byte	.LVL120
 6402 03a2 ED000000 		.4byte	.LVL122-1
 6403 03a6 0100     		.2byte	0x1
 6404 03a8 51       		.byte	0x51
 6405 03a9 ED000000 		.4byte	.LVL122-1
 6406 03ad 14010000 		.4byte	.LVL126
 6407 03b1 0100     		.2byte	0x1
 6408 03b3 54       		.byte	0x54
 6409 03b4 14010000 		.4byte	.LVL126
 6410 03b8 1D010000 		.4byte	.LVL128-1
 6411 03bc 0100     		.2byte	0x1
 6412 03be 51       		.byte	0x51
 6413 03bf 1D010000 		.4byte	.LVL128-1
 6414 03c3 28010000 		.4byte	.LVL131
 6415 03c7 0100     		.2byte	0x1
 6416 03c9 54       		.byte	0x54
 6417 03ca 28010000 		.4byte	.LVL131
 6418 03ce 6C010000 		.4byte	.LFE444
 6419 03d2 0400     		.2byte	0x4
 6420 03d4 F3       		.byte	0xf3
 6421 03d5 01       		.uleb128 0x1
 6422 03d6 51       		.byte	0x51
 6423 03d7 9F       		.byte	0x9f
 6424 03d8 00000000 		.4byte	0
 6425 03dc 00000000 		.4byte	0
 6426              	.LLST16:
 6427 03e0 48000000 		.4byte	.LVL96
 6428 03e4 63000000 		.4byte	.LVL99-1
 6429 03e8 0100     		.2byte	0x1
 6430 03ea 51       		.byte	0x51
 6431 03eb 63000000 		.4byte	.LVL99-1
 6432 03ef 66000000 		.4byte	.LVL100
 6433 03f3 0100     		.2byte	0x1
 6434 03f5 54       		.byte	0x54
 6435 03f6 66000000 		.4byte	.LVL100
 6436 03fa 6B000000 		.4byte	.LVL102-1
 6437 03fe 0100     		.2byte	0x1
 6438 0400 51       		.byte	0x51
 6439 0401 6B000000 		.4byte	.LVL102-1
 6440 0405 7E000000 		.4byte	.LVL105
 6441 0409 0100     		.2byte	0x1
 6442 040b 54       		.byte	0x54
 6443 040c 7E000000 		.4byte	.LVL105
 6444 0410 92000000 		.4byte	.LVL107
 6445 0414 0100     		.2byte	0x1
 6446 0416 51       		.byte	0x51
 6447 0417 92000000 		.4byte	.LVL107
 6448 041b B4000000 		.4byte	.LVL114
ARM GAS  C:\Users\Brian\AppData\Local\Temp\ccNQoqIU.s 			page 139


 6449 041f 0100     		.2byte	0x1
 6450 0421 54       		.byte	0x54
 6451 0422 B4000000 		.4byte	.LVL114
 6452 0426 BD000000 		.4byte	.LVL116-1
 6453 042a 0100     		.2byte	0x1
 6454 042c 51       		.byte	0x51
 6455 042d BD000000 		.4byte	.LVL116-1
 6456 0431 E4000000 		.4byte	.LVL120
 6457 0435 0100     		.2byte	0x1
 6458 0437 54       		.byte	0x54
 6459 0438 E4000000 		.4byte	.LVL120
 6460 043c ED000000 		.4byte	.LVL122-1
 6461 0440 0100     		.2byte	0x1
 6462 0442 51       		.byte	0x51
 6463 0443 ED000000 		.4byte	.LVL122-1
 6464 0447 14010000 		.4byte	.LVL126
 6465 044b 0100     		.2byte	0x1
 6466 044d 54       		.byte	0x54
 6467 044e 14010000 		.4byte	.LVL126
 6468 0452 1D010000 		.4byte	.LVL128-1
 6469 0456 0100     		.2byte	0x1
 6470 0458 51       		.byte	0x51
 6471 0459 1D010000 		.4byte	.LVL128-1
 6472 045d 28010000 		.4byte	.LVL130
 6473 0461 0100     		.2byte	0x1
 6474 0463 54       		.byte	0x54
 6475 0464 00000000 		.4byte	0
 6476 0468 00000000 		.4byte	0
 6477              	.LLST17:
 6478 046c 2A000000 		.4byte	.LVL90
 6479 0470 30000000 		.4byte	.LVL91
 6480 0474 0200     		.2byte	0x2
 6481 0476 30       		.byte	0x30
 6482 0477 9F       		.byte	0x9f
 6483 0478 00000000 		.4byte	0
 6484 047c 00000000 		.4byte	0
 6485              	.LLST19:
 6486 0480 2A000000 		.4byte	.LVL90
 6487 0484 30000000 		.4byte	.LVL91
 6488 0488 0600     		.2byte	0x6
 6489 048a 0C       		.byte	0xc
 6490 048b 80043240 		.4byte	0x40320480
 6491 048f 9F       		.byte	0x9f
 6492 0490 00000000 		.4byte	0
 6493 0494 00000000 		.4byte	0
 6494              	.LLST20:
 6495 0498 40000000 		.4byte	.LVL95
 6496 049c 48000000 		.4byte	.LVL96
 6497 04a0 0200     		.2byte	0x2
 6498 04a2 31       		.byte	0x31
 6499 04a3 9F       		.byte	0x9f
 6500 04a4 00000000 		.4byte	0
 6501 04a8 00000000 		.4byte	0
 6502              	.LLST21:
 6503 04ac 40000000 		.4byte	.LVL95
 6504 04b0 48000000 		.4byte	.LVL96
 6505 04b4 0200     		.2byte	0x2
ARM GAS  C:\Users\Brian\AppData\Local\Temp\ccNQoqIU.s 			page 140


 6506 04b6 30       		.byte	0x30
 6507 04b7 9F       		.byte	0x9f
 6508 04b8 00000000 		.4byte	0
 6509 04bc 00000000 		.4byte	0
 6510              	.LLST22:
 6511 04c0 40000000 		.4byte	.LVL95
 6512 04c4 48000000 		.4byte	.LVL96
 6513 04c8 0600     		.2byte	0x6
 6514 04ca 0C       		.byte	0xc
 6515 04cb 80043240 		.4byte	0x40320480
 6516 04cf 9F       		.byte	0x9f
 6517 04d0 00000000 		.4byte	0
 6518 04d4 00000000 		.4byte	0
 6519              	.LLST23:
 6520 04d8 5A000000 		.4byte	.LVL97
 6521 04dc 7E000000 		.4byte	.LVL105
 6522 04e0 0100     		.2byte	0x1
 6523 04e2 55       		.byte	0x55
 6524 04e3 00000000 		.4byte	0
 6525 04e7 00000000 		.4byte	0
 6526              	.LLST24:
 6527 04eb 88000000 		.4byte	.LVL106
 6528 04ef 97000000 		.4byte	.LVL109-1
 6529 04f3 0100     		.2byte	0x1
 6530 04f5 52       		.byte	0x52
 6531 04f6 97000000 		.4byte	.LVL109-1
 6532 04fa 9A000000 		.4byte	.LVL110
 6533 04fe 0100     		.2byte	0x1
 6534 0500 55       		.byte	0x55
 6535 0501 9A000000 		.4byte	.LVL110
 6536 0505 9E000000 		.4byte	.LVL111
 6537 0509 0300     		.2byte	0x3
 6538 050b 75       		.byte	0x75
 6539 050c 01       		.sleb128 1
 6540 050d 9F       		.byte	0x9f
 6541 050e 00000000 		.4byte	0
 6542 0512 00000000 		.4byte	0
 6543              	.LLST25:
 6544 0516 00000000 		.4byte	.LVL132
 6545 051a 12000000 		.4byte	.LVL133
 6546 051e 0100     		.2byte	0x1
 6547 0520 50       		.byte	0x50
 6548 0521 12000000 		.4byte	.LVL133
 6549 0525 A0000000 		.4byte	.LVL153
 6550 0529 0100     		.2byte	0x1
 6551 052b 54       		.byte	0x54
 6552 052c A0000000 		.4byte	.LVL153
 6553 0530 A2000000 		.4byte	.LVL154
 6554 0534 0100     		.2byte	0x1
 6555 0536 50       		.byte	0x50
 6556 0537 A2000000 		.4byte	.LVL154
 6557 053b AC000000 		.4byte	.LVL156
 6558 053f 0100     		.2byte	0x1
 6559 0541 54       		.byte	0x54
 6560 0542 AC000000 		.4byte	.LVL156
 6561 0546 D0000000 		.4byte	.LFE450
 6562 054a 0400     		.2byte	0x4
ARM GAS  C:\Users\Brian\AppData\Local\Temp\ccNQoqIU.s 			page 141


 6563 054c F3       		.byte	0xf3
 6564 054d 01       		.uleb128 0x1
 6565 054e 50       		.byte	0x50
 6566 054f 9F       		.byte	0x9f
 6567 0550 00000000 		.4byte	0
 6568 0554 00000000 		.4byte	0
 6569              	.LLST26:
 6570 0558 8C000000 		.4byte	.LVL147
 6571 055c 92000000 		.4byte	.LVL148
 6572 0560 0100     		.2byte	0x1
 6573 0562 50       		.byte	0x50
 6574 0563 98000000 		.4byte	.LVL150
 6575 0567 9A000000 		.4byte	.LVL151
 6576 056b 0100     		.2byte	0x1
 6577 056d 50       		.byte	0x50
 6578 056e 00000000 		.4byte	0
 6579 0572 00000000 		.4byte	0
 6580              	.LLST27:
 6581 0576 1A000000 		.4byte	.LVL134
 6582 057a 1E000000 		.4byte	.LVL135
 6583 057e 0200     		.2byte	0x2
 6584 0580 30       		.byte	0x30
 6585 0581 9F       		.byte	0x9f
 6586 0582 1E000000 		.4byte	.LVL135
 6587 0586 40000000 		.4byte	.LVL136
 6588 058a 0100     		.2byte	0x1
 6589 058c 52       		.byte	0x52
 6590 058d 42000000 		.4byte	.LVL137
 6591 0591 4A000000 		.4byte	.LVL138
 6592 0595 0100     		.2byte	0x1
 6593 0597 52       		.byte	0x52
 6594 0598 00000000 		.4byte	0
 6595 059c 00000000 		.4byte	0
 6596              	.LLST28:
 6597 05a0 4A000000 		.4byte	.LVL138
 6598 05a4 52000000 		.4byte	.LVL139
 6599 05a8 0100     		.2byte	0x1
 6600 05aa 53       		.byte	0x53
 6601 05ab 54000000 		.4byte	.LVL140
 6602 05af 5C000000 		.4byte	.LVL141
 6603 05b3 0100     		.2byte	0x1
 6604 05b5 53       		.byte	0x53
 6605 05b6 00000000 		.4byte	0
 6606 05ba 00000000 		.4byte	0
 6607              	.LLST29:
 6608 05be 60000000 		.4byte	.LVL142
 6609 05c2 64000000 		.4byte	.LVL143
 6610 05c6 0200     		.2byte	0x2
 6611 05c8 32       		.byte	0x32
 6612 05c9 9F       		.byte	0x9f
 6613 05ca 64000000 		.4byte	.LVL143
 6614 05ce 70000000 		.4byte	.LVL144
 6615 05d2 0100     		.2byte	0x1
 6616 05d4 53       		.byte	0x53
 6617 05d5 72000000 		.4byte	.LVL145
 6618 05d9 7C000000 		.4byte	.LVL146
 6619 05dd 0100     		.2byte	0x1
ARM GAS  C:\Users\Brian\AppData\Local\Temp\ccNQoqIU.s 			page 142


 6620 05df 53       		.byte	0x53
 6621 05e0 00000000 		.4byte	0
 6622 05e4 00000000 		.4byte	0
 6623              	.LLST30:
 6624 05e8 00000000 		.4byte	.LVL157
 6625 05ec 10000000 		.4byte	.LVL158
 6626 05f0 0100     		.2byte	0x1
 6627 05f2 50       		.byte	0x50
 6628 05f3 10000000 		.4byte	.LVL158
 6629 05f7 18000000 		.4byte	.LFE451
 6630 05fb 0400     		.2byte	0x4
 6631 05fd F3       		.byte	0xf3
 6632 05fe 01       		.uleb128 0x1
 6633 05ff 50       		.byte	0x50
 6634 0600 9F       		.byte	0x9f
 6635 0601 00000000 		.4byte	0
 6636 0605 00000000 		.4byte	0
 6637              		.section	.debug_aranges,"",%progbits
 6638 0000 5C000000 		.4byte	0x5c
 6639 0004 0200     		.2byte	0x2
 6640 0006 00000000 		.4byte	.Ldebug_info0
 6641 000a 04       		.byte	0x4
 6642 000b 00       		.byte	0
 6643 000c 0000     		.2byte	0
 6644 000e 0000     		.2byte	0
 6645 0010 00000000 		.4byte	.LFB445
 6646 0014 08010000 		.4byte	.LFE445-.LFB445
 6647 0018 00000000 		.4byte	.LFB446
 6648 001c 28000000 		.4byte	.LFE446-.LFB446
 6649 0020 00000000 		.4byte	.LFB447
 6650 0024 1A000000 		.4byte	.LFE447-.LFB447
 6651 0028 00000000 		.4byte	.LFB448
 6652 002c 34000000 		.4byte	.LFE448-.LFB448
 6653 0030 00000000 		.4byte	.LFB449
 6654 0034 68000000 		.4byte	.LFE449-.LFB449
 6655 0038 00000000 		.4byte	.LFB443
 6656 003c F0010000 		.4byte	.LFE443-.LFB443
 6657 0040 00000000 		.4byte	.LFB444
 6658 0044 6C010000 		.4byte	.LFE444-.LFB444
 6659 0048 00000000 		.4byte	.LFB450
 6660 004c D0000000 		.4byte	.LFE450-.LFB450
 6661 0050 00000000 		.4byte	.LFB451
 6662 0054 18000000 		.4byte	.LFE451-.LFB451
 6663 0058 00000000 		.4byte	0
 6664 005c 00000000 		.4byte	0
 6665              		.section	.debug_ranges,"",%progbits
 6666              	.Ldebug_ranges0:
 6667 0000 04010000 		.4byte	.LBB24
 6668 0004 1A010000 		.4byte	.LBE24
 6669 0008 1C010000 		.4byte	.LBB25
 6670 000c 20010000 		.4byte	.LBE25
 6671 0010 00000000 		.4byte	0
 6672 0014 00000000 		.4byte	0
 6673 0018 00000000 		.4byte	.LFB445
 6674 001c 08010000 		.4byte	.LFE445
 6675 0020 00000000 		.4byte	.LFB446
 6676 0024 28000000 		.4byte	.LFE446
ARM GAS  C:\Users\Brian\AppData\Local\Temp\ccNQoqIU.s 			page 143


 6677 0028 00000000 		.4byte	.LFB447
 6678 002c 1A000000 		.4byte	.LFE447
 6679 0030 00000000 		.4byte	.LFB448
 6680 0034 34000000 		.4byte	.LFE448
 6681 0038 00000000 		.4byte	.LFB449
 6682 003c 68000000 		.4byte	.LFE449
 6683 0040 00000000 		.4byte	.LFB443
 6684 0044 F0010000 		.4byte	.LFE443
 6685 0048 00000000 		.4byte	.LFB444
 6686 004c 6C010000 		.4byte	.LFE444
 6687 0050 00000000 		.4byte	.LFB450
 6688 0054 D0000000 		.4byte	.LFE450
 6689 0058 00000000 		.4byte	.LFB451
 6690 005c 18000000 		.4byte	.LFE451
 6691 0060 00000000 		.4byte	0
 6692 0064 00000000 		.4byte	0
 6693              		.section	.debug_line,"",%progbits
 6694              	.Ldebug_line0:
 6695 0000 80070000 		.section	.debug_str,"MS",%progbits,1
 6695      02007205 
 6695      00000201 
 6695      FB0E0D00 
 6695      01010101 
 6696              	.LASF27:
 6697 0000 52455345 		.ascii	"RESERVED\000"
 6697      52564544 
 6697      00
 6698              	.LASF35:
 6699 0009 5644445F 		.ascii	"VDD_ACTIVE\000"
 6699      41435449 
 6699      564500
 6700              	.LASF31:
 6701 0014 494E5452 		.ascii	"INTR_CAUSE0\000"
 6701      5F434155 
 6701      53453000 
 6702              	.LASF32:
 6703 0020 494E5452 		.ascii	"INTR_CAUSE1\000"
 6703      5F434155 
 6703      53453100 
 6704              	.LASF317:
 6705 002c 43595F42 		.ascii	"CY_BLE_EVT_L2CAP_CBFC_DATA_READ\000"
 6705      4C455F45 
 6705      56545F4C 
 6705      32434150 
 6705      5F434246 
 6706              	.LASF34:
 6707 004c 494E5452 		.ascii	"INTR_CAUSE3\000"
 6707      5F434155 
 6707      53453300 
 6708              	.LASF264:
 6709 0058 43595F42 		.ascii	"CY_BLE_EVT_GAPP_ADVERTISEMENT_START_STOP\000"
 6709      4C455F45 
 6709      56545F47 
 6709      4150505F 
 6709      41445645 
 6710              	.LASF318:
 6711 0081 43595F42 		.ascii	"CY_BLE_EVT_L2CAP_CBFC_RX_CREDIT_IND\000"
ARM GAS  C:\Users\Brian\AppData\Local\Temp\ccNQoqIU.s 			page 144


 6711      4C455F45 
 6711      56545F4C 
 6711      32434150 
 6711      5F434246 
 6712              	.LASF319:
 6713 00a5 43595F42 		.ascii	"CY_BLE_EVT_L2CAP_CBFC_TX_CREDIT_IND\000"
 6713      4C455F45 
 6713      56545F4C 
 6713      32434150 
 6713      5F434246 
 6714              	.LASF211:
 6715 00c9 43595F42 		.ascii	"CY_BLE_EVT_PENDING_FLASH_WRITE\000"
 6715      4C455F45 
 6715      56545F50 
 6715      454E4449 
 6715      4E475F46 
 6716              	.LASF91:
 6717 00e8 696E7472 		.ascii	"intrMask\000"
 6717      4D61736B 
 6717      00
 6718              	.LASF303:
 6719 00f1 43595F42 		.ascii	"CY_BLE_EVT_GATTC_HANDLE_VALUE_NTF\000"
 6719      4C455F45 
 6719      56545F47 
 6719      41545443 
 6719      5F48414E 
 6720              	.LASF366:
 6721 0113 74797065 		.ascii	"type_trigger\000"
 6721      5F747269 
 6721      67676572 
 6721      00
 6722              	.LASF376:
 6723 0120 766F6C74 		.ascii	"voltage_ptr\000"
 6723      6167655F 
 6723      70747200 
 6724              	.LASF360:
 6725 012c 63795F65 		.ascii	"cy_en_flashdrv_status\000"
 6725      6E5F666C 
 6725      61736864 
 6725      72765F73 
 6725      74617475 
 6726              	.LASF126:
 6727 0142 5F6F6E5F 		.ascii	"_on_exit_args\000"
 6727      65786974 
 6727      5F617267 
 6727      7300
 6728              	.LASF350:
 6729 0150 43595F42 		.ascii	"CY_BLE_CONN_STATE_CLIENT_DISCOVERED\000"
 6729      4C455F43 
 6729      4F4E4E5F 
 6729      53544154 
 6729      455F434C 
 6730              	.LASF335:
 6731 0174 43595F42 		.ascii	"CY_BLE_STATE_INITIALIZING\000"
 6731      4C455F53 
 6731      54415445 
 6731      5F494E49 
ARM GAS  C:\Users\Brian\AppData\Local\Temp\ccNQoqIU.s 			page 145


 6731      5449414C 
 6732              	.LASF50:
 6733 018e 74785374 		.ascii	"txStatus\000"
 6733      61747573 
 6733      00
 6734              	.LASF416:
 6735 0197 43795F49 		.ascii	"Cy_IPC_Pipe_RegisterCallback\000"
 6735      50435F50 
 6735      6970655F 
 6735      52656769 
 6735      73746572 
 6736              	.LASF387:
 6737 01b4 6576656E 		.ascii	"eventParam\000"
 6737      74506172 
 6737      616D00
 6738              	.LASF187:
 6739 01bf 5F6C6F63 		.ascii	"_localtime_buf\000"
 6739      616C7469 
 6739      6D655F62 
 6739      756600
 6740              	.LASF243:
 6741 01ce 43595F42 		.ascii	"CY_BLE_EVT_SET_TX_PWR_COMPLETE\000"
 6741      4C455F45 
 6741      56545F53 
 6741      45545F54 
 6741      585F5057 
 6742              	.LASF367:
 6743 01ed 74797065 		.ascii	"type_enable\000"
 6743      5F656E61 
 6743      626C6500 
 6744              	.LASF232:
 6745 01f9 43595F42 		.ascii	"CY_BLE_EVT_GET_PHY_COMPLETE\000"
 6745      4C455F45 
 6745      56545F47 
 6745      45545F50 
 6745      48595F43 
 6746              	.LASF190:
 6747 0215 5F723438 		.ascii	"_r48\000"
 6747      00
 6748              	.LASF415:
 6749 021a 73657476 		.ascii	"setvbuf\000"
 6749      62756600 
 6750              	.LASF101:
 6751 0222 5F66706F 		.ascii	"_fpos_t\000"
 6751      735F7400 
 6752              	.LASF155:
 6753 022a 5F657272 		.ascii	"_errno\000"
 6753      6E6F00
 6754              	.LASF377:
 6755 0231 77726974 		.ascii	"write_threshold_to_server\000"
 6755      655F7468 
 6755      72657368 
 6755      6F6C645F 
 6755      746F5F73 
 6756              	.LASF195:
 6757 024b 5F736967 		.ascii	"_signal_buf\000"
 6757      6E616C5F 
ARM GAS  C:\Users\Brian\AppData\Local\Temp\ccNQoqIU.s 			page 146


 6757      62756600 
 6758              	.LASF11:
 6759 0257 756E7369 		.ascii	"unsigned int\000"
 6759      676E6564 
 6759      20696E74 
 6759      00
 6760              	.LASF399:
 6761 0264 63795F62 		.ascii	"cy_ble_connHandle\000"
 6761      6C655F63 
 6761      6F6E6E48 
 6761      616E646C 
 6761      6500
 6762              	.LASF281:
 6763 0276 43595F42 		.ascii	"CY_BLE_EVT_GAP_CREATE_CONN_CANCEL_COMPLETE\000"
 6763      4C455F45 
 6763      56545F47 
 6763      41505F43 
 6763      52454154 
 6764              	.LASF81:
 6765 02a1 43595F53 		.ascii	"CY_SAR_RANGE_COND_OUTSIDE\000"
 6765      41525F52 
 6765      414E4745 
 6765      5F434F4E 
 6765      445F4F55 
 6766              	.LASF378:
 6767 02bb 74687265 		.ascii	"threshold_ptr\000"
 6767      73686F6C 
 6767      645F7074 
 6767      7200
 6768              	.LASF140:
 6769 02c9 5F6C6266 		.ascii	"_lbfsize\000"
 6769      73697A65 
 6769      00
 6770              	.LASF26:
 6771 02d2 4346475F 		.ascii	"CFG_SIO\000"
 6771      53494F00 
 6772              	.LASF371:
 6773 02da 77726974 		.ascii	"write_num_events_to_server\000"
 6773      655F6E75 
 6773      6D5F6576 
 6773      656E7473 
 6773      5F746F5F 
 6774              	.LASF212:
 6775 02f5 43595F42 		.ascii	"CY_BLE_EVT_FLASH_CORRUPT\000"
 6775      4C455F45 
 6775      56545F46 
 6775      4C415348 
 6775      5F434F52 
 6776              	.LASF406:
 6777 030e 6576656E 		.ascii	"events\000"
 6777      747300
 6778              	.LASF421:
 6779 0315 43795F42 		.ascii	"Cy_BLE_GATTS_WriteAttributeValuePeer\000"
 6779      4C455F47 
 6779      41545453 
 6779      5F577269 
 6779      74654174 
ARM GAS  C:\Users\Brian\AppData\Local\Temp\ccNQoqIU.s 			page 147


 6780              	.LASF354:
 6781 033a 6368616E 		.ascii	"channelBase\000"
 6781      6E656C42 
 6781      61736500 
 6782              	.LASF351:
 6783 0346 63795F65 		.ascii	"cy_en_ble_conn_state_t\000"
 6783      6E5F626C 
 6783      655F636F 
 6783      6E6E5F73 
 6783      74617465 
 6784              	.LASF395:
 6785 035d 766F6C74 		.ascii	"voltage\000"
 6785      61676500 
 6786              	.LASF292:
 6787 0365 43595F42 		.ascii	"CY_BLE_EVT_GATTC_FIND_INFO_RSP\000"
 6787      4C455F45 
 6787      56545F47 
 6787      41545443 
 6787      5F46494E 
 6788              	.LASF236:
 6789 0384 43595F42 		.ascii	"CY_BLE_EVT_SET_PRIVACY_MODE_COMPLETE\000"
 6789      4C455F45 
 6789      56545F53 
 6789      45545F50 
 6789      52495641 
 6790              	.LASF72:
 6791 03a9 43595F46 		.ascii	"CY_FLASH_DRV_PL_ROW_COMP_FA\000"
 6791      4C415348 
 6791      5F445256 
 6791      5F504C5F 
 6791      524F575F 
 6792              	.LASF181:
 6793 03c5 5F736565 		.ascii	"_seed\000"
 6793      6400
 6794              	.LASF216:
 6795 03cb 43595F42 		.ascii	"CY_BLE_EVT_GET_CHANNEL_MAP_COMPLETE\000"
 6795      4C455F45 
 6795      56545F47 
 6795      45545F43 
 6795      48414E4E 
 6796              	.LASF17:
 6797 03ef 4F55545F 		.ascii	"OUT_SET\000"
 6797      53455400 
 6798              	.LASF400:
 6799 03f7 63795F62 		.ascii	"cy_ble_connState\000"
 6799      6C655F63 
 6799      6F6E6E53 
 6799      74617465 
 6799      00
 6800              	.LASF352:
 6801 0408 63795F73 		.ascii	"cy_stc_ble_gattc_write_req_t\000"
 6801      74635F62 
 6801      6C655F67 
 6801      61747463 
 6801      5F777269 
 6802              	.LASF407:
 6803 0425 6E756D5F 		.ascii	"num_events\000"
ARM GAS  C:\Users\Brian\AppData\Local\Temp\ccNQoqIU.s 			page 148


 6803      6576656E 
 6803      747300
 6804              	.LASF99:
 6805 0430 5F4C4F43 		.ascii	"_LOCK_RECURSIVE_T\000"
 6805      4B5F5245 
 6805      43555253 
 6805      4956455F 
 6805      5400
 6806              	.LASF296:
 6807 0442 43595F42 		.ascii	"CY_BLE_EVT_GATTC_READ_MULTI_RSP\000"
 6807      4C455F45 
 6807      56545F47 
 6807      41545443 
 6807      5F524541 
 6808              	.LASF286:
 6809 0462 43595F42 		.ascii	"CY_BLE_EVT_GATT_CONNECT_IND\000"
 6809      4C455F45 
 6809      56545F47 
 6809      4154545F 
 6809      434F4E4E 
 6810              	.LASF198:
 6811 047e 5F6D6272 		.ascii	"_mbrtowc_state\000"
 6811      746F7763 
 6811      5F737461 
 6811      746500
 6812              	.LASF142:
 6813 048d 5F726561 		.ascii	"_read\000"
 6813      6400
 6814              	.LASF22:
 6815 0493 494E5452 		.ascii	"INTR_SET\000"
 6815      5F534554 
 6815      00
 6816              	.LASF338:
 6817 049c 43595F42 		.ascii	"CY_BLE_ADV_STATE_STOPPED\000"
 6817      4C455F41 
 6817      44565F53 
 6817      54415445 
 6817      5F53544F 
 6818              	.LASF197:
 6819 04b5 5F6D6272 		.ascii	"_mbrlen_state\000"
 6819      6C656E5F 
 6819      73746174 
 6819      6500
 6820              	.LASF426:
 6821 04c3 626C7565 		.ascii	"bluetooth.c\000"
 6821      746F6F74 
 6821      682E6300 
 6822              	.LASF381:
 6823 04cf 72616D44 		.ascii	"ramData\000"
 6823      61746100 
 6824              	.LASF293:
 6825 04d7 43595F42 		.ascii	"CY_BLE_EVT_GATTC_FIND_BY_TYPE_VALUE_RSP\000"
 6825      4C455F45 
 6825      56545F47 
 6825      41545443 
 6825      5F46494E 
 6826              	.LASF234:
ARM GAS  C:\Users\Brian\AppData\Local\Temp\ccNQoqIU.s 			page 149


 6827 04ff 43595F42 		.ascii	"CY_BLE_EVT_SET_PHY_COMPLETE\000"
 6827      4C455F45 
 6827      56545F53 
 6827      45545F50 
 6827      48595F43 
 6828              	.LASF308:
 6829 051b 43595F42 		.ascii	"CY_BLE_EVT_GATTS_READ_CHAR_VAL_ACCESS_REQ\000"
 6829      4C455F45 
 6829      56545F47 
 6829      41545453 
 6829      5F524541 
 6830              	.LASF105:
 6831 0545 5F5F636F 		.ascii	"__count\000"
 6831      756E7400 
 6832              	.LASF157:
 6833 054d 5F737464 		.ascii	"_stdout\000"
 6833      6F757400 
 6834              	.LASF279:
 6835 0555 43595F42 		.ascii	"CY_BLE_EVT_GAP_RESOLVE_DEVICE_COMPLETE\000"
 6835      4C455F45 
 6835      56545F47 
 6835      41505F52 
 6835      45534F4C 
 6836              	.LASF78:
 6837 057c 43595F53 		.ascii	"CY_SAR_RANGE_COND_BELOW\000"
 6837      41525F52 
 6837      414E4745 
 6837      5F434F4E 
 6837      445F4245 
 6838              	.LASF344:
 6839 0594 43595F42 		.ascii	"CY_BLE_CONN_STATE_CLIENT_DISCONNECTED_DISCOVERED\000"
 6839      4C455F43 
 6839      4F4E4E5F 
 6839      53544154 
 6839      455F434C 
 6840              	.LASF396:
 6841 05c5 5F696D70 		.ascii	"_impure_ptr\000"
 6841      7572655F 
 6841      70747200 
 6842              	.LASF133:
 6843 05d1 5F666E73 		.ascii	"_fns\000"
 6843      00
 6844              	.LASF141:
 6845 05d6 5F636F6F 		.ascii	"_cookie\000"
 6845      6B696500 
 6846              	.LASF289:
 6847 05de 43595F42 		.ascii	"CY_BLE_EVT_GATTC_XCHNG_MTU_RSP\000"
 6847      4C455F45 
 6847      56545F47 
 6847      41545443 
 6847      5F584348 
 6848              	.LASF305:
 6849 05fd 43595F42 		.ascii	"CY_BLE_EVT_GATTS_HANDLE_VALUE_CNF\000"
 6849      4C455F45 
 6849      56545F47 
 6849      41545453 
 6849      5F48414E 
ARM GAS  C:\Users\Brian\AppData\Local\Temp\ccNQoqIU.s 			page 150


 6850              	.LASF24:
 6851 061f 4346475F 		.ascii	"CFG_IN\000"
 6851      494E00
 6852              	.LASF111:
 6853 0626 5F426967 		.ascii	"_Bigint\000"
 6853      696E7400 
 6854              	.LASF152:
 6855 062e 5F6D6273 		.ascii	"_mbstate\000"
 6855      74617465 
 6855      00
 6856              	.LASF46:
 6857 0637 75696E74 		.ascii	"uint8\000"
 6857      3800
 6858              	.LASF123:
 6859 063d 5F5F746D 		.ascii	"__tm_wday\000"
 6859      5F776461 
 6859      7900
 6860              	.LASF294:
 6861 0647 43595F42 		.ascii	"CY_BLE_EVT_GATTC_READ_RSP\000"
 6861      4C455F45 
 6861      56545F47 
 6861      41545443 
 6861      5F524541 
 6862              	.LASF165:
 6863 0661 5F726573 		.ascii	"_result\000"
 6863      756C7400 
 6864              	.LASF363:
 6865 0669 74797065 		.ascii	"type_event\000"
 6865      5F657665 
 6865      6E7400
 6866              	.LASF295:
 6867 0674 43595F42 		.ascii	"CY_BLE_EVT_GATTC_READ_BLOB_RSP\000"
 6867      4C455F45 
 6867      56545F47 
 6867      41545443 
 6867      5F524541 
 6868              	.LASF14:
 6869 0693 75696E74 		.ascii	"uint32_t\000"
 6869      33325F74 
 6869      00
 6870              	.LASF119:
 6871 069c 5F5F746D 		.ascii	"__tm_hour\000"
 6871      5F686F75 
 6871      7200
 6872              	.LASF74:
 6873 06a6 43595F46 		.ascii	"CY_FLASH_DRV_PROGRESS_NO_ERROR\000"
 6873      4C415348 
 6873      5F445256 
 6873      5F50524F 
 6873      47524553 
 6874              	.LASF10:
 6875 06c5 6C6F6E67 		.ascii	"long long unsigned int\000"
 6875      206C6F6E 
 6875      6720756E 
 6875      7369676E 
 6875      65642069 
 6876              	.LASF226:
ARM GAS  C:\Users\Brian\AppData\Local\Temp\ccNQoqIU.s 			page 151


 6877 06dc 43595F42 		.ascii	"CY_BLE_EVT_SET_RPA_ENABLE_COMPLETE\000"
 6877      4C455F45 
 6877      56545F53 
 6877      45545F52 
 6877      50415F45 
 6878              	.LASF160:
 6879 06ff 5F656D65 		.ascii	"_emergency\000"
 6879      7267656E 
 6879      637900
 6880              	.LASF207:
 6881 070a 43595F42 		.ascii	"CY_BLE_EVT_STACK_ON\000"
 6881      4C455F45 
 6881      56545F53 
 6881      5441434B 
 6881      5F4F4E00 
 6882              	.LASF237:
 6883 071e 43595F42 		.ascii	"CY_BLE_EVT_LL_CNTRL_PROC_PENDING_COMPLETE\000"
 6883      4C455F45 
 6883      56545F4C 
 6883      4C5F434E 
 6883      54524C5F 
 6884              	.LASF408:
 6885 0748 75707065 		.ascii	"upper_thresh\000"
 6885      725F7468 
 6885      72657368 
 6885      00
 6886              	.LASF67:
 6887 0755 43595F46 		.ascii	"CY_FLASH_DRV_INVALID_FM_PL\000"
 6887      4C415348 
 6887      5F445256 
 6887      5F494E56 
 6887      414C4944 
 6888              	.LASF223:
 6889 0770 43595F42 		.ascii	"CY_BLE_EVT_GET_PEER_RPA_COMPLETE\000"
 6889      4C455F45 
 6889      56545F47 
 6889      45545F50 
 6889      4545525F 
 6890              	.LASF425:
 6891 0791 474E5520 		.ascii	"GNU C11 5.4.1 20160609 (release) [ARM/embedded-5-br"
 6891      43313120 
 6891      352E342E 
 6891      31203230 
 6891      31363036 
 6892 07c4 616E6368 		.ascii	"anch revision 237715] -mcpu=cortex-m0plus -mthumb -"
 6892      20726576 
 6892      6973696F 
 6892      6E203233 
 6892      37373135 
 6893 07f7 67202D4F 		.ascii	"g -Og -ffunction-sections -ffat-lto-objects\000"
 6893      67202D66 
 6893      66756E63 
 6893      74696F6E 
 6893      2D736563 
 6894              	.LASF118:
 6895 0823 5F5F746D 		.ascii	"__tm_min\000"
 6895      5F6D696E 
ARM GAS  C:\Users\Brian\AppData\Local\Temp\ccNQoqIU.s 			page 152


 6895      00
 6896              	.LASF64:
 6897 082c 63795F73 		.ascii	"cy_stc_scb_uart_context_t\000"
 6897      74635F73 
 6897      63625F75 
 6897      6172745F 
 6897      636F6E74 
 6898              	.LASF368:
 6899 0846 62617365 		.ascii	"base\000"
 6899      00
 6900              	.LASF203:
 6901 084b 5F6E6578 		.ascii	"_nextf\000"
 6901      746600
 6902              	.LASF355:
 6903 0852 6E756D43 		.ascii	"numChannels\000"
 6903      68616E6E 
 6903      656C7300 
 6904              	.LASF110:
 6905 085e 63795F73 		.ascii	"cy_stc_scb_uart_context\000"
 6905      74635F73 
 6905      63625F75 
 6905      6172745F 
 6905      636F6E74 
 6906              	.LASF16:
 6907 0876 4F55545F 		.ascii	"OUT_CLR\000"
 6907      434C5200 
 6908              	.LASF423:
 6909 087e 73656E64 		.ascii	"send_trigger\000"
 6909      5F747269 
 6909      67676572 
 6909      00
 6910              	.LASF382:
 6911 088b 72657375 		.ascii	"result\000"
 6911      6C7400
 6912              	.LASF274:
 6913 0892 43595F42 		.ascii	"CY_BLE_EVT_GAP_ENHANCE_CONN_COMPLETE\000"
 6913      4C455F45 
 6913      56545F47 
 6913      41505F45 
 6913      4E48414E 
 6914              	.LASF166:
 6915 08b7 5F726573 		.ascii	"_result_k\000"
 6915      756C745F 
 6915      6B00
 6916              	.LASF414:
 6917 08c1 55415254 		.ascii	"UART_Start\000"
 6917      5F537461 
 6917      727400
 6918              	.LASF186:
 6919 08cc 5F617363 		.ascii	"_asctime_buf\000"
 6919      74696D65 
 6919      5F627566 
 6919      00
 6920              	.LASF429:
 6921 08d9 43795F47 		.ascii	"Cy_GPIO_Write\000"
 6921      50494F5F 
 6921      57726974 
ARM GAS  C:\Users\Brian\AppData\Local\Temp\ccNQoqIU.s 			page 153


 6921      6500
 6922              	.LASF342:
 6923 08e7 63795F65 		.ascii	"cy_en_ble_adv_state_t\000"
 6923      6E5F626C 
 6923      655F6164 
 6923      765F7374 
 6923      6174655F 
 6924              	.LASF241:
 6925 08fd 43595F42 		.ascii	"CY_BLE_EVT_GET_RSSI_COMPLETE\000"
 6925      4C455F45 
 6925      56545F47 
 6925      45545F52 
 6925      5353495F 
 6926              	.LASF115:
 6927 091a 5F776473 		.ascii	"_wds\000"
 6927      00
 6928              	.LASF138:
 6929 091f 5F666C61 		.ascii	"_flags\000"
 6929      677300
 6930              	.LASF180:
 6931 0926 5F72616E 		.ascii	"_rand48\000"
 6931      64343800 
 6932              	.LASF365:
 6933 092e 74797065 		.ascii	"type_lower_threshold\000"
 6933      5F6C6F77 
 6933      65725F74 
 6933      68726573 
 6933      686F6C64 
 6934              	.LASF87:
 6935 0943 72616E67 		.ascii	"rangeThres\000"
 6935      65546872 
 6935      657300
 6936              	.LASF339:
 6937 094e 43595F42 		.ascii	"CY_BLE_ADV_STATE_ADV_INITIATED\000"
 6937      4C455F41 
 6937      44565F53 
 6937      54415445 
 6937      5F414456 
 6938              	.LASF4:
 6939 096d 5F5F7569 		.ascii	"__uint16_t\000"
 6939      6E743136 
 6939      5F7400
 6940              	.LASF176:
 6941 0978 5F5F4649 		.ascii	"__FILE\000"
 6941      4C4500
 6942              	.LASF79:
 6943 097f 43595F53 		.ascii	"CY_SAR_RANGE_COND_INSIDE\000"
 6943      41525F52 
 6943      414E4745 
 6943      5F434F4E 
 6943      445F494E 
 6944              	.LASF267:
 6945 0998 43595F42 		.ascii	"CY_BLE_EVT_GAP_ENCRYPT_CHANGE\000"
 6945      4C455F45 
 6945      56545F47 
 6945      41505F45 
 6945      4E435259 
ARM GAS  C:\Users\Brian\AppData\Local\Temp\ccNQoqIU.s 			page 154


 6946              	.LASF239:
 6947 09b6 43595F42 		.ascii	"CY_BLE_EVT_SET_DEVICE_ADDR_COMPLETE\000"
 6947      4C455F45 
 6947      56545F53 
 6947      45545F44 
 6947      45564943 
 6948              	.LASF149:
 6949 09da 5F6F6666 		.ascii	"_offset\000"
 6949      73657400 
 6950              	.LASF323:
 6951 09e2 61747449 		.ascii	"attId\000"
 6951      6400
 6952              	.LASF83:
 6953 09e8 6374726C 		.ascii	"ctrl\000"
 6953      00
 6954              	.LASF222:
 6955 09ed 43595F42 		.ascii	"CY_BLE_EVT_DATA_LENGTH_CHANGE\000"
 6955      4C455F45 
 6955      56545F44 
 6955      4154415F 
 6955      4C454E47 
 6956              	.LASF301:
 6957 0a0b 43595F42 		.ascii	"CY_BLE_EVT_GATTS_EXEC_WRITE_REQ\000"
 6957      4C455F45 
 6957      56545F47 
 6957      41545453 
 6957      5F455845 
 6958              	.LASF329:
 6959 0a2b 61747472 		.ascii	"attrHandle\000"
 6959      48616E64 
 6959      6C6500
 6960              	.LASF389:
 6961 0a36 656E6162 		.ascii	"enable\000"
 6961      6C6500
 6962              	.LASF65:
 6963 0a3d 43595F46 		.ascii	"CY_FLASH_DRV_SUCCESS\000"
 6963      4C415348 
 6963      5F445256 
 6963      5F535543 
 6963      43455353 
 6964              	.LASF273:
 6965 0a52 43595F42 		.ascii	"CY_BLE_EVT_GAP_OOB_GENERATED_NOTIFICATION\000"
 6965      4C455F45 
 6965      56545F47 
 6965      41505F4F 
 6965      4F425F47 
 6966              	.LASF328:
 6967 0a7c 76616C75 		.ascii	"value\000"
 6967      6500
 6968              	.LASF25:
 6969 0a82 4346475F 		.ascii	"CFG_OUT\000"
 6969      4F555400 
 6970              	.LASF51:
 6971 0a8a 72785374 		.ascii	"rxStatus\000"
 6971      61747573 
 6971      00
 6972              	.LASF364:
ARM GAS  C:\Users\Brian\AppData\Local\Temp\ccNQoqIU.s 			page 155


 6973 0a93 74797065 		.ascii	"type_upper_threshold\000"
 6973      5F757070 
 6973      65725F74 
 6973      68726573 
 6973      686F6C64 
 6974              	.LASF427:
 6975 0aa8 433A5C50 		.ascii	"C:\\PSoC 6 Projects\\sel_voltage_monitor\\SELVoltag"
 6975      536F4320 
 6975      36205072 
 6975      6F6A6563 
 6975      74735C73 
 6976 0ad8 654D6F6E 		.ascii	"eMonitor\\SELVoltageMonitor.cydsn\000"
 6976      69746F72 
 6976      5C53454C 
 6976      566F6C74 
 6976      6167654D 
 6977              	.LASF265:
 6978 0af9 43595F42 		.ascii	"CY_BLE_EVT_GAP_DEVICE_CONNECTED\000"
 6978      4C455F45 
 6978      56545F47 
 6978      41505F44 
 6978      45564943 
 6979              	.LASF325:
 6980 0b19 63795F62 		.ascii	"cy_ble_gatt_db_attr_handle_t\000"
 6980      6C655F67 
 6980      6174745F 
 6980      64625F61 
 6980      7474725F 
 6981              	.LASF238:
 6982 0b36 43595F42 		.ascii	"CY_BLE_EVT_SOFT_RESET_COMPLETE\000"
 6982      4C455F45 
 6982      56545F53 
 6982      4F46545F 
 6982      52455345 
 6983              	.LASF162:
 6984 0b55 5F637572 		.ascii	"_current_locale\000"
 6984      72656E74 
 6984      5F6C6F63 
 6984      616C6500 
 6985              	.LASF300:
 6986 0b65 43595F42 		.ascii	"CY_BLE_EVT_GATTS_PREP_WRITE_REQ\000"
 6986      4C455F45 
 6986      56545F47 
 6986      41545453 
 6986      5F505245 
 6987              	.LASF353:
 6988 0b85 63795F73 		.ascii	"cy_stc_ble_gattc_write_cmd_req_t\000"
 6988      74635F62 
 6988      6C655F67 
 6988      61747463 
 6988      5F777269 
 6989              	.LASF384:
 6990 0ba6 50747273 		.ascii	"Ptrs\000"
 6990      00
 6991              	.LASF373:
 6992 0bab 6E756D5F 		.ascii	"num_events_ptr\000"
 6992      6576656E 
ARM GAS  C:\Users\Brian\AppData\Local\Temp\ccNQoqIU.s 			page 156


 6992      74735F70 
 6992      747200
 6993              	.LASF117:
 6994 0bba 5F5F746D 		.ascii	"__tm_sec\000"
 6994      5F736563 
 6994      00
 6995              	.LASF304:
 6996 0bc3 43595F42 		.ascii	"CY_BLE_EVT_GATTC_HANDLE_VALUE_IND\000"
 6996      4C455F45 
 6996      56545F47 
 6996      41545443 
 6996      5F48414E 
 6997              	.LASF45:
 6998 0be5 646F7562 		.ascii	"double\000"
 6998      6C6500
 6999              	.LASF182:
 7000 0bec 5F6D756C 		.ascii	"_mult\000"
 7000      7400
 7001              	.LASF159:
 7002 0bf2 5F696E63 		.ascii	"_inc\000"
 7002      00
 7003              	.LASF132:
 7004 0bf7 5F696E64 		.ascii	"_ind\000"
 7004      00
 7005              	.LASF374:
 7006 0bfc 68616E64 		.ascii	"handValPair\000"
 7006      56616C50 
 7006      61697200 
 7007              	.LASF321:
 7008 0c08 43595F42 		.ascii	"CY_BLE_EVT_MAX\000"
 7008      4C455F45 
 7008      56545F4D 
 7008      415800
 7009              	.LASF316:
 7010 0c17 43595F42 		.ascii	"CY_BLE_EVT_L2CAP_CBFC_DISCONN_CNF\000"
 7010      4C455F45 
 7010      56545F4C 
 7010      32434150 
 7010      5F434246 
 7011              	.LASF36:
 7012 0c39 5644445F 		.ascii	"VDD_INTR\000"
 7012      494E5452 
 7012      00
 7013              	.LASF246:
 7014 0c42 43595F42 		.ascii	"CY_BLE_EVT_RANDOM_NUM_GEN_COMPLETE\000"
 7014      4C455F45 
 7014      56545F52 
 7014      414E444F 
 7014      4D5F4E55 
 7015              	.LASF340:
 7016 0c65 43595F42 		.ascii	"CY_BLE_ADV_STATE_ADVERTISING\000"
 7016      4C455F41 
 7016      44565F53 
 7016      54415445 
 7016      5F414456 
 7017              	.LASF199:
 7018 0c82 5F6D6273 		.ascii	"_mbsrtowcs_state\000"
ARM GAS  C:\Users\Brian\AppData\Local\Temp\ccNQoqIU.s 			page 157


 7018      72746F77 
 7018      63735F73 
 7018      74617465 
 7018      00
 7019              	.LASF276:
 7020 0c93 43595F42 		.ascii	"CY_BLE_EVT_GAP_SMP_NEGOTIATED_AUTH_INFO\000"
 7020      4C455F45 
 7020      56545F47 
 7020      41505F53 
 7020      4D505F4E 
 7021              	.LASF219:
 7022 0cbb 43595F42 		.ascii	"CY_BLE_EVT_SET_DATA_LENGTH_COMPLETE\000"
 7022      4C455F45 
 7022      56545F53 
 7022      45545F44 
 7022      4154415F 
 7023              	.LASF298:
 7024 0cdf 43595F42 		.ascii	"CY_BLE_EVT_GATTC_WRITE_RSP\000"
 7024      4C455F45 
 7024      56545F47 
 7024      41545443 
 7024      5F575249 
 7025              	.LASF412:
 7026 0cfa 43795F46 		.ascii	"Cy_Flash_WriteRow\000"
 7026      6C617368 
 7026      5F577269 
 7026      7465526F 
 7026      7700
 7027              	.LASF413:
 7028 0d0c 43795F53 		.ascii	"Cy_SysEnableCM4\000"
 7028      7973456E 
 7028      61626C65 
 7028      434D3400 
 7029              	.LASF53:
 7030 0d1c 72785269 		.ascii	"rxRingBufSize\000"
 7030      6E674275 
 7030      6653697A 
 7030      6500
 7031              	.LASF44:
 7032 0d2a 666C6F61 		.ascii	"float\000"
 7032      7400
 7033              	.LASF209:
 7034 0d30 43595F42 		.ascii	"CY_BLE_EVT_STACK_BUSY_STATUS\000"
 7034      4C455F45 
 7034      56545F53 
 7034      5441434B 
 7034      5F425553 
 7035              	.LASF98:
 7036 0d4d 63795F73 		.ascii	"cy_stc_sar_config_t\000"
 7036      74635F73 
 7036      61725F63 
 7036      6F6E6669 
 7036      675F7400 
 7037              	.LASF30:
 7038 0d61 4750494F 		.ascii	"GPIO_PRT_Type\000"
 7038      5F505254 
 7038      5F547970 
ARM GAS  C:\Users\Brian\AppData\Local\Temp\ccNQoqIU.s 			page 158


 7038      6500
 7039              	.LASF392:
 7040 0d6f 6E65775F 		.ascii	"new_event\000"
 7040      6576656E 
 7040      7400
 7041              	.LASF106:
 7042 0d79 5F5F7661 		.ascii	"__value\000"
 7042      6C756500 
 7043              	.LASF120:
 7044 0d81 5F5F746D 		.ascii	"__tm_mday\000"
 7044      5F6D6461 
 7044      7900
 7045              	.LASF167:
 7046 0d8b 5F703573 		.ascii	"_p5s\000"
 7046      00
 7047              	.LASF210:
 7048 0d90 43595F42 		.ascii	"CY_BLE_EVT_MEMORY_REQUEST\000"
 7048      4C455F45 
 7048      56545F4D 
 7048      454D4F52 
 7048      595F5245 
 7049              	.LASF97:
 7050 0daa 76726566 		.ascii	"vrefMvValue\000"
 7050      4D765661 
 7050      6C756500 
 7051              	.LASF257:
 7052 0db6 43595F42 		.ascii	"CY_BLE_EVT_SET_CONN_PRIORITY_COMPLETE\000"
 7052      4C455F45 
 7052      56545F53 
 7052      45545F43 
 7052      4F4E4E5F 
 7053              	.LASF62:
 7054 0ddc 63624576 		.ascii	"cbEvents\000"
 7054      656E7473 
 7054      00
 7055              	.LASF341:
 7056 0de5 43595F42 		.ascii	"CY_BLE_ADV_STATE_STOP_INITIATED\000"
 7056      4C455F41 
 7056      44565F53 
 7056      54415445 
 7056      5F53544F 
 7057              	.LASF201:
 7058 0e05 5F776373 		.ascii	"_wcsrtombs_state\000"
 7058      72746F6D 
 7058      62735F73 
 7058      74617465 
 7058      00
 7059              	.LASF348:
 7060 0e16 43595F42 		.ascii	"CY_BLE_CONN_STATE_CLIENT_CHAR_DISCOVERING\000"
 7060      4C455F43 
 7060      4F4E4E5F 
 7060      53544154 
 7060      455F434C 
 7061              	.LASF80:
 7062 0e40 43595F53 		.ascii	"CY_SAR_RANGE_COND_ABOVE\000"
 7062      41525F52 
 7062      414E4745 
ARM GAS  C:\Users\Brian\AppData\Local\Temp\ccNQoqIU.s 			page 159


 7062      5F434F4E 
 7062      445F4142 
 7063              	.LASF43:
 7064 0e58 63686172 		.ascii	"char\000"
 7064      00
 7065              	.LASF379:
 7066 0e5d 75707065 		.ascii	"upper_or_lower\000"
 7066      725F6F72 
 7066      5F6C6F77 
 7066      657200
 7067              	.LASF248:
 7068 0e6c 43595F42 		.ascii	"CY_BLE_EVT_AES_CCM_ENCRYPT_COMPLETE\000"
 7068      4C455F45 
 7068      56545F41 
 7068      45535F43 
 7068      434D5F45 
 7069              	.LASF269:
 7070 0e90 43595F42 		.ascii	"CY_BLE_EVT_GAPC_SCAN_START_STOP\000"
 7070      4C455F45 
 7070      56545F47 
 7070      4150435F 
 7070      5343414E 
 7071              	.LASF173:
 7072 0eb0 5F736967 		.ascii	"_sig_func\000"
 7072      5F66756E 
 7072      6300
 7073              	.LASF89:
 7074 0eba 6368616E 		.ascii	"chanEn\000"
 7074      456E00
 7075              	.LASF55:
 7076 0ec1 72785269 		.ascii	"rxRingBufTail\000"
 7076      6E674275 
 7076      66546169 
 7076      6C00
 7077              	.LASF343:
 7078 0ecf 43595F42 		.ascii	"CY_BLE_CONN_STATE_DISCONNECTED\000"
 7078      4C455F43 
 7078      4F4E4E5F 
 7078      53544154 
 7078      455F4449 
 7079              	.LASF291:
 7080 0eee 43595F42 		.ascii	"CY_BLE_EVT_GATTC_READ_BY_TYPE_RSP\000"
 7080      4C455F45 
 7080      56545F47 
 7080      41545443 
 7080      5F524541 
 7081              	.LASF227:
 7082 0f10 43595F42 		.ascii	"CY_BLE_EVT_SET_HOST_CHANNEL_COMPLETE\000"
 7082      4C455F45 
 7082      56545F53 
 7082      45545F48 
 7082      4F53545F 
 7083              	.LASF108:
 7084 0f35 5F666C6F 		.ascii	"_flock_t\000"
 7084      636B5F74 
 7084      00
 7085              	.LASF217:
ARM GAS  C:\Users\Brian\AppData\Local\Temp\ccNQoqIU.s 			page 160


 7086 0f3e 43595F42 		.ascii	"CY_BLE_EVT_LE_SET_EVENT_MASK_COMPLETE\000"
 7086      4C455F45 
 7086      56545F4C 
 7086      455F5345 
 7086      545F4556 
 7087              	.LASF58:
 7088 0f64 72784275 		.ascii	"rxBufIdx\000"
 7088      66496478 
 7088      00
 7089              	.LASF271:
 7090 0f6d 43595F42 		.ascii	"CY_BLE_EVT_GAP_NUMERIC_COMPARISON_REQUEST\000"
 7090      4C455F45 
 7090      56545F47 
 7090      41505F4E 
 7090      554D4552 
 7091              	.LASF63:
 7092 0f97 696E6974 		.ascii	"initKey\000"
 7092      4B657900 
 7093              	.LASF103:
 7094 0f9f 5F5F7763 		.ascii	"__wch\000"
 7094      6800
 7095              	.LASF179:
 7096 0fa5 5F696F62 		.ascii	"_iobs\000"
 7096      7300
 7097              	.LASF12:
 7098 0fab 75696E74 		.ascii	"uint8_t\000"
 7098      385F7400 
 7099              	.LASF431:
 7100 0fb3 5F5F6275 		.ascii	"__builtin_puts\000"
 7100      696C7469 
 7100      6E5F7075 
 7100      747300
 7101              	.LASF250:
 7102 0fc2 43595F42 		.ascii	"CY_BLE_EVT_SET_SLAVE_LATENCY_MODE_COMPLETE\000"
 7102      4C455F45 
 7102      56545F53 
 7102      45545F53 
 7102      4C415645 
 7103              	.LASF145:
 7104 0fed 5F636C6F 		.ascii	"_close\000"
 7104      736500
 7105              	.LASF418:
 7106 0ff4 43795F42 		.ascii	"Cy_BLE_ProcessEvents\000"
 7106      4C455F50 
 7106      726F6365 
 7106      73734576 
 7106      656E7473 
 7107              	.LASF163:
 7108 1009 5F5F7364 		.ascii	"__sdidinit\000"
 7108      6964696E 
 7108      697400
 7109              	.LASF33:
 7110 1014 494E5452 		.ascii	"INTR_CAUSE2\000"
 7110      5F434155 
 7110      53453200 
 7111              	.LASF430:
 7112 1020 70757473 		.ascii	"puts\000"
ARM GAS  C:\Users\Brian\AppData\Local\Temp\ccNQoqIU.s 			page 161


 7112      00
 7113              	.LASF262:
 7114 1025 43595F42 		.ascii	"CY_BLE_EVT_GAP_AUTH_COMPLETE\000"
 7114      4C455F45 
 7114      56545F47 
 7114      41505F41 
 7114      5554485F 
 7115              	.LASF233:
 7116 1042 43595F42 		.ascii	"CY_BLE_EVT_SET_DEFAULT_PHY_COMPLETE\000"
 7116      4C455F45 
 7116      56545F53 
 7116      45545F44 
 7116      45464155 
 7117              	.LASF95:
 7118 1066 6D757853 		.ascii	"muxSwitchSqCtrl\000"
 7118      77697463 
 7118      68537143 
 7118      74726C00 
 7119              	.LASF398:
 7120 1076 63795F62 		.ascii	"cy_ble_advState\000"
 7120      6C655F61 
 7120      64765374 
 7120      61746500 
 7121              	.LASF49:
 7122 1086 63795F63 		.ascii	"cy_cb_scb_uart_handle_events_t\000"
 7122      625F7363 
 7122      625F7561 
 7122      72745F68 
 7122      616E646C 
 7123              	.LASF88:
 7124 10a5 72616E67 		.ascii	"rangeCond\000"
 7124      65436F6E 
 7124      6400
 7125              	.LASF156:
 7126 10af 5F737464 		.ascii	"_stdin\000"
 7126      696E00
 7127              	.LASF383:
 7128 10b6 696E6974 		.ascii	"init_ble\000"
 7128      5F626C65 
 7128      00
 7129              	.LASF420:
 7130 10bf 73656E64 		.ascii	"send_enable\000"
 7130      5F656E61 
 7130      626C6500 
 7131              	.LASF9:
 7132 10cb 6C6F6E67 		.ascii	"long long int\000"
 7132      206C6F6E 
 7132      6720696E 
 7132      7400
 7133              	.LASF314:
 7134 10d9 43595F42 		.ascii	"CY_BLE_EVT_L2CAP_CBFC_CONN_CNF\000"
 7134      4C455F45 
 7134      56545F4C 
 7134      32434150 
 7134      5F434246 
 7135              	.LASF385:
 7136 10f8 426C7565 		.ascii	"BluetoothEventHandler\000"
ARM GAS  C:\Users\Brian\AppData\Local\Temp\ccNQoqIU.s 			page 162


 7136      746F6F74 
 7136      68457665 
 7136      6E744861 
 7136      6E646C65 
 7137              	.LASF411:
 7138 110e 7072696E 		.ascii	"printf\000"
 7138      746600
 7139              	.LASF135:
 7140 1115 5F626173 		.ascii	"_base\000"
 7140      6500
 7141              	.LASF168:
 7142 111b 5F667265 		.ascii	"_freelist\000"
 7142      656C6973 
 7142      7400
 7143              	.LASF282:
 7144 1125 43595F42 		.ascii	"CY_BLE_EVT_GAP_CONN_ESTB\000"
 7144      4C455F45 
 7144      56545F47 
 7144      41505F43 
 7144      4F4E4E5F 
 7145              	.LASF183:
 7146 113e 5F616464 		.ascii	"_add\000"
 7146      00
 7147              	.LASF333:
 7148 1143 63795F73 		.ascii	"cy_stc_ble_gatt_write_param_t\000"
 7148      74635F62 
 7148      6C655F67 
 7148      6174745F 
 7148      77726974 
 7149              	.LASF229:
 7150 1161 43595F42 		.ascii	"CY_BLE_EVT_REMOVE_DEVICE_FROM_RPA_LIST_COMPLETE\000"
 7150      4C455F45 
 7150      56545F52 
 7150      454D4F56 
 7150      455F4445 
 7151              	.LASF218:
 7152 1191 43595F42 		.ascii	"CY_BLE_EVT_LE_PING_AUTH_TIMEOUT\000"
 7152      4C455F45 
 7152      56545F4C 
 7152      455F5049 
 7152      4E475F41 
 7153              	.LASF249:
 7154 11b1 43595F42 		.ascii	"CY_BLE_EVT_AES_CCM_DECRYPT_COMPLETE\000"
 7154      4C455F45 
 7154      56545F41 
 7154      45535F43 
 7154      434D5F44 
 7155              	.LASF200:
 7156 11d5 5F776372 		.ascii	"_wcrtomb_state\000"
 7156      746F6D62 
 7156      5F737461 
 7156      746500
 7157              	.LASF332:
 7158 11e4 636F6E6E 		.ascii	"connHandle\000"
 7158      48616E64 
 7158      6C6500
 7159              	.LASF139:
ARM GAS  C:\Users\Brian\AppData\Local\Temp\ccNQoqIU.s 			page 163


 7160 11ef 5F66696C 		.ascii	"_file\000"
 7160      6500
 7161              	.LASF245:
 7162 11f5 43595F42 		.ascii	"CY_BLE_EVT_SET_CLK_CONFIG_COMPLETE\000"
 7162      4C455F45 
 7162      56545F53 
 7162      45545F43 
 7162      4C4B5F43 
 7163              	.LASF309:
 7164 1218 43595F42 		.ascii	"CY_BLE_EVT_GATTC_LONG_PROCEDURE_END\000"
 7164      4C455F45 
 7164      56545F47 
 7164      41545443 
 7164      5F4C4F4E 
 7165              	.LASF362:
 7166 123c 74797065 		.ascii	"type_voltage\000"
 7166      5F766F6C 
 7166      74616765 
 7166      00
 7167              	.LASF164:
 7168 1249 5F5F636C 		.ascii	"__cleanup\000"
 7168      65616E75 
 7168      7000
 7169              	.LASF19:
 7170 1253 494E5452 		.ascii	"INTR\000"
 7170      00
 7171              	.LASF191:
 7172 1258 5F6D626C 		.ascii	"_mblen_state\000"
 7172      656E5F73 
 7172      74617465 
 7172      00
 7173              	.LASF260:
 7174 1265 43595F42 		.ascii	"CY_BLE_EVT_GAP_PASSKEY_ENTRY_REQUEST\000"
 7174      4C455F45 
 7174      56545F47 
 7174      41505F50 
 7174      4153534B 
 7175              	.LASF107:
 7176 128a 5F6D6273 		.ascii	"_mbstate_t\000"
 7176      74617465 
 7176      5F7400
 7177              	.LASF393:
 7178 1295 7265636F 		.ascii	"record_voltage\000"
 7178      72645F76 
 7178      6F6C7461 
 7178      676500
 7179              	.LASF20:
 7180 12a4 494E5452 		.ascii	"INTR_MASK\000"
 7180      5F4D4153 
 7180      4B00
 7181              	.LASF90:
 7182 12ae 6368616E 		.ascii	"chanConfig\000"
 7182      436F6E66 
 7182      696700
 7183              	.LASF270:
 7184 12b9 43595F42 		.ascii	"CY_BLE_EVT_GAP_KEYINFO_EXCHNGE_CMPLT\000"
 7184      4C455F45 
ARM GAS  C:\Users\Brian\AppData\Local\Temp\ccNQoqIU.s 			page 164


 7184      56545F47 
 7184      41505F4B 
 7184      4559494E 
 7185              	.LASF230:
 7186 12de 43595F42 		.ascii	"CY_BLE_EVT_ADD_DEVICE_TO_WHITE_LIST_COMPLETE\000"
 7186      4C455F45 
 7186      56545F41 
 7186      44445F44 
 7186      45564943 
 7187              	.LASF60:
 7188 130b 74784275 		.ascii	"txBufSize\000"
 7188      6653697A 
 7188      6500
 7189              	.LASF47:
 7190 1315 75696E74 		.ascii	"uint32\000"
 7190      333200
 7191              	.LASF125:
 7192 131c 5F5F746D 		.ascii	"__tm_isdst\000"
 7192      5F697364 
 7192      737400
 7193              	.LASF284:
 7194 1327 43595F42 		.ascii	"CY_BLE_EVT_GAP_ADV_TX\000"
 7194      4C455F45 
 7194      56545F47 
 7194      41505F41 
 7194      44565F54 
 7195              	.LASF320:
 7196 133d 43595F42 		.ascii	"CY_BLE_EVT_L2CAP_CBFC_DATA_WRITE_IND\000"
 7196      4C455F45 
 7196      56545F4C 
 7196      32434150 
 7196      5F434246 
 7197              	.LASF359:
 7198 1362 4144435F 		.ascii	"ADC_CONFIG_STRUCT\000"
 7198      434F4E46 
 7198      49475F53 
 7198      54525543 
 7198      5400
 7199              	.LASF240:
 7200 1374 43595F42 		.ascii	"CY_BLE_EVT_GET_DEVICE_ADDR_COMPLETE\000"
 7200      4C455F45 
 7200      56545F47 
 7200      45545F44 
 7200      45564943 
 7201              	.LASF417:
 7202 1398 43795F42 		.ascii	"Cy_BLE_Start\000"
 7202      4C455F53 
 7202      74617274 
 7202      00
 7203              	.LASF256:
 7204 13a5 43595F42 		.ascii	"CY_BLE_EVT_SET_CE_LENGTH_COMPLETE\000"
 7204      4C455F45 
 7204      56545F53 
 7204      45545F43 
 7204      455F4C45 
 7205              	.LASF258:
 7206 13c7 43595F42 		.ascii	"CY_BLE_EVT_GAPC_SCAN_PROGRESS_RESULT\000"
ARM GAS  C:\Users\Brian\AppData\Local\Temp\ccNQoqIU.s 			page 165


 7206      4C455F45 
 7206      56545F47 
 7206      4150435F 
 7206      5343414E 
 7207              	.LASF313:
 7208 13ec 43595F42 		.ascii	"CY_BLE_EVT_L2CAP_CBFC_CONN_IND\000"
 7208      4C455F45 
 7208      56545F4C 
 7208      32434150 
 7208      5F434246 
 7209              	.LASF278:
 7210 140b 43595F42 		.ascii	"CY_BLE_EVT_GAP_KEYS_GEN_COMPLETE\000"
 7210      4C455F45 
 7210      56545F47 
 7210      41505F4B 
 7210      4559535F 
 7211              	.LASF21:
 7212 142c 494E5452 		.ascii	"INTR_MASKED\000"
 7212      5F4D4153 
 7212      4B454400 
 7213              	.LASF272:
 7214 1438 43595F42 		.ascii	"CY_BLE_EVT_GAP_KEYPRESS_NOTIFICATION\000"
 7214      4C455F45 
 7214      56545F47 
 7214      41505F4B 
 7214      45595052 
 7215              	.LASF390:
 7216 145d 6576656E 		.ascii	"event_num\000"
 7216      745F6E75 
 7216      6D00
 7217              	.LASF349:
 7218 1467 43595F42 		.ascii	"CY_BLE_CONN_STATE_CLIENT_DESCR_DISCOVERING\000"
 7218      4C455F43 
 7218      4F4E4E5F 
 7218      53544154 
 7218      455F434C 
 7219              	.LASF345:
 7220 1492 43595F42 		.ascii	"CY_BLE_CONN_STATE_CONNECTED\000"
 7220      4C455F43 
 7220      4F4E4E5F 
 7220      53544154 
 7220      455F434F 
 7221              	.LASF59:
 7222 14ae 74784275 		.ascii	"txBuf\000"
 7222      6600
 7223              	.LASF38:
 7224 14b4 5644445F 		.ascii	"VDD_INTR_MASKED\000"
 7224      494E5452 
 7224      5F4D4153 
 7224      4B454400 
 7225              	.LASF347:
 7226 14c4 43595F42 		.ascii	"CY_BLE_CONN_STATE_CLIENT_INCL_DISCOVERING\000"
 7226      4C455F43 
 7226      4F4E4E5F 
 7226      53544154 
 7226      455F434C 
 7227              	.LASF73:
ARM GAS  C:\Users\Brian\AppData\Local\Temp\ccNQoqIU.s 			page 166


 7228 14ee 43595F46 		.ascii	"CY_FLASH_DRV_ERR_UNC\000"
 7228      4C415348 
 7228      5F445256 
 7228      5F455252 
 7228      5F554E43 
 7229              	.LASF394:
 7230 1503 64617461 		.ascii	"data\000"
 7230      00
 7231              	.LASF121:
 7232 1508 5F5F746D 		.ascii	"__tm_mon\000"
 7232      5F6D6F6E 
 7232      00
 7233              	.LASF52:
 7234 1511 72785269 		.ascii	"rxRingBuf\000"
 7234      6E674275 
 7234      6600
 7235              	.LASF41:
 7236 151b 6C6F6E67 		.ascii	"long double\000"
 7236      20646F75 
 7236      626C6500 
 7237              	.LASF68:
 7238 1527 43595F46 		.ascii	"CY_FLASH_DRV_INVALID_FLASH_ADDR\000"
 7238      4C415348 
 7238      5F445256 
 7238      5F494E56 
 7238      414C4944 
 7239              	.LASF215:
 7240 1547 43595F42 		.ascii	"CY_BLE_EVT_READ_AUTH_PAYLOAD_TO_COMPLETE\000"
 7240      4C455F45 
 7240      56545F52 
 7240      4541445F 
 7240      41555448 
 7241              	.LASF13:
 7242 1570 75696E74 		.ascii	"uint16_t\000"
 7242      31365F74 
 7242      00
 7243              	.LASF76:
 7244 1579 43595F46 		.ascii	"CY_FLASH_DRV_OPCODE_BUSY\000"
 7244      4C415348 
 7244      5F445256 
 7244      5F4F5043 
 7244      4F44455F 
 7245              	.LASF39:
 7246 1592 5644445F 		.ascii	"VDD_INTR_SET\000"
 7246      494E5452 
 7246      5F534554 
 7246      00
 7247              	.LASF337:
 7248 159f 63795F65 		.ascii	"cy_en_ble_state_t\000"
 7248      6E5F626C 
 7248      655F7374 
 7248      6174655F 
 7248      7400
 7249              	.LASF172:
 7250 15b1 5F617465 		.ascii	"_atexit0\000"
 7250      78697430 
 7250      00
ARM GAS  C:\Users\Brian\AppData\Local\Temp\ccNQoqIU.s 			page 167


 7251              	.LASF225:
 7252 15ba 43595F42 		.ascii	"CY_BLE_EVT_SET_RPA_TO_COMPLETE\000"
 7252      4C455F45 
 7252      56545F53 
 7252      45545F52 
 7252      50415F54 
 7253              	.LASF188:
 7254 15d9 5F67616D 		.ascii	"_gamma_signgam\000"
 7254      6D615F73 
 7254      69676E67 
 7254      616D00
 7255              	.LASF85:
 7256 15e8 73616D70 		.ascii	"sampleTime01\000"
 7256      6C655469 
 7256      6D653031 
 7256      00
 7257              	.LASF213:
 7258 15f5 43595F42 		.ascii	"CY_BLE_EVT_HARDWARE_ERROR\000"
 7258      4C455F45 
 7258      56545F48 
 7258      41524457 
 7258      4152455F 
 7259              	.LASF94:
 7260 160f 6D757853 		.ascii	"muxSwitch\000"
 7260      77697463 
 7260      6800
 7261              	.LASF131:
 7262 1619 5F617465 		.ascii	"_atexit\000"
 7262      78697400 
 7263              	.LASF285:
 7264 1621 43595F42 		.ascii	"CY_BLE_EVT_GATTC_ERROR_RSP\000"
 7264      4C455F45 
 7264      56545F47 
 7264      41545443 
 7264      5F455252 
 7265              	.LASF370:
 7266 163c 77726974 		.ascii	"write_event_to_server\000"
 7266      655F6576 
 7266      656E745F 
 7266      746F5F73 
 7266      65727665 
 7267              	.LASF290:
 7268 1652 43595F42 		.ascii	"CY_BLE_EVT_GATTC_READ_BY_GROUP_TYPE_RSP\000"
 7268      4C455F45 
 7268      56545F47 
 7268      41545443 
 7268      5F524541 
 7269              	.LASF228:
 7270 167a 43595F42 		.ascii	"CY_BLE_EVT_ADD_DEVICE_TO_RPA_LIST_COMPLETE\000"
 7270      4C455F45 
 7270      56545F41 
 7270      44445F44 
 7270      45564943 
 7271              	.LASF297:
 7272 16a5 43595F42 		.ascii	"CY_BLE_EVT_GATTS_WRITE_REQ\000"
 7272      4C455F45 
 7272      56545F47 
ARM GAS  C:\Users\Brian\AppData\Local\Temp\ccNQoqIU.s 			page 168


 7272      41545453 
 7272      5F575249 
 7273              	.LASF251:
 7274 16c0 43595F42 		.ascii	"CY_BLE_EVT_STACK_SHUTDOWN_COMPLETE\000"
 7274      4C455F45 
 7274      56545F53 
 7274      5441434B 
 7274      5F534855 
 7275              	.LASF54:
 7276 16e3 72785269 		.ascii	"rxRingBufHead\000"
 7276      6E674275 
 7276      66486561 
 7276      6400
 7277              	.LASF324:
 7278 16f1 63795F73 		.ascii	"cy_stc_ble_conn_handle_t\000"
 7278      74635F62 
 7278      6C655F63 
 7278      6F6E6E5F 
 7278      68616E64 
 7279              	.LASF92:
 7280 170a 73617449 		.ascii	"satIntrMask\000"
 7280      6E74724D 
 7280      61736B00 
 7281              	.LASF29:
 7282 1716 52455345 		.ascii	"RESERVED1\000"
 7282      52564544 
 7282      3100
 7283              	.LASF66:
 7284 1720 43595F46 		.ascii	"CY_FLASH_DRV_INV_PROT\000"
 7284      4C415348 
 7284      5F445256 
 7284      5F494E56 
 7284      5F50524F 
 7285              	.LASF283:
 7286 1736 43595F42 		.ascii	"CY_BLE_EVT_GAPP_UPDATE_ADV_SCAN_DATA_COMPLETE\000"
 7286      4C455F45 
 7286      56545F47 
 7286      4150505F 
 7286      55504441 
 7287              	.LASF0:
 7288 1764 73686F72 		.ascii	"short int\000"
 7288      7420696E 
 7288      7400
 7289              	.LASF404:
 7290 176e 4144435F 		.ascii	"ADC_allConfigs\000"
 7290      616C6C43 
 7290      6F6E6669 
 7290      677300
 7291              	.LASF206:
 7292 177d 43595F42 		.ascii	"CY_BLE_EVT_INVALID\000"
 7292      4C455F45 
 7292      56545F49 
 7292      4E56414C 
 7292      494400
 7293              	.LASF266:
 7294 1790 43595F42 		.ascii	"CY_BLE_EVT_GAP_DEVICE_DISCONNECTED\000"
 7294      4C455F45 
ARM GAS  C:\Users\Brian\AppData\Local\Temp\ccNQoqIU.s 			page 169


 7294      56545F47 
 7294      41505F44 
 7294      45564943 
 7295              	.LASF405:
 7296 17b3 666C6173 		.ascii	"flashPtrs\000"
 7296      68507472 
 7296      7300
 7297              	.LASF6:
 7298 17bd 6C6F6E67 		.ascii	"long int\000"
 7298      20696E74 
 7298      00
 7299              	.LASF424:
 7300 17c6 43795F42 		.ascii	"Cy_BLE_GATTS_WriteRsp\000"
 7300      4C455F47 
 7300      41545453 
 7300      5F577269 
 7300      74655273 
 7301              	.LASF410:
 7302 17dc 43795F42 		.ascii	"Cy_BLE_GATTS_WriteAttributeValueLocal\000"
 7302      4C455F47 
 7302      41545453 
 7302      5F577269 
 7302      74654174 
 7303              	.LASF254:
 7304 1802 43595F42 		.ascii	"CY_BLE_EVT_AES_CMAC_GEN_COMPLETE\000"
 7304      4C455F45 
 7304      56545F41 
 7304      45535F43 
 7304      4D41435F 
 7305              	.LASF428:
 7306 1823 5F5F656E 		.ascii	"__enable_irq\000"
 7306      61626C65 
 7306      5F697271 
 7306      00
 7307              	.LASF375:
 7308 1830 77726974 		.ascii	"write_voltage_to_server\000"
 7308      655F766F 
 7308      6C746167 
 7308      655F746F 
 7308      5F736572 
 7309              	.LASF175:
 7310 1848 5F5F7366 		.ascii	"__sf\000"
 7310      00
 7311              	.LASF114:
 7312 184d 5F736967 		.ascii	"_sign\000"
 7312      6E00
 7313              	.LASF397:
 7314 1853 63795F62 		.ascii	"cy_ble_state\000"
 7314      6C655F73 
 7314      74617465 
 7314      00
 7315              	.LASF277:
 7316 1860 43595F42 		.ascii	"CY_BLE_EVT_GAP_DEVICE_ADDR_GEN_COMPLETE\000"
 7316      4C455F45 
 7316      56545F47 
 7316      41505F44 
 7316      45564943 
ARM GAS  C:\Users\Brian\AppData\Local\Temp\ccNQoqIU.s 			page 170


 7317              	.LASF42:
 7318 1888 63686172 		.ascii	"char_t\000"
 7318      5F7400
 7319              	.LASF150:
 7320 188f 5F646174 		.ascii	"_data\000"
 7320      6100
 7321              	.LASF104:
 7322 1895 5F5F7763 		.ascii	"__wchb\000"
 7322      686200
 7323              	.LASF28:
 7324 189c 4346475F 		.ascii	"CFG_IN_GPIO5V\000"
 7324      494E5F47 
 7324      50494F35 
 7324      5600
 7325              	.LASF122:
 7326 18aa 5F5F746D 		.ascii	"__tm_year\000"
 7326      5F796561 
 7326      7200
 7327              	.LASF315:
 7328 18b4 43595F42 		.ascii	"CY_BLE_EVT_L2CAP_CBFC_DISCONN_IND\000"
 7328      4C455F45 
 7328      56545F4C 
 7328      32434150 
 7328      5F434246 
 7329              	.LASF388:
 7330 18d6 77726974 		.ascii	"writeReqParam\000"
 7330      65526571 
 7330      50617261 
 7330      6D00
 7331              	.LASF331:
 7332 18e4 68616E64 		.ascii	"handleValPair\000"
 7332      6C655661 
 7332      6C506169 
 7332      7200
 7333              	.LASF61:
 7334 18f2 74784C65 		.ascii	"txLeftToTransmit\000"
 7334      6674546F 
 7334      5472616E 
 7334      736D6974 
 7334      00
 7335              	.LASF334:
 7336 1903 43595F42 		.ascii	"CY_BLE_STATE_STOPPED\000"
 7336      4C455F53 
 7336      54415445 
 7336      5F53544F 
 7336      50504544 
 7337              	.LASF326:
 7338 1918 61637475 		.ascii	"actualLen\000"
 7338      616C4C65 
 7338      6E00
 7339              	.LASF214:
 7340 1922 43595F42 		.ascii	"CY_BLE_EVT_WRITE_AUTH_PAYLOAD_TO_COMPLETE\000"
 7340      4C455F45 
 7340      56545F57 
 7340      52495445 
 7340      5F415554 
 7341              	.LASF253:
ARM GAS  C:\Users\Brian\AppData\Local\Temp\ccNQoqIU.s 			page 171


 7342 194c 43595F42 		.ascii	"CY_BLE_EVT_RADIO_VOLTAGE_LEVEL\000"
 7342      4C455F45 
 7342      56545F52 
 7342      4144494F 
 7342      5F564F4C 
 7343              	.LASF143:
 7344 196b 5F777269 		.ascii	"_write\000"
 7344      746500
 7345              	.LASF71:
 7346 1972 43595F46 		.ascii	"CY_FLASH_DRV_INVALID_INPUT_PARAMETERS\000"
 7346      4C415348 
 7346      5F445256 
 7346      5F494E56 
 7346      414C4944 
 7347              	.LASF18:
 7348 1998 4F55545F 		.ascii	"OUT_INV\000"
 7348      494E5600 
 7349              	.LASF205:
 7350 19a0 5F756E75 		.ascii	"_unused\000"
 7350      73656400 
 7351              	.LASF3:
 7352 19a8 5F5F7569 		.ascii	"__uint8_t\000"
 7352      6E74385F 
 7352      7400
 7353              	.LASF171:
 7354 19b2 5F6E6577 		.ascii	"_new\000"
 7354      00
 7355              	.LASF113:
 7356 19b7 5F6D6178 		.ascii	"_maxwds\000"
 7356      77647300 
 7357              	.LASF194:
 7358 19bf 5F6C3634 		.ascii	"_l64a_buf\000"
 7358      615F6275 
 7358      6600
 7359              	.LASF161:
 7360 19c9 5F637572 		.ascii	"_current_category\000"
 7360      72656E74 
 7360      5F636174 
 7360      65676F72 
 7360      7900
 7361              	.LASF220:
 7362 19db 43595F42 		.ascii	"CY_BLE_EVT_SET_SUGGESTED_DATA_LENGTH_COMPLETE\000"
 7362      4C455F45 
 7362      56545F53 
 7362      45545F53 
 7362      55474745 
 7363              	.LASF386:
 7364 1a09 6576656E 		.ascii	"event\000"
 7364      7400
 7365              	.LASF247:
 7366 1a0f 43595F42 		.ascii	"CY_BLE_EVT_AES_ENCRYPT_COMPLETE\000"
 7366      4C455F45 
 7366      56545F41 
 7366      45535F45 
 7366      4E435259 
 7367              	.LASF242:
 7368 1a2f 43595F42 		.ascii	"CY_BLE_EVT_GET_TX_PWR_COMPLETE\000"
ARM GAS  C:\Users\Brian\AppData\Local\Temp\ccNQoqIU.s 			page 172


 7368      4C455F45 
 7368      56545F47 
 7368      45545F54 
 7368      585F5057 
 7369              	.LASF109:
 7370 1a4e 5F5F554C 		.ascii	"__ULong\000"
 7370      6F6E6700 
 7371              	.LASF148:
 7372 1a56 5F626C6B 		.ascii	"_blksize\000"
 7372      73697A65 
 7372      00
 7373              	.LASF86:
 7374 1a5f 73616D70 		.ascii	"sampleTime23\000"
 7374      6C655469 
 7374      6D653233 
 7374      00
 7375              	.LASF116:
 7376 1a6c 5F5F746D 		.ascii	"__tm\000"
 7376      00
 7377              	.LASF208:
 7378 1a71 43595F42 		.ascii	"CY_BLE_EVT_TIMEOUT\000"
 7378      4C455F45 
 7378      56545F54 
 7378      494D454F 
 7378      555400
 7379              	.LASF151:
 7380 1a84 5F6C6F63 		.ascii	"_lock\000"
 7380      6B00
 7381              	.LASF169:
 7382 1a8a 5F637674 		.ascii	"_cvtlen\000"
 7382      6C656E00 
 7383              	.LASF15:
 7384 1a92 73697A65 		.ascii	"sizetype\000"
 7384      74797065 
 7384      00
 7385              	.LASF8:
 7386 1a9b 6C6F6E67 		.ascii	"long unsigned int\000"
 7386      20756E73 
 7386      69676E65 
 7386      6420696E 
 7386      7400
 7387              	.LASF361:
 7388 1aad 6970635F 		.ascii	"ipc_msg_datatype\000"
 7388      6D73675F 
 7388      64617461 
 7388      74797065 
 7388      00
 7389              	.LASF330:
 7390 1abe 63795F73 		.ascii	"cy_stc_ble_gatt_handle_value_pair_t\000"
 7390      74635F62 
 7390      6C655F67 
 7390      6174745F 
 7390      68616E64 
 7391              	.LASF178:
 7392 1ae2 5F6E696F 		.ascii	"_niobs\000"
 7392      627300
 7393              	.LASF102:
ARM GAS  C:\Users\Brian\AppData\Local\Temp\ccNQoqIU.s 			page 173


 7394 1ae9 77696E74 		.ascii	"wint_t\000"
 7394      5F7400
 7395              	.LASF380:
 7396 1af0 75706461 		.ascii	"update_flash_config\000"
 7396      74655F66 
 7396      6C617368 
 7396      5F636F6E 
 7396      66696700 
 7397              	.LASF356:
 7398 1b04 6877436F 		.ascii	"hwConfigStc\000"
 7398      6E666967 
 7398      53746300 
 7399              	.LASF252:
 7400 1b10 43595F42 		.ascii	"CY_BLE_EVT_RADIO_TEMPERATURE\000"
 7400      4C455F45 
 7400      56545F52 
 7400      4144494F 
 7400      5F54454D 
 7401              	.LASF369:
 7402 1b2d 70696E4E 		.ascii	"pinNum\000"
 7402      756D00
 7403              	.LASF312:
 7404 1b34 43595F42 		.ascii	"CY_BLE_EVT_L2CAP_COMMAND_REJ\000"
 7404      4C455F45 
 7404      56545F4C 
 7404      32434150 
 7404      5F434F4D 
 7405              	.LASF128:
 7406 1b51 5F64736F 		.ascii	"_dso_handle\000"
 7406      5F68616E 
 7406      646C6500 
 7407              	.LASF307:
 7408 1b5d 43595F42 		.ascii	"CY_BLE_EVT_GATTC_STOP_CMD_COMPLETE\000"
 7408      4C455F45 
 7408      56545F47 
 7408      41545443 
 7408      5F53544F 
 7409              	.LASF336:
 7410 1b80 43595F42 		.ascii	"CY_BLE_STATE_ON\000"
 7410      4C455F53 
 7410      54415445 
 7410      5F4F4E00 
 7411              	.LASF84:
 7412 1b90 73616D70 		.ascii	"sampleCtrl\000"
 7412      6C654374 
 7412      726C00
 7413              	.LASF170:
 7414 1b9b 5F637674 		.ascii	"_cvtbuf\000"
 7414      62756600 
 7415              	.LASF1:
 7416 1ba3 756E7369 		.ascii	"unsigned char\000"
 7416      676E6564 
 7416      20636861 
 7416      7200
 7417              	.LASF158:
 7418 1bb1 5F737464 		.ascii	"_stderr\000"
 7418      65727200 
ARM GAS  C:\Users\Brian\AppData\Local\Temp\ccNQoqIU.s 			page 174


 7419              	.LASF306:
 7420 1bb9 43595F42 		.ascii	"CY_BLE_EVT_GATTS_DATA_SIGNED_CMD_REQ\000"
 7420      4C455F45 
 7420      56545F47 
 7420      41545453 
 7420      5F444154 
 7421              	.LASF7:
 7422 1bde 5F5F7569 		.ascii	"__uint32_t\000"
 7422      6E743332 
 7422      5F7400
 7423              	.LASF40:
 7424 1be9 4750494F 		.ascii	"GPIO_Type\000"
 7424      5F547970 
 7424      6500
 7425              	.LASF422:
 7426 1bf3 43795F42 		.ascii	"Cy_BLE_GAPP_StartAdvertisement\000"
 7426      4C455F47 
 7426      4150505F 
 7426      53746172 
 7426      74416476 
 7427              	.LASF23:
 7428 1c12 494E5452 		.ascii	"INTR_CFG\000"
 7428      5F434647 
 7428      00
 7429              	.LASF327:
 7430 1c1b 63795F73 		.ascii	"cy_stc_ble_gatt_value_t\000"
 7430      74635F62 
 7430      6C655F67 
 7430      6174745F 
 7430      76616C75 
 7431              	.LASF231:
 7432 1c33 43595F42 		.ascii	"CY_BLE_EVT_REMOVE_DEVICE_FROM_WHITE_LIST_COMPLETE\000"
 7432      4C455F45 
 7432      56545F52 
 7432      454D4F56 
 7432      455F4445 
 7433              	.LASF221:
 7434 1c65 43595F42 		.ascii	"CY_BLE_EVT_GET_DATA_LENGTH_COMPLETE\000"
 7434      4C455F45 
 7434      56545F47 
 7434      45545F44 
 7434      4154415F 
 7435              	.LASF275:
 7436 1c89 43595F42 		.ascii	"CY_BLE_EVT_GAPC_DIRECT_ADV_REPORT\000"
 7436      4C455F45 
 7436      56545F47 
 7436      4150435F 
 7436      44495245 
 7437              	.LASF124:
 7438 1cab 5F5F746D 		.ascii	"__tm_yday\000"
 7438      5F796461 
 7438      7900
 7439              	.LASF311:
 7440 1cb5 43595F42 		.ascii	"CY_BLE_EVT_L2CAP_CONN_PARAM_UPDATE_RSP\000"
 7440      4C455F45 
 7440      56545F4C 
 7440      32434150 
ARM GAS  C:\Users\Brian\AppData\Local\Temp\ccNQoqIU.s 			page 175


 7440      5F434F4E 
 7441              	.LASF48:
 7442 1cdc 5F426F6F 		.ascii	"_Bool\000"
 7442      6C00
 7443              	.LASF358:
 7444 1ce2 636C6B44 		.ascii	"clkDivider\000"
 7444      69766964 
 7444      657200
 7445              	.LASF134:
 7446 1ced 5F5F7362 		.ascii	"__sbuf\000"
 7446      756600
 7447              	.LASF69:
 7448 1cf4 43595F46 		.ascii	"CY_FLASH_DRV_ROW_PROTECTED\000"
 7448      4C415348 
 7448      5F445256 
 7448      5F524F57 
 7448      5F50524F 
 7449              	.LASF409:
 7450 1d0f 6C6F7765 		.ascii	"lower_thresh\000"
 7450      725F7468 
 7450      72657368 
 7450      00
 7451              	.LASF287:
 7452 1d1c 43595F42 		.ascii	"CY_BLE_EVT_GATT_DISCONNECT_IND\000"
 7452      4C455F45 
 7452      56545F47 
 7452      4154545F 
 7452      44495343 
 7453              	.LASF403:
 7454 1d3b 4144435F 		.ascii	"ADC_currentConfig\000"
 7454      63757272 
 7454      656E7443 
 7454      6F6E6669 
 7454      6700
 7455              	.LASF372:
 7456 1d4d 6576656E 		.ascii	"event_byte_arr\000"
 7456      745F6279 
 7456      74655F61 
 7456      727200
 7457              	.LASF177:
 7458 1d5c 5F676C75 		.ascii	"_glue\000"
 7458      6500
 7459              	.LASF302:
 7460 1d62 43595F42 		.ascii	"CY_BLE_EVT_GATTC_EXEC_WRITE_RSP\000"
 7460      4C455F45 
 7460      56545F47 
 7460      41545443 
 7460      5F455845 
 7461              	.LASF288:
 7462 1d82 43595F42 		.ascii	"CY_BLE_EVT_GATTS_XCNHG_MTU_REQ\000"
 7462      4C455F45 
 7462      56545F47 
 7462      41545453 
 7462      5F58434E 
 7463              	.LASF174:
 7464 1da1 5F5F7367 		.ascii	"__sglue\000"
 7464      6C756500 
ARM GAS  C:\Users\Brian\AppData\Local\Temp\ccNQoqIU.s 			page 176


 7465              	.LASF196:
 7466 1da9 5F676574 		.ascii	"_getdate_err\000"
 7466      64617465 
 7466      5F657272 
 7466      00
 7467              	.LASF185:
 7468 1db6 5F737472 		.ascii	"_strtok_last\000"
 7468      746F6B5F 
 7468      6C617374 
 7468      00
 7469              	.LASF192:
 7470 1dc3 5F6D6274 		.ascii	"_mbtowc_state\000"
 7470      6F77635F 
 7470      73746174 
 7470      6500
 7471              	.LASF322:
 7472 1dd1 62644861 		.ascii	"bdHandle\000"
 7472      6E646C65 
 7472      00
 7473              	.LASF402:
 7474 1dda 55415254 		.ascii	"UART_context\000"
 7474      5F636F6E 
 7474      74657874 
 7474      00
 7475              	.LASF37:
 7476 1de7 5644445F 		.ascii	"VDD_INTR_MASK\000"
 7476      494E5452 
 7476      5F4D4153 
 7476      4B00
 7477              	.LASF127:
 7478 1df5 5F666E61 		.ascii	"_fnargs\000"
 7478      72677300 
 7479              	.LASF2:
 7480 1dfd 7369676E 		.ascii	"signed char\000"
 7480      65642063 
 7480      68617200 
 7481              	.LASF70:
 7482 1e09 43595F46 		.ascii	"CY_FLASH_DRV_IPC_BUSY\000"
 7482      4C415348 
 7482      5F445256 
 7482      5F495043 
 7482      5F425553 
 7483              	.LASF154:
 7484 1e1f 5F726565 		.ascii	"_reent\000"
 7484      6E7400
 7485              	.LASF5:
 7486 1e26 73686F72 		.ascii	"short unsigned int\000"
 7486      7420756E 
 7486      7369676E 
 7486      65642069 
 7486      6E7400
 7487              	.LASF75:
 7488 1e39 43595F46 		.ascii	"CY_FLASH_DRV_OPERATION_STARTED\000"
 7488      4C415348 
 7488      5F445256 
 7488      5F4F5045 
 7488      52415449 
ARM GAS  C:\Users\Brian\AppData\Local\Temp\ccNQoqIU.s 			page 177


 7489              	.LASF259:
 7490 1e58 43595F42 		.ascii	"CY_BLE_EVT_GAP_AUTH_REQ\000"
 7490      4C455F45 
 7490      56545F47 
 7490      41505F41 
 7490      5554485F 
 7491              	.LASF299:
 7492 1e70 43595F42 		.ascii	"CY_BLE_EVT_GATTS_WRITE_CMD_REQ\000"
 7492      4C455F45 
 7492      56545F47 
 7492      41545453 
 7492      5F575249 
 7493              	.LASF244:
 7494 1e8f 43595F42 		.ascii	"CY_BLE_EVT_GET_CLK_CONFIG_COMPLETE\000"
 7494      4C455F45 
 7494      56545F47 
 7494      45545F43 
 7494      4C4B5F43 
 7495              	.LASF357:
 7496 1eb2 6D697363 		.ascii	"miscConfig\000"
 7496      436F6E66 
 7496      696700
 7497              	.LASF255:
 7498 1ebd 43595F42 		.ascii	"CY_BLE_EVT_SET_EVENT_MASK_COMPLETE\000"
 7498      4C455F45 
 7498      56545F53 
 7498      45545F45 
 7498      56454E54 
 7499              	.LASF129:
 7500 1ee0 5F666E74 		.ascii	"_fntypes\000"
 7500      79706573 
 7500      00
 7501              	.LASF137:
 7502 1ee9 5F5F7346 		.ascii	"__sFILE\000"
 7502      494C4500 
 7503              	.LASF310:
 7504 1ef1 43595F42 		.ascii	"CY_BLE_EVT_L2CAP_CONN_PARAM_UPDATE_REQ\000"
 7504      4C455F45 
 7504      56545F4C 
 7504      32434150 
 7504      5F434F4E 
 7505              	.LASF136:
 7506 1f18 5F73697A 		.ascii	"_size\000"
 7506      6500
 7507              	.LASF96:
 7508 1f1e 636F6E66 		.ascii	"configRouting\000"
 7508      6967526F 
 7508      7574696E 
 7508      6700
 7509              	.LASF193:
 7510 1f2c 5F776374 		.ascii	"_wctomb_state\000"
 7510      6F6D625F 
 7510      73746174 
 7510      6500
 7511              	.LASF100:
 7512 1f3a 5F6F6666 		.ascii	"_off_t\000"
 7512      5F7400
ARM GAS  C:\Users\Brian\AppData\Local\Temp\ccNQoqIU.s 			page 178


 7513              	.LASF77:
 7514 1f41 63795F65 		.ascii	"cy_en_flashdrv_status_t\000"
 7514      6E5F666C 
 7514      61736864 
 7514      72765F73 
 7514      74617475 
 7515              	.LASF147:
 7516 1f59 5F6E6275 		.ascii	"_nbuf\000"
 7516      6600
 7517              	.LASF184:
 7518 1f5f 5F756E75 		.ascii	"_unused_rand\000"
 7518      7365645F 
 7518      72616E64 
 7518      00
 7519              	.LASF419:
 7520 1f6c 73656E64 		.ascii	"send_threshold\000"
 7520      5F746872 
 7520      6573686F 
 7520      6C6400
 7521              	.LASF93:
 7522 1f7b 72616E67 		.ascii	"rangeIntrMask\000"
 7522      65496E74 
 7522      724D6173 
 7522      6B00
 7523              	.LASF202:
 7524 1f89 5F685F65 		.ascii	"_h_errno\000"
 7524      72726E6F 
 7524      00
 7525              	.LASF82:
 7526 1f92 63795F65 		.ascii	"cy_en_sar_range_detect_condition_t\000"
 7526      6E5F7361 
 7526      725F7261 
 7526      6E67655F 
 7526      64657465 
 7527              	.LASF261:
 7528 1fb5 43595F42 		.ascii	"CY_BLE_EVT_GAP_PASSKEY_DISPLAY_REQUEST\000"
 7528      4C455F45 
 7528      56545F47 
 7528      41505F50 
 7528      4153534B 
 7529              	.LASF153:
 7530 1fdc 5F666C61 		.ascii	"_flags2\000"
 7530      67733200 
 7531              	.LASF280:
 7532 1fe4 43595F42 		.ascii	"CY_BLE_EVT_GAP_GEN_SET_LOCAL_P256_KEYS_COMPLETE\000"
 7532      4C455F45 
 7532      56545F47 
 7532      41505F47 
 7532      454E5F53 
 7533              	.LASF130:
 7534 2014 5F69735F 		.ascii	"_is_cxa\000"
 7534      63786100 
 7535              	.LASF263:
 7536 201c 43595F42 		.ascii	"CY_BLE_EVT_GAP_AUTH_FAILED\000"
 7536      4C455F45 
 7536      56545F47 
 7536      41505F41 
ARM GAS  C:\Users\Brian\AppData\Local\Temp\ccNQoqIU.s 			page 179


 7536      5554485F 
 7537              	.LASF56:
 7538 2037 72784275 		.ascii	"rxBuf\000"
 7538      6600
 7539              	.LASF235:
 7540 203d 43595F42 		.ascii	"CY_BLE_EVT_PHY_UPDATE_COMPLETE\000"
 7540      4C455F45 
 7540      56545F50 
 7540      48595F55 
 7540      50444154 
 7541              	.LASF189:
 7542 205c 5F72616E 		.ascii	"_rand_next\000"
 7542      645F6E65 
 7542      787400
 7543              	.LASF144:
 7544 2067 5F736565 		.ascii	"_seek\000"
 7544      6B00
 7545              	.LASF112:
 7546 206d 5F6E6578 		.ascii	"_next\000"
 7546      7400
 7547              	.LASF391:
 7548 2073 7265636F 		.ascii	"record_event\000"
 7548      72645F65 
 7548      76656E74 
 7548      00
 7549              	.LASF224:
 7550 2080 43595F42 		.ascii	"CY_BLE_EVT_GET_LOCAL_RPA_COMPLETE\000"
 7550      4C455F45 
 7550      56545F47 
 7550      45545F4C 
 7550      4F43414C 
 7551              	.LASF346:
 7552 20a2 43595F42 		.ascii	"CY_BLE_CONN_STATE_CLIENT_SRVC_DISCOVERING\000"
 7552      4C455F43 
 7552      4F4E4E5F 
 7552      53544154 
 7552      455F434C 
 7553              	.LASF204:
 7554 20cc 5F6E6D61 		.ascii	"_nmalloc\000"
 7554      6C6C6F63 
 7554      00
 7555              	.LASF146:
 7556 20d5 5F756275 		.ascii	"_ubuf\000"
 7556      6600
 7557              	.LASF57:
 7558 20db 72784275 		.ascii	"rxBufSize\000"
 7558      6653697A 
 7558      6500
 7559              	.LASF401:
 7560 20e5 63795F62 		.ascii	"cy_ble_pendingFlashWrite\000"
 7560      6C655F70 
 7560      656E6469 
 7560      6E67466C 
 7560      61736857 
 7561              	.LASF268:
 7562 20fe 43595F42 		.ascii	"CY_BLE_EVT_GAP_CONNECTION_UPDATE_COMPLETE\000"
 7562      4C455F45 
ARM GAS  C:\Users\Brian\AppData\Local\Temp\ccNQoqIU.s 			page 180


 7562      56545F47 
 7562      41505F43 
 7562      4F4E4E45 
 7563              		.ident	"GCC: (GNU Tools for ARM Embedded Processors) 5.4.1 20160609 (release) [ARM/embedded-5-bran
