ARM GAS  C:\Users\Brian\AppData\Local\Temp\ccBwD5Lv.s 			page 1


   1              		.syntax unified
   2              		.cpu cortex-m0plus
   3              		.fpu softvfp
   4              		.eabi_attribute 20, 1
   5              		.eabi_attribute 21, 1
   6              		.eabi_attribute 23, 3
   7              		.eabi_attribute 24, 1
   8              		.eabi_attribute 25, 1
   9              		.eabi_attribute 26, 1
  10              		.eabi_attribute 30, 1
  11              		.eabi_attribute 34, 0
  12              		.eabi_attribute 18, 4
  13              		.thumb
  14              		.syntax unified
  15              		.file	"bluetooth.c"
  16              		.text
  17              	.Ltext0:
  18              		.cfi_sections	.debug_frame
  19              		.section	.text.write_event_to_server,"ax",%progbits
  20              		.align	2
  21              		.global	write_event_to_server
  22              		.code	16
  23              		.thumb_func
  24              		.type	write_event_to_server, %function
  25              	write_event_to_server:
  26              	.LFB445:
  27              		.file 1 "bluetooth.c"
   1:bluetooth.c   **** /* ========================================
   2:bluetooth.c   ****  *
   3:bluetooth.c   ****  * SEL VOLTAGE MONITOR
   4:bluetooth.c   ****  * TEAM REMBRANDT
   5:bluetooth.c   ****  * 
   6:bluetooth.c   ****  * blemonitor.c
   7:bluetooth.c   ****  * 
   8:bluetooth.c   ****  * This file contains the BLE initilization function and event handler which handles
   9:bluetooth.c   ****  * basic BLE stack events and write requests. Also sends information
  10:bluetooth.c   ****  * to the CM4 processor when received from the BLE client.
  11:bluetooth.c   ****  *
  12:bluetooth.c   ****  * ========================================
  13:bluetooth.c   **** */
  14:bluetooth.c   **** #include "bluetooth.h"
  15:bluetooth.c   **** 
  16:bluetooth.c   **** void init_ble(const uint8** Ptrs)
  17:bluetooth.c   **** {
  18:bluetooth.c   ****     // Set flash pointers address
  19:bluetooth.c   ****     flashPtrs = Ptrs;
  20:bluetooth.c   ****     
  21:bluetooth.c   ****     // Enable global interrupts.
  22:bluetooth.c   **** 	__enable_irq();
  23:bluetooth.c   ****     
  24:bluetooth.c   ****     // Enable CM4.
  25:bluetooth.c   ****     Cy_SysEnableCM4(CY_CORTEX_M4_APPL_ADDR);
  26:bluetooth.c   ****     
  27:bluetooth.c   ****     // Start the UART Debug Output
  28:bluetooth.c   ****     UART_Start();
  29:bluetooth.c   ****     setvbuf ( stdin, NULL, _IONBF, 0);
  30:bluetooth.c   ****     printf("Started UART\r\n");
ARM GAS  C:\Users\Brian\AppData\Local\Temp\ccBwD5Lv.s 			page 2


  31:bluetooth.c   ****     
  32:bluetooth.c   ****     // Register the IPC Callback Function.
  33:bluetooth.c   ****     Cy_IPC_Pipe_RegisterCallback(CY_IPC_EP_CYPIPE_ADDR,
  34:bluetooth.c   ****                          CM0_MessageCallback,
  35:bluetooth.c   ****                          IPC_CM4_TO_CM0_CLIENT_ID);
  36:bluetooth.c   ****     
  37:bluetooth.c   ****     // Pull number of events, thresholds, and events from flash storage
  38:bluetooth.c   ****     // if data has been written before.
  39:bluetooth.c   ****     if(flashPtrs[0][0] == 'S' && flashPtrs[0][1] == 'W')
  40:bluetooth.c   ****     {
  41:bluetooth.c   ****         printf("Flash Data Present\r\n");
  42:bluetooth.c   ****         // S W indicates that flash data has been previously written
  43:bluetooth.c   ****         // Pull number of events
  44:bluetooth.c   ****         num_events = flashPtrs[0][2];
  45:bluetooth.c   ****         // Pull thresholds
  46:bluetooth.c   ****         upper_thresh[0] = flashPtrs[0][3];
  47:bluetooth.c   ****         upper_thresh[1] = flashPtrs[0][4];
  48:bluetooth.c   ****         send_threshold(upper_thresh, UPPER_THRESHOLD);
  49:bluetooth.c   ****         lower_thresh[0] = flashPtrs[0][5];
  50:bluetooth.c   ****         lower_thresh[1] = flashPtrs[0][6];
  51:bluetooth.c   ****         send_threshold(lower_thresh, LOWER_THRESHOLD);
  52:bluetooth.c   ****         // Pull events
  53:bluetooth.c   ****         for(uint8_t i = 0; i < 10; ++i)
  54:bluetooth.c   ****         {
  55:bluetooth.c   ****             for(uint16_t j = 0; j < 160; ++j)
  56:bluetooth.c   ****             {
  57:bluetooth.c   ****                 events[i][j] = flashPtrs[i][2 * j] + 256 * flashPtrs[i][2 * i + 1];
  58:bluetooth.c   ****             }
  59:bluetooth.c   ****         }
  60:bluetooth.c   ****     }
  61:bluetooth.c   ****     else
  62:bluetooth.c   ****     {
  63:bluetooth.c   ****         printf("Flash Data NOT Present\r\n");
  64:bluetooth.c   ****         // Flash data not present, writing starting values for everything
  65:bluetooth.c   ****         num_events = 0;
  66:bluetooth.c   ****         // Upper threshold = 130V
  67:bluetooth.c   ****         upper_thresh[0] = 0x55;
  68:bluetooth.c   ****         upper_thresh[1] = 0x04;
  69:bluetooth.c   ****         send_threshold(upper_thresh, UPPER_THRESHOLD);
  70:bluetooth.c   ****         // Lower threshold = 120V
  71:bluetooth.c   ****         lower_thresh[0] = 0xAB;
  72:bluetooth.c   ****         lower_thresh[1] = 0x03;
  73:bluetooth.c   ****         send_threshold(lower_thresh, LOWER_THRESHOLD);
  74:bluetooth.c   ****         // Initialize events
  75:bluetooth.c   ****         for(uint8_t i = 0; i < 10; ++i)
  76:bluetooth.c   ****         {
  77:bluetooth.c   ****             for(uint16_t j = 0; j < 160; ++j)
  78:bluetooth.c   ****             {
  79:bluetooth.c   ****                 events[i][j] = 0;
  80:bluetooth.c   ****             }
  81:bluetooth.c   ****         }
  82:bluetooth.c   ****         // Write config values to flash
  83:bluetooth.c   ****         update_flash_config();
  84:bluetooth.c   ****         // Initialize events in flash
  85:bluetooth.c   ****         uint8_t ramData[CY_FLASH_SIZEOF_ROW];
  86:bluetooth.c   ****         for (uint16_t i = 0; i < CY_FLASH_SIZEOF_ROW; ++i)
  87:bluetooth.c   ****         {
ARM GAS  C:\Users\Brian\AppData\Local\Temp\ccBwD5Lv.s 			page 3


  88:bluetooth.c   ****             ramData[i] = 0;
  89:bluetooth.c   ****         }
  90:bluetooth.c   ****         for (uint8_t i =1; i < 11; ++i)
  91:bluetooth.c   ****         {
  92:bluetooth.c   ****             Cy_Flash_WriteRow((uint32_t)flashPtrs[i],(const uint32_t *)ramData);
  93:bluetooth.c   ****         }
  94:bluetooth.c   ****     }
  95:bluetooth.c   **** 
  96:bluetooth.c   **** 	// Start the BLE stack, register the event handler.
  97:bluetooth.c   ****     Cy_BLE_Start(GenericEventHandler); 
  98:bluetooth.c   ****     while(Cy_BLE_GetState() != CY_BLE_STATE_ON)
  99:bluetooth.c   ****     {
 100:bluetooth.c   ****         Cy_BLE_ProcessEvents();
 101:bluetooth.c   ****     }
 102:bluetooth.c   ****     
 103:bluetooth.c   ****     // Send config values to BLE Server
 104:bluetooth.c   ****     write_num_events_to_server(&num_events);
 105:bluetooth.c   ****     write_threshold_to_server(upper_thresh, UPPER_THRESHOLD);
 106:bluetooth.c   ****     write_threshold_to_server(lower_thresh, LOWER_THRESHOLD);
 107:bluetooth.c   **** }
 108:bluetooth.c   **** 
 109:bluetooth.c   **** // Event handler for handling connection and writes to BLE server
 110:bluetooth.c   **** void GenericEventHandler(uint32 event, void *eventParam)
 111:bluetooth.c   **** {
 112:bluetooth.c   ****     cy_stc_ble_gattc_write_cmd_req_t *writeReqParam;
 113:bluetooth.c   ****     switch(event) 
 114:bluetooth.c   ****     {
 115:bluetooth.c   ****         case CY_BLE_EVT_STACK_ON:
 116:bluetooth.c   ****         case CY_BLE_EVT_GAP_DEVICE_DISCONNECTED:
 117:bluetooth.c   ****             // Turn off connection LED
 118:bluetooth.c   ****             Cy_GPIO_Write(Connection_LED_0_PORT, Connection_LED_0_NUM, 0);
 119:bluetooth.c   ****             // Start advertising again
 120:bluetooth.c   ****             Cy_BLE_GAPP_StartAdvertisement(CY_BLE_ADVERTISING_FAST, CY_BLE_PERIPHERAL_CONFIGURATION
 121:bluetooth.c   ****             break;
 122:bluetooth.c   ****             
 123:bluetooth.c   ****         case CY_BLE_EVT_GATT_CONNECT_IND:
 124:bluetooth.c   ****             // Turn on connection LED
 125:bluetooth.c   ****             Cy_GPIO_Write(Connection_LED_0_PORT, Connection_LED_0_NUM, 1);
 126:bluetooth.c   ****             break;
 127:bluetooth.c   ****             
 128:bluetooth.c   ****         case CY_BLE_EVT_GATTS_WRITE_REQ:
 129:bluetooth.c   ****             writeReqParam = (cy_stc_ble_gattc_write_cmd_req_t *)eventParam;
 130:bluetooth.c   ****             if (writeReqParam->handleValPair.attrHandle == CY_BLE_CONTROL_ENABLE_CHAR_HANDLE)
 131:bluetooth.c   ****             {
 132:bluetooth.c   ****                 // Check for valid enable
 133:bluetooth.c   ****                 if (writeReqParam->handleValPair.value.val[0] <= 1)
 134:bluetooth.c   ****                 {
 135:bluetooth.c   ****                     // Send enable to CM4
 136:bluetooth.c   ****                     send_enable(writeReqParam->handleValPair.value.val[0]);
 137:bluetooth.c   ****                     // Write enable to GATT server
 138:bluetooth.c   ****                     Cy_BLE_GATTS_WriteAttributeValuePeer(&writeReqParam->connHandle, &writeReqParam
 139:bluetooth.c   ****                 }
 140:bluetooth.c   ****             }
 141:bluetooth.c   ****             if (writeReqParam->handleValPair.attrHandle == CY_BLE_CONTROL_EVENT_NUMBER_CHAR_HANDLE)
 142:bluetooth.c   ****             {
 143:bluetooth.c   ****                 // Check for valid event number
 144:bluetooth.c   ****                 if (writeReqParam->handleValPair.value.val[0] <= num_events)
ARM GAS  C:\Users\Brian\AppData\Local\Temp\ccBwD5Lv.s 			page 4


 145:bluetooth.c   ****                 {
 146:bluetooth.c   ****                     // Place requested event in GATT server
 147:bluetooth.c   ****                     write_event_to_server((uint8_t *)events[writeReqParam->handleValPair.value.val[
 148:bluetooth.c   ****                     // Write new event number to GATT server
 149:bluetooth.c   ****                     Cy_BLE_GATTS_WriteAttributeValuePeer(&writeReqParam->connHandle, &writeReqParam
 150:bluetooth.c   ****                 }
 151:bluetooth.c   ****             }
 152:bluetooth.c   ****             else if (writeReqParam->handleValPair.attrHandle == CY_BLE_CONTROL_UPPER_THRESHOLD_CHAR
 153:bluetooth.c   ****             {
 154:bluetooth.c   ****                 // Send threshold to CM4
 155:bluetooth.c   ****                 send_threshold(writeReqParam->handleValPair.value.val, UPPER_THRESHOLD);
 156:bluetooth.c   ****                 // Send new threshold to flash
 157:bluetooth.c   ****                 upper_thresh[0] = writeReqParam->handleValPair.value.val[0];
 158:bluetooth.c   ****                 upper_thresh[1] = writeReqParam->handleValPair.value.val[1];
 159:bluetooth.c   ****                 update_flash_config();
 160:bluetooth.c   ****                 // Write new threshold to GATT server
 161:bluetooth.c   ****                 Cy_BLE_GATTS_WriteAttributeValuePeer(&writeReqParam->connHandle, &writeReqParam->ha
 162:bluetooth.c   ****             }
 163:bluetooth.c   ****             else if (writeReqParam->handleValPair.attrHandle == CY_BLE_CONTROL_LOWER_THRESHOLD_CHAR
 164:bluetooth.c   ****             {
 165:bluetooth.c   ****                 // Send threshold to CM4
 166:bluetooth.c   ****                 send_threshold(writeReqParam->handleValPair.value.val, LOWER_THRESHOLD);
 167:bluetooth.c   ****                 // Send new threshold to flash
 168:bluetooth.c   ****                 lower_thresh[0] = writeReqParam->handleValPair.value.val[0];
 169:bluetooth.c   ****                 lower_thresh[1] = writeReqParam->handleValPair.value.val[1];
 170:bluetooth.c   ****                 update_flash_config();
 171:bluetooth.c   ****                 // Write new threshold to GATT server
 172:bluetooth.c   ****                 Cy_BLE_GATTS_WriteAttributeValuePeer(&writeReqParam->connHandle, &writeReqParam->ha
 173:bluetooth.c   ****             }
 174:bluetooth.c   ****             else if (writeReqParam->handleValPair.attrHandle == CY_BLE_CONTROL_TRIGGER_CHAR_HANDLE)
 175:bluetooth.c   ****             {
 176:bluetooth.c   ****                 // Send trigger indication to CM4
 177:bluetooth.c   ****                 send_trigger();
 178:bluetooth.c   ****             }
 179:bluetooth.c   ****             // Send write response
 180:bluetooth.c   ****             Cy_BLE_GATTS_WriteRsp(writeReqParam->connHandle);
 181:bluetooth.c   ****             break;          
 182:bluetooth.c   ****         default:
 183:bluetooth.c   ****             break;
 184:bluetooth.c   ****     }
 185:bluetooth.c   **** }
 186:bluetooth.c   **** 
 187:bluetooth.c   **** void write_event_to_server(uint8_t *event_byte_arr)
 188:bluetooth.c   **** {
  28              		.loc 1 188 0
  29              		.cfi_startproc
  30              		@ args = 0, pretend = 0, frame = 16
  31              		@ frame_needed = 0, uses_anonymous_args = 0
  32              	.LVL0:
  33 0000 30B5     		push	{r4, r5, lr}
  34              		.cfi_def_cfa_offset 12
  35              		.cfi_offset 4, -12
  36              		.cfi_offset 5, -8
  37              		.cfi_offset 14, -4
  38 0002 85B0     		sub	sp, sp, #20
  39              		.cfi_def_cfa_offset 32
  40 0004 0500     		movs	r5, r0
ARM GAS  C:\Users\Brian\AppData\Local\Temp\ccBwD5Lv.s 			page 5


 189:bluetooth.c   ****     cy_stc_ble_gatt_handle_value_pair_t handValPair;
 190:bluetooth.c   ****     handValPair.value.len = GATTS_EVENT_SIZE;
  41              		.loc 1 190 0
  42 0006 01AC     		add	r4, sp, #4
  43 0008 1423     		movs	r3, #20
  44 000a A380     		strh	r3, [r4, #4]
 191:bluetooth.c   ****     // Write each set of values to the GATT server
 192:bluetooth.c   ****     handValPair.attrHandle = CY_BLE_EVENT_ES_1_10_CHAR_HANDLE;
  45              		.loc 1 192 0
  46 000c 0133     		adds	r3, r3, #1
  47 000e 2381     		strh	r3, [r4, #8]
 193:bluetooth.c   ****     handValPair.value.val = event_byte_arr;
  48              		.loc 1 193 0
  49 0010 0190     		str	r0, [sp, #4]
 194:bluetooth.c   ****     Cy_BLE_GATTS_WriteAttributeValueLocal(&handValPair);
  50              		.loc 1 194 0
  51 0012 2000     		movs	r0, r4
  52              	.LVL1:
  53 0014 FFF7FEFF 		bl	Cy_BLE_GATTS_WriteAttributeValueLocal
  54              	.LVL2:
 195:bluetooth.c   ****     
 196:bluetooth.c   ****     handValPair.attrHandle = CY_BLE_EVENT_ES_11_20_CHAR_HANDLE;
  55              		.loc 1 196 0
  56 0018 1823     		movs	r3, #24
  57 001a 2381     		strh	r3, [r4, #8]
 197:bluetooth.c   ****     handValPair.value.val = event_byte_arr + 20;
  58              		.loc 1 197 0
  59 001c 2B00     		movs	r3, r5
  60 001e 1433     		adds	r3, r3, #20
  61 0020 0193     		str	r3, [sp, #4]
 198:bluetooth.c   ****     Cy_BLE_GATTS_WriteAttributeValueLocal(&handValPair);
  62              		.loc 1 198 0
  63 0022 2000     		movs	r0, r4
  64 0024 FFF7FEFF 		bl	Cy_BLE_GATTS_WriteAttributeValueLocal
  65              	.LVL3:
 199:bluetooth.c   ****     
 200:bluetooth.c   ****     handValPair.attrHandle = CY_BLE_EVENT_ES_21_30_CHAR_HANDLE;
  66              		.loc 1 200 0
  67 0028 1A23     		movs	r3, #26
  68 002a 2381     		strh	r3, [r4, #8]
 201:bluetooth.c   ****     handValPair.value.val = event_byte_arr + 40;
  69              		.loc 1 201 0
  70 002c 2B00     		movs	r3, r5
  71 002e 2833     		adds	r3, r3, #40
  72 0030 0193     		str	r3, [sp, #4]
 202:bluetooth.c   ****     Cy_BLE_GATTS_WriteAttributeValueLocal(&handValPair);
  73              		.loc 1 202 0
  74 0032 2000     		movs	r0, r4
  75 0034 FFF7FEFF 		bl	Cy_BLE_GATTS_WriteAttributeValueLocal
  76              	.LVL4:
 203:bluetooth.c   ****     
 204:bluetooth.c   ****     handValPair.attrHandle = CY_BLE_EVENT_ES_31_40_CHAR_HANDLE;
  77              		.loc 1 204 0
  78 0038 1C23     		movs	r3, #28
  79 003a 2381     		strh	r3, [r4, #8]
 205:bluetooth.c   ****     handValPair.value.val = event_byte_arr + 60;
  80              		.loc 1 205 0
ARM GAS  C:\Users\Brian\AppData\Local\Temp\ccBwD5Lv.s 			page 6


  81 003c 2B00     		movs	r3, r5
  82 003e 3C33     		adds	r3, r3, #60
  83 0040 0193     		str	r3, [sp, #4]
 206:bluetooth.c   ****     Cy_BLE_GATTS_WriteAttributeValueLocal(&handValPair);
  84              		.loc 1 206 0
  85 0042 2000     		movs	r0, r4
  86 0044 FFF7FEFF 		bl	Cy_BLE_GATTS_WriteAttributeValueLocal
  87              	.LVL5:
 207:bluetooth.c   ****     
 208:bluetooth.c   ****     handValPair.attrHandle = CY_BLE_EVENT_ES_41_50_CHAR_HANDLE;
  88              		.loc 1 208 0
  89 0048 1E23     		movs	r3, #30
  90 004a 2381     		strh	r3, [r4, #8]
 209:bluetooth.c   ****     handValPair.value.val = event_byte_arr + 80;
  91              		.loc 1 209 0
  92 004c 2B00     		movs	r3, r5
  93 004e 5033     		adds	r3, r3, #80
  94 0050 0193     		str	r3, [sp, #4]
 210:bluetooth.c   ****     Cy_BLE_GATTS_WriteAttributeValueLocal(&handValPair);
  95              		.loc 1 210 0
  96 0052 2000     		movs	r0, r4
  97 0054 FFF7FEFF 		bl	Cy_BLE_GATTS_WriteAttributeValueLocal
  98              	.LVL6:
 211:bluetooth.c   ****     
 212:bluetooth.c   ****     handValPair.attrHandle = CY_BLE_EVENT_ES_51_60_CHAR_HANDLE;
  99              		.loc 1 212 0
 100 0058 2023     		movs	r3, #32
 101 005a 2381     		strh	r3, [r4, #8]
 213:bluetooth.c   ****     handValPair.value.val = event_byte_arr + 100;
 102              		.loc 1 213 0
 103 005c 2B00     		movs	r3, r5
 104 005e 6433     		adds	r3, r3, #100
 105 0060 0193     		str	r3, [sp, #4]
 214:bluetooth.c   ****     Cy_BLE_GATTS_WriteAttributeValueLocal(&handValPair);
 106              		.loc 1 214 0
 107 0062 2000     		movs	r0, r4
 108 0064 FFF7FEFF 		bl	Cy_BLE_GATTS_WriteAttributeValueLocal
 109              	.LVL7:
 215:bluetooth.c   ****     
 216:bluetooth.c   ****     handValPair.attrHandle = CY_BLE_EVENT_ES_61_70_CHAR_HANDLE;
 110              		.loc 1 216 0
 111 0068 2223     		movs	r3, #34
 112 006a 2381     		strh	r3, [r4, #8]
 217:bluetooth.c   ****     handValPair.value.val = event_byte_arr + 120;
 113              		.loc 1 217 0
 114 006c 2B00     		movs	r3, r5
 115 006e 7833     		adds	r3, r3, #120
 116 0070 0193     		str	r3, [sp, #4]
 218:bluetooth.c   ****     Cy_BLE_GATTS_WriteAttributeValueLocal(&handValPair);
 117              		.loc 1 218 0
 118 0072 2000     		movs	r0, r4
 119 0074 FFF7FEFF 		bl	Cy_BLE_GATTS_WriteAttributeValueLocal
 120              	.LVL8:
 219:bluetooth.c   ****     
 220:bluetooth.c   ****     handValPair.attrHandle = CY_BLE_EVENT_ES_71_80_CHAR_HANDLE;
 121              		.loc 1 220 0
 122 0078 2423     		movs	r3, #36
ARM GAS  C:\Users\Brian\AppData\Local\Temp\ccBwD5Lv.s 			page 7


 123 007a 2381     		strh	r3, [r4, #8]
 221:bluetooth.c   ****     handValPair.value.val = event_byte_arr + 140;
 124              		.loc 1 221 0
 125 007c 2B00     		movs	r3, r5
 126 007e 8C33     		adds	r3, r3, #140
 127 0080 0193     		str	r3, [sp, #4]
 222:bluetooth.c   ****     Cy_BLE_GATTS_WriteAttributeValueLocal(&handValPair);
 128              		.loc 1 222 0
 129 0082 2000     		movs	r0, r4
 130 0084 FFF7FEFF 		bl	Cy_BLE_GATTS_WriteAttributeValueLocal
 131              	.LVL9:
 223:bluetooth.c   ****     
 224:bluetooth.c   ****     handValPair.attrHandle = CY_BLE_EVENT_ES_81_90_CHAR_HANDLE;
 132              		.loc 1 224 0
 133 0088 2623     		movs	r3, #38
 134 008a 2381     		strh	r3, [r4, #8]
 225:bluetooth.c   ****     handValPair.value.val = event_byte_arr + 160;
 135              		.loc 1 225 0
 136 008c 2B00     		movs	r3, r5
 137 008e A033     		adds	r3, r3, #160
 138 0090 0193     		str	r3, [sp, #4]
 226:bluetooth.c   ****     Cy_BLE_GATTS_WriteAttributeValueLocal(&handValPair);
 139              		.loc 1 226 0
 140 0092 2000     		movs	r0, r4
 141 0094 FFF7FEFF 		bl	Cy_BLE_GATTS_WriteAttributeValueLocal
 142              	.LVL10:
 227:bluetooth.c   ****     
 228:bluetooth.c   ****     handValPair.attrHandle = CY_BLE_EVENT_ES_91_100_CHAR_HANDLE;
 143              		.loc 1 228 0
 144 0098 2823     		movs	r3, #40
 145 009a 2381     		strh	r3, [r4, #8]
 229:bluetooth.c   ****     handValPair.value.val = event_byte_arr + 180;
 146              		.loc 1 229 0
 147 009c 2B00     		movs	r3, r5
 148 009e B433     		adds	r3, r3, #180
 149 00a0 0193     		str	r3, [sp, #4]
 230:bluetooth.c   ****     Cy_BLE_GATTS_WriteAttributeValueLocal(&handValPair);
 150              		.loc 1 230 0
 151 00a2 2000     		movs	r0, r4
 152 00a4 FFF7FEFF 		bl	Cy_BLE_GATTS_WriteAttributeValueLocal
 153              	.LVL11:
 231:bluetooth.c   ****     
 232:bluetooth.c   ****     handValPair.attrHandle = CY_BLE_EVENT_ES_101_110_CHAR_HANDLE;
 154              		.loc 1 232 0
 155 00a8 2A23     		movs	r3, #42
 156 00aa 2381     		strh	r3, [r4, #8]
 233:bluetooth.c   ****     handValPair.value.val = event_byte_arr + 200;
 157              		.loc 1 233 0
 158 00ac 2B00     		movs	r3, r5
 159 00ae C833     		adds	r3, r3, #200
 160 00b0 0193     		str	r3, [sp, #4]
 234:bluetooth.c   ****     Cy_BLE_GATTS_WriteAttributeValueLocal(&handValPair);
 161              		.loc 1 234 0
 162 00b2 2000     		movs	r0, r4
 163 00b4 FFF7FEFF 		bl	Cy_BLE_GATTS_WriteAttributeValueLocal
 164              	.LVL12:
 235:bluetooth.c   ****     
ARM GAS  C:\Users\Brian\AppData\Local\Temp\ccBwD5Lv.s 			page 8


 236:bluetooth.c   ****     handValPair.attrHandle = CY_BLE_EVENT_ES_111_120_CHAR_HANDLE;
 165              		.loc 1 236 0
 166 00b8 2C23     		movs	r3, #44
 167 00ba 2381     		strh	r3, [r4, #8]
 237:bluetooth.c   ****     handValPair.value.val = event_byte_arr + 220;
 168              		.loc 1 237 0
 169 00bc 2B00     		movs	r3, r5
 170 00be DC33     		adds	r3, r3, #220
 171 00c0 0193     		str	r3, [sp, #4]
 238:bluetooth.c   ****     Cy_BLE_GATTS_WriteAttributeValueLocal(&handValPair);
 172              		.loc 1 238 0
 173 00c2 2000     		movs	r0, r4
 174 00c4 FFF7FEFF 		bl	Cy_BLE_GATTS_WriteAttributeValueLocal
 175              	.LVL13:
 239:bluetooth.c   ****     
 240:bluetooth.c   ****     handValPair.attrHandle = CY_BLE_EVENT_ES_121_130_CHAR_HANDLE;
 176              		.loc 1 240 0
 177 00c8 2E23     		movs	r3, #46
 178 00ca 2381     		strh	r3, [r4, #8]
 241:bluetooth.c   ****     handValPair.value.val = event_byte_arr + 240;
 179              		.loc 1 241 0
 180 00cc 2B00     		movs	r3, r5
 181 00ce F033     		adds	r3, r3, #240
 182 00d0 0193     		str	r3, [sp, #4]
 242:bluetooth.c   ****     Cy_BLE_GATTS_WriteAttributeValueLocal(&handValPair);
 183              		.loc 1 242 0
 184 00d2 2000     		movs	r0, r4
 185 00d4 FFF7FEFF 		bl	Cy_BLE_GATTS_WriteAttributeValueLocal
 186              	.LVL14:
 243:bluetooth.c   ****     
 244:bluetooth.c   ****     handValPair.attrHandle = CY_BLE_EVENT_ES_131_140_CHAR_HANDLE;
 187              		.loc 1 244 0
 188 00d8 3023     		movs	r3, #48
 189 00da 2381     		strh	r3, [r4, #8]
 245:bluetooth.c   ****     handValPair.value.val = event_byte_arr + 260;
 190              		.loc 1 245 0
 191 00dc 6B1D     		adds	r3, r5, #5
 192 00de FF33     		adds	r3, r3, #255
 193 00e0 0193     		str	r3, [sp, #4]
 246:bluetooth.c   ****     Cy_BLE_GATTS_WriteAttributeValueLocal(&handValPair);
 194              		.loc 1 246 0
 195 00e2 2000     		movs	r0, r4
 196 00e4 FFF7FEFF 		bl	Cy_BLE_GATTS_WriteAttributeValueLocal
 197              	.LVL15:
 247:bluetooth.c   ****     
 248:bluetooth.c   ****     handValPair.attrHandle = CY_BLE_EVENT_ES_141_144_CHAR_HANDLE;
 198              		.loc 1 248 0
 199 00e8 3223     		movs	r3, #50
 200 00ea 2381     		strh	r3, [r4, #8]
 249:bluetooth.c   ****     handValPair.value.val = event_byte_arr + 280;
 201              		.loc 1 249 0
 202 00ec 1935     		adds	r5, r5, #25
 203              	.LVL16:
 204 00ee FF35     		adds	r5, r5, #255
 205              	.LVL17:
 206 00f0 0195     		str	r5, [sp, #4]
 250:bluetooth.c   ****     Cy_BLE_GATTS_WriteAttributeValueLocal(&handValPair);
ARM GAS  C:\Users\Brian\AppData\Local\Temp\ccBwD5Lv.s 			page 9


 207              		.loc 1 250 0
 208 00f2 2000     		movs	r0, r4
 209 00f4 FFF7FEFF 		bl	Cy_BLE_GATTS_WriteAttributeValueLocal
 210              	.LVL18:
 251:bluetooth.c   **** }
 211              		.loc 1 251 0
 212 00f8 05B0     		add	sp, sp, #20
 213              		@ sp needed
 214              	.LVL19:
 215 00fa 30BD     		pop	{r4, r5, pc}
 216              		.cfi_endproc
 217              	.LFE445:
 218              		.size	write_event_to_server, .-write_event_to_server
 219              		.section	.text.write_num_events_to_server,"ax",%progbits
 220              		.align	2
 221              		.global	write_num_events_to_server
 222              		.code	16
 223              		.thumb_func
 224              		.type	write_num_events_to_server, %function
 225              	write_num_events_to_server:
 226              	.LFB446:
 252:bluetooth.c   **** 
 253:bluetooth.c   **** void write_num_events_to_server(uint8_t * num_events_ptr)
 254:bluetooth.c   **** {
 227              		.loc 1 254 0
 228              		.cfi_startproc
 229              		@ args = 0, pretend = 0, frame = 16
 230              		@ frame_needed = 0, uses_anonymous_args = 0
 231              	.LVL20:
 232 0000 00B5     		push	{lr}
 233              		.cfi_def_cfa_offset 4
 234              		.cfi_offset 14, -4
 235 0002 85B0     		sub	sp, sp, #20
 236              		.cfi_def_cfa_offset 24
 255:bluetooth.c   ****     cy_stc_ble_gatt_handle_value_pair_t handValPair;
 256:bluetooth.c   ****     handValPair.attrHandle = CY_BLE_CONTROL_NUMBER_OF_EVENTS_CHAR_HANDLE;
 237              		.loc 1 256 0
 238 0004 01AB     		add	r3, sp, #4
 239 0006 3D22     		movs	r2, #61
 240 0008 1A81     		strh	r2, [r3, #8]
 257:bluetooth.c   ****     handValPair.value.val = num_events_ptr;
 241              		.loc 1 257 0
 242 000a 0190     		str	r0, [sp, #4]
 258:bluetooth.c   ****     handValPair.value.len = GATTS_NUM_EVENTS_SIZE;
 243              		.loc 1 258 0
 244 000c 3C3A     		subs	r2, r2, #60
 245 000e 9A80     		strh	r2, [r3, #4]
 259:bluetooth.c   ****     Cy_BLE_GATTS_WriteAttributeValueLocal(&handValPair);
 246              		.loc 1 259 0
 247 0010 1800     		movs	r0, r3
 248              	.LVL21:
 249 0012 FFF7FEFF 		bl	Cy_BLE_GATTS_WriteAttributeValueLocal
 250              	.LVL22:
 260:bluetooth.c   **** }
 251              		.loc 1 260 0
 252 0016 05B0     		add	sp, sp, #20
 253              		@ sp needed
ARM GAS  C:\Users\Brian\AppData\Local\Temp\ccBwD5Lv.s 			page 10


 254 0018 00BD     		pop	{pc}
 255              		.cfi_endproc
 256              	.LFE446:
 257              		.size	write_num_events_to_server, .-write_num_events_to_server
 258 001a C046     		.section	.text.write_voltage_to_server,"ax",%progbits
 259              		.align	2
 260              		.global	write_voltage_to_server
 261              		.code	16
 262              		.thumb_func
 263              		.type	write_voltage_to_server, %function
 264              	write_voltage_to_server:
 265              	.LFB447:
 261:bluetooth.c   **** 
 262:bluetooth.c   **** void write_voltage_to_server(uint8_t * voltage_ptr)
 263:bluetooth.c   **** {
 266              		.loc 1 263 0
 267              		.cfi_startproc
 268              		@ args = 0, pretend = 0, frame = 16
 269              		@ frame_needed = 0, uses_anonymous_args = 0
 270              	.LVL23:
 271 0000 00B5     		push	{lr}
 272              		.cfi_def_cfa_offset 4
 273              		.cfi_offset 14, -4
 274 0002 85B0     		sub	sp, sp, #20
 275              		.cfi_def_cfa_offset 24
 264:bluetooth.c   ****     cy_stc_ble_gatt_handle_value_pair_t handValPair;
 265:bluetooth.c   ****     handValPair.attrHandle = CY_BLE_METER_CURRENT_VOLTAGE_CHAR_HANDLE;
 276              		.loc 1 265 0
 277 0004 01AB     		add	r3, sp, #4
 278 0006 1222     		movs	r2, #18
 279 0008 1A81     		strh	r2, [r3, #8]
 266:bluetooth.c   ****     handValPair.value.val = voltage_ptr;
 280              		.loc 1 266 0
 281 000a 0190     		str	r0, [sp, #4]
 267:bluetooth.c   ****     handValPair.value.len = GATTS_VOLTAGE_SIZE;
 282              		.loc 1 267 0
 283 000c 103A     		subs	r2, r2, #16
 284 000e 9A80     		strh	r2, [r3, #4]
 268:bluetooth.c   ****     Cy_BLE_GATTS_WriteAttributeValueLocal(&handValPair);   
 285              		.loc 1 268 0
 286 0010 1800     		movs	r0, r3
 287              	.LVL24:
 288 0012 FFF7FEFF 		bl	Cy_BLE_GATTS_WriteAttributeValueLocal
 289              	.LVL25:
 269:bluetooth.c   **** }
 290              		.loc 1 269 0
 291 0016 05B0     		add	sp, sp, #20
 292              		@ sp needed
 293 0018 00BD     		pop	{pc}
 294              		.cfi_endproc
 295              	.LFE447:
 296              		.size	write_voltage_to_server, .-write_voltage_to_server
 297 001a C046     		.section	.text.write_threshold_to_server,"ax",%progbits
 298              		.align	2
 299              		.global	write_threshold_to_server
 300              		.code	16
 301              		.thumb_func
ARM GAS  C:\Users\Brian\AppData\Local\Temp\ccBwD5Lv.s 			page 11


 302              		.type	write_threshold_to_server, %function
 303              	write_threshold_to_server:
 304              	.LFB448:
 270:bluetooth.c   **** 
 271:bluetooth.c   **** void write_threshold_to_server(uint8_t * threshold_ptr, uint8_t upper_or_lower)
 272:bluetooth.c   **** {
 305              		.loc 1 272 0
 306              		.cfi_startproc
 307              		@ args = 0, pretend = 0, frame = 16
 308              		@ frame_needed = 0, uses_anonymous_args = 0
 309              	.LVL26:
 310 0000 00B5     		push	{lr}
 311              		.cfi_def_cfa_offset 4
 312              		.cfi_offset 14, -4
 313 0002 85B0     		sub	sp, sp, #20
 314              		.cfi_def_cfa_offset 24
 273:bluetooth.c   ****     cy_stc_ble_gatt_handle_value_pair_t handValPair;
 274:bluetooth.c   ****     if (upper_or_lower == UPPER_THRESHOLD)
 315              		.loc 1 274 0
 316 0004 0229     		cmp	r1, #2
 317 0006 03D1     		bne	.L5
 275:bluetooth.c   ****     {
 276:bluetooth.c   ****         handValPair.attrHandle = CY_BLE_CONTROL_UPPER_THRESHOLD_CHAR_HANDLE;
 318              		.loc 1 276 0
 319 0008 3922     		movs	r2, #57
 320 000a 01AB     		add	r3, sp, #4
 321 000c 1A81     		strh	r2, [r3, #8]
 322 000e 02E0     		b	.L6
 323              	.L5:
 277:bluetooth.c   ****     }
 278:bluetooth.c   ****     else
 279:bluetooth.c   ****     {
 280:bluetooth.c   ****         handValPair.attrHandle = CY_BLE_CONTROL_LOWER_THRESHOLD_CHAR_HANDLE;
 324              		.loc 1 280 0
 325 0010 3B22     		movs	r2, #59
 326 0012 01AB     		add	r3, sp, #4
 327 0014 1A81     		strh	r2, [r3, #8]
 328              	.L6:
 281:bluetooth.c   ****     }
 282:bluetooth.c   ****     handValPair.value.val = threshold_ptr;
 329              		.loc 1 282 0
 330 0016 01AB     		add	r3, sp, #4
 331 0018 0190     		str	r0, [sp, #4]
 283:bluetooth.c   ****     handValPair.value.len = GATTS_THRESHOLD_SIZE;
 332              		.loc 1 283 0
 333 001a 0222     		movs	r2, #2
 334 001c 9A80     		strh	r2, [r3, #4]
 284:bluetooth.c   ****     Cy_BLE_GATTS_WriteAttributeValueLocal(&handValPair);
 335              		.loc 1 284 0
 336 001e 1800     		movs	r0, r3
 337              	.LVL27:
 338 0020 FFF7FEFF 		bl	Cy_BLE_GATTS_WriteAttributeValueLocal
 339              	.LVL28:
 285:bluetooth.c   **** }
 340              		.loc 1 285 0
 341 0024 05B0     		add	sp, sp, #20
 342              		@ sp needed
ARM GAS  C:\Users\Brian\AppData\Local\Temp\ccBwD5Lv.s 			page 12


 343 0026 00BD     		pop	{pc}
 344              		.cfi_endproc
 345              	.LFE448:
 346              		.size	write_threshold_to_server, .-write_threshold_to_server
 347              		.section	.text.update_flash_config,"ax",%progbits
 348              		.align	2
 349              		.global	update_flash_config
 350              		.code	16
 351              		.thumb_func
 352              		.type	update_flash_config, %function
 353              	update_flash_config:
 354              	.LFB449:
 286:bluetooth.c   **** 
 287:bluetooth.c   **** void update_flash_config(void)
 288:bluetooth.c   **** {
 355              		.loc 1 288 0
 356              		.cfi_startproc
 357              		@ args = 0, pretend = 0, frame = 512
 358              		@ frame_needed = 0, uses_anonymous_args = 0
 359 0000 81B5     		push	{r0, r7, lr}
 360              		.cfi_def_cfa_offset 12
 361              		.cfi_offset 0, -12
 362              		.cfi_offset 7, -8
 363              		.cfi_offset 14, -4
 364 0002 FFB0     		sub	sp, sp, #508
 365              		.cfi_def_cfa_offset 520
 366              	.LVL29:
 367              	.LBB15:
 289:bluetooth.c   ****     uint8_t ramData[CY_FLASH_SIZEOF_ROW];
 290:bluetooth.c   ****     for (uint16_t i = 0; i < CY_FLASH_SIZEOF_ROW; ++i)
 368              		.loc 1 290 0
 369 0004 0023     		movs	r3, #0
 370 0006 04E0     		b	.L8
 371              	.LVL30:
 372              	.L9:
 291:bluetooth.c   ****     {
 292:bluetooth.c   ****         ramData[i] = 0;
 373              		.loc 1 292 0 discriminator 3
 374 0008 0022     		movs	r2, #0
 375 000a 6946     		mov	r1, sp
 376 000c CA54     		strb	r2, [r1, r3]
 290:bluetooth.c   ****     {
 377              		.loc 1 290 0 discriminator 3
 378 000e 0133     		adds	r3, r3, #1
 379              	.LVL31:
 380 0010 9BB2     		uxth	r3, r3
 381              	.LVL32:
 382              	.L8:
 290:bluetooth.c   ****     {
 383              		.loc 1 290 0 is_stmt 0 discriminator 1
 384 0012 114A     		ldr	r2, .L11
 385 0014 9342     		cmp	r3, r2
 386 0016 F7D9     		bls	.L9
 387              	.LBE15:
 293:bluetooth.c   ****     }
 294:bluetooth.c   ****     ramData[0] = 'S';
 388              		.loc 1 294 0 is_stmt 1
ARM GAS  C:\Users\Brian\AppData\Local\Temp\ccBwD5Lv.s 			page 13


 389 0018 5323     		movs	r3, #83
 390              	.LVL33:
 391 001a 6A46     		mov	r2, sp
 392 001c 1370     		strb	r3, [r2]
 295:bluetooth.c   ****     ramData[1] = 'W';
 393              		.loc 1 295 0
 394 001e 0433     		adds	r3, r3, #4
 395 0020 5370     		strb	r3, [r2, #1]
 296:bluetooth.c   ****     ramData[2] = num_events;
 396              		.loc 1 296 0
 397 0022 0E4B     		ldr	r3, .L11+4
 398 0024 1B78     		ldrb	r3, [r3]
 399 0026 9370     		strb	r3, [r2, #2]
 297:bluetooth.c   ****     ramData[3] = upper_thresh[0];
 400              		.loc 1 297 0
 401 0028 0D4B     		ldr	r3, .L11+8
 402 002a 1A78     		ldrb	r2, [r3]
 403 002c 6946     		mov	r1, sp
 404 002e CA70     		strb	r2, [r1, #3]
 298:bluetooth.c   ****     ramData[4] = upper_thresh[1];
 405              		.loc 1 298 0
 406 0030 5B78     		ldrb	r3, [r3, #1]
 407 0032 0B71     		strb	r3, [r1, #4]
 299:bluetooth.c   ****     ramData[5] = lower_thresh[0];
 408              		.loc 1 299 0
 409 0034 0B4B     		ldr	r3, .L11+12
 410 0036 1A78     		ldrb	r2, [r3]
 411 0038 4A71     		strb	r2, [r1, #5]
 300:bluetooth.c   ****     ramData[6] = lower_thresh[1];
 412              		.loc 1 300 0
 413 003a 5B78     		ldrb	r3, [r3, #1]
 414 003c 8B71     		strb	r3, [r1, #6]
 301:bluetooth.c   ****     cy_en_flashdrv_status_t result;
 302:bluetooth.c   ****     result = Cy_Flash_WriteRow((uint32)flashPtrs[0],(const uint32_t *) ramData);
 415              		.loc 1 302 0
 416 003e 0A4B     		ldr	r3, .L11+16
 417 0040 1B68     		ldr	r3, [r3]
 418 0042 1868     		ldr	r0, [r3]
 419 0044 FFF7FEFF 		bl	Cy_Flash_WriteRow
 420              	.LVL34:
 303:bluetooth.c   ****     if(result == CY_FLASH_DRV_SUCCESS)
 421              		.loc 1 303 0
 422 0048 0028     		cmp	r0, #0
 423 004a 02D1     		bne	.L7
 304:bluetooth.c   ****     {
 305:bluetooth.c   ****         printf("Settings written to flash!\r\n");
 424              		.loc 1 305 0
 425 004c 0748     		ldr	r0, .L11+20
 426              	.LVL35:
 427 004e FFF7FEFF 		bl	puts
 428              	.LVL36:
 429              	.L7:
 306:bluetooth.c   ****     }
 307:bluetooth.c   **** }
 430              		.loc 1 307 0
 431 0052 7FB0     		add	sp, sp, #508
 432              		@ sp needed
ARM GAS  C:\Users\Brian\AppData\Local\Temp\ccBwD5Lv.s 			page 14


 433 0054 81BD     		pop	{r0, r7, pc}
 434              	.L12:
 435 0056 C046     		.align	2
 436              	.L11:
 437 0058 FF010000 		.word	511
 438 005c 00000000 		.word	num_events
 439 0060 00000000 		.word	upper_thresh
 440 0064 00000000 		.word	lower_thresh
 441 0068 00000000 		.word	flashPtrs
 442 006c 00000000 		.word	.LC4
 443              		.cfi_endproc
 444              	.LFE449:
 445              		.size	update_flash_config, .-update_flash_config
 446              		.section	.text.init_ble,"ax",%progbits
 447              		.align	2
 448              		.global	init_ble
 449              		.code	16
 450              		.thumb_func
 451              		.type	init_ble, %function
 452              	init_ble:
 453              	.LFB443:
  17:bluetooth.c   ****     // Set flash pointers address
 454              		.loc 1 17 0
 455              		.cfi_startproc
 456              		@ args = 0, pretend = 0, frame = 512
 457              		@ frame_needed = 0, uses_anonymous_args = 0
 458              	.LVL37:
 459 0000 30B5     		push	{r4, r5, lr}
 460              		.cfi_def_cfa_offset 12
 461              		.cfi_offset 4, -12
 462              		.cfi_offset 5, -8
 463              		.cfi_offset 14, -4
 464 0002 5D4C     		ldr	r4, .L30
 465 0004 A544     		add	sp, sp, r4
 466              		.cfi_def_cfa_offset 528
  19:bluetooth.c   ****     
 467              		.loc 1 19 0
 468 0006 5D4C     		ldr	r4, .L30+4
 469 0008 2060     		str	r0, [r4]
 470              	.LBB16:
 471              	.LBB17:
 472              		.file 2 "Generated_Source\\PSoC6\\pdl\\cmsis/include/cmsis_gcc.h"
   1:Generated_Source\PSoC6\pdl\cmsis/include/cmsis_gcc.h **** /**************************************************************************//**
   2:Generated_Source\PSoC6\pdl\cmsis/include/cmsis_gcc.h ****  * @file     cmsis_gcc.h
   3:Generated_Source\PSoC6\pdl\cmsis/include/cmsis_gcc.h ****  * @brief    CMSIS compiler GCC header file
   4:Generated_Source\PSoC6\pdl\cmsis/include/cmsis_gcc.h ****  * @version  V5.0.1
   5:Generated_Source\PSoC6\pdl\cmsis/include/cmsis_gcc.h ****  * @date     02. February 2017
   6:Generated_Source\PSoC6\pdl\cmsis/include/cmsis_gcc.h ****  ******************************************************************************/
   7:Generated_Source\PSoC6\pdl\cmsis/include/cmsis_gcc.h **** /*
   8:Generated_Source\PSoC6\pdl\cmsis/include/cmsis_gcc.h ****  * Copyright (c) 2009-2017 ARM Limited. All rights reserved.
   9:Generated_Source\PSoC6\pdl\cmsis/include/cmsis_gcc.h ****  *
  10:Generated_Source\PSoC6\pdl\cmsis/include/cmsis_gcc.h ****  * SPDX-License-Identifier: Apache-2.0
  11:Generated_Source\PSoC6\pdl\cmsis/include/cmsis_gcc.h ****  *
  12:Generated_Source\PSoC6\pdl\cmsis/include/cmsis_gcc.h ****  * Licensed under the Apache License, Version 2.0 (the License); you may
  13:Generated_Source\PSoC6\pdl\cmsis/include/cmsis_gcc.h ****  * not use this file except in compliance with the License.
  14:Generated_Source\PSoC6\pdl\cmsis/include/cmsis_gcc.h ****  * You may obtain a copy of the License at
  15:Generated_Source\PSoC6\pdl\cmsis/include/cmsis_gcc.h ****  *
ARM GAS  C:\Users\Brian\AppData\Local\Temp\ccBwD5Lv.s 			page 15


  16:Generated_Source\PSoC6\pdl\cmsis/include/cmsis_gcc.h ****  * www.apache.org/licenses/LICENSE-2.0
  17:Generated_Source\PSoC6\pdl\cmsis/include/cmsis_gcc.h ****  *
  18:Generated_Source\PSoC6\pdl\cmsis/include/cmsis_gcc.h ****  * Unless required by applicable law or agreed to in writing, software
  19:Generated_Source\PSoC6\pdl\cmsis/include/cmsis_gcc.h ****  * distributed under the License is distributed on an AS IS BASIS, WITHOUT
  20:Generated_Source\PSoC6\pdl\cmsis/include/cmsis_gcc.h ****  * WARRANTIES OR CONDITIONS OF ANY KIND, either express or implied.
  21:Generated_Source\PSoC6\pdl\cmsis/include/cmsis_gcc.h ****  * See the License for the specific language governing permissions and
  22:Generated_Source\PSoC6\pdl\cmsis/include/cmsis_gcc.h ****  * limitations under the License.
  23:Generated_Source\PSoC6\pdl\cmsis/include/cmsis_gcc.h ****  */
  24:Generated_Source\PSoC6\pdl\cmsis/include/cmsis_gcc.h **** 
  25:Generated_Source\PSoC6\pdl\cmsis/include/cmsis_gcc.h **** #ifndef __CMSIS_GCC_H
  26:Generated_Source\PSoC6\pdl\cmsis/include/cmsis_gcc.h **** #define __CMSIS_GCC_H
  27:Generated_Source\PSoC6\pdl\cmsis/include/cmsis_gcc.h **** 
  28:Generated_Source\PSoC6\pdl\cmsis/include/cmsis_gcc.h **** /* ignore some GCC warnings */
  29:Generated_Source\PSoC6\pdl\cmsis/include/cmsis_gcc.h **** #pragma GCC diagnostic push
  30:Generated_Source\PSoC6\pdl\cmsis/include/cmsis_gcc.h **** #pragma GCC diagnostic ignored "-Wsign-conversion"
  31:Generated_Source\PSoC6\pdl\cmsis/include/cmsis_gcc.h **** #pragma GCC diagnostic ignored "-Wconversion"
  32:Generated_Source\PSoC6\pdl\cmsis/include/cmsis_gcc.h **** #pragma GCC diagnostic ignored "-Wunused-parameter"
  33:Generated_Source\PSoC6\pdl\cmsis/include/cmsis_gcc.h **** 
  34:Generated_Source\PSoC6\pdl\cmsis/include/cmsis_gcc.h **** /* CMSIS compiler specific defines */
  35:Generated_Source\PSoC6\pdl\cmsis/include/cmsis_gcc.h **** #ifndef   __ASM
  36:Generated_Source\PSoC6\pdl\cmsis/include/cmsis_gcc.h ****   #define __ASM                     __asm
  37:Generated_Source\PSoC6\pdl\cmsis/include/cmsis_gcc.h **** #endif
  38:Generated_Source\PSoC6\pdl\cmsis/include/cmsis_gcc.h **** #ifndef   __INLINE
  39:Generated_Source\PSoC6\pdl\cmsis/include/cmsis_gcc.h ****   #define __INLINE                  inline
  40:Generated_Source\PSoC6\pdl\cmsis/include/cmsis_gcc.h **** #endif
  41:Generated_Source\PSoC6\pdl\cmsis/include/cmsis_gcc.h **** #ifndef   __STATIC_INLINE
  42:Generated_Source\PSoC6\pdl\cmsis/include/cmsis_gcc.h ****   #define __STATIC_INLINE           static inline
  43:Generated_Source\PSoC6\pdl\cmsis/include/cmsis_gcc.h **** #endif
  44:Generated_Source\PSoC6\pdl\cmsis/include/cmsis_gcc.h **** #ifndef   __NO_RETURN
  45:Generated_Source\PSoC6\pdl\cmsis/include/cmsis_gcc.h ****   #define __NO_RETURN               __attribute__((noreturn))
  46:Generated_Source\PSoC6\pdl\cmsis/include/cmsis_gcc.h **** #endif
  47:Generated_Source\PSoC6\pdl\cmsis/include/cmsis_gcc.h **** #ifndef   __USED
  48:Generated_Source\PSoC6\pdl\cmsis/include/cmsis_gcc.h ****   #define __USED                    __attribute__((used))
  49:Generated_Source\PSoC6\pdl\cmsis/include/cmsis_gcc.h **** #endif
  50:Generated_Source\PSoC6\pdl\cmsis/include/cmsis_gcc.h **** #ifndef   __WEAK
  51:Generated_Source\PSoC6\pdl\cmsis/include/cmsis_gcc.h ****   #define __WEAK                    __attribute__((weak))
  52:Generated_Source\PSoC6\pdl\cmsis/include/cmsis_gcc.h **** #endif
  53:Generated_Source\PSoC6\pdl\cmsis/include/cmsis_gcc.h **** #ifndef   __UNALIGNED_UINT32
  54:Generated_Source\PSoC6\pdl\cmsis/include/cmsis_gcc.h **** #pragma GCC diagnostic push
  55:Generated_Source\PSoC6\pdl\cmsis/include/cmsis_gcc.h **** #pragma GCC diagnostic ignored "-Wpacked"
  56:Generated_Source\PSoC6\pdl\cmsis/include/cmsis_gcc.h **** #pragma GCC diagnostic ignored "-Wattributes"
  57:Generated_Source\PSoC6\pdl\cmsis/include/cmsis_gcc.h ****   struct __attribute__((packed)) T_UINT32 { uint32_t v; };
  58:Generated_Source\PSoC6\pdl\cmsis/include/cmsis_gcc.h **** #pragma GCC diagnostic pop
  59:Generated_Source\PSoC6\pdl\cmsis/include/cmsis_gcc.h ****   #define __UNALIGNED_UINT32(x)     (((struct T_UINT32 *)(x))->v)
  60:Generated_Source\PSoC6\pdl\cmsis/include/cmsis_gcc.h **** #endif
  61:Generated_Source\PSoC6\pdl\cmsis/include/cmsis_gcc.h **** #ifndef   __ALIGNED
  62:Generated_Source\PSoC6\pdl\cmsis/include/cmsis_gcc.h ****   #define __ALIGNED(x)              __attribute__((aligned(x)))
  63:Generated_Source\PSoC6\pdl\cmsis/include/cmsis_gcc.h **** #endif
  64:Generated_Source\PSoC6\pdl\cmsis/include/cmsis_gcc.h **** #ifndef   __PACKED
  65:Generated_Source\PSoC6\pdl\cmsis/include/cmsis_gcc.h ****   #define __PACKED                  __attribute__((packed, aligned(1)))
  66:Generated_Source\PSoC6\pdl\cmsis/include/cmsis_gcc.h **** #endif
  67:Generated_Source\PSoC6\pdl\cmsis/include/cmsis_gcc.h **** #ifndef   __PACKED_STRUCT
  68:Generated_Source\PSoC6\pdl\cmsis/include/cmsis_gcc.h ****   #define __PACKED_STRUCT           struct __attribute__((packed, aligned(1)))
  69:Generated_Source\PSoC6\pdl\cmsis/include/cmsis_gcc.h **** #endif
  70:Generated_Source\PSoC6\pdl\cmsis/include/cmsis_gcc.h **** 
  71:Generated_Source\PSoC6\pdl\cmsis/include/cmsis_gcc.h **** 
  72:Generated_Source\PSoC6\pdl\cmsis/include/cmsis_gcc.h **** /* ###########################  Core Function Access  ########################### */
ARM GAS  C:\Users\Brian\AppData\Local\Temp\ccBwD5Lv.s 			page 16


  73:Generated_Source\PSoC6\pdl\cmsis/include/cmsis_gcc.h **** /** \ingroup  CMSIS_Core_FunctionInterface
  74:Generated_Source\PSoC6\pdl\cmsis/include/cmsis_gcc.h ****     \defgroup CMSIS_Core_RegAccFunctions CMSIS Core Register Access Functions
  75:Generated_Source\PSoC6\pdl\cmsis/include/cmsis_gcc.h ****   @{
  76:Generated_Source\PSoC6\pdl\cmsis/include/cmsis_gcc.h ****  */
  77:Generated_Source\PSoC6\pdl\cmsis/include/cmsis_gcc.h **** 
  78:Generated_Source\PSoC6\pdl\cmsis/include/cmsis_gcc.h **** /**
  79:Generated_Source\PSoC6\pdl\cmsis/include/cmsis_gcc.h ****   \brief   Enable IRQ Interrupts
  80:Generated_Source\PSoC6\pdl\cmsis/include/cmsis_gcc.h ****   \details Enables IRQ interrupts by clearing the I-bit in the CPSR.
  81:Generated_Source\PSoC6\pdl\cmsis/include/cmsis_gcc.h ****            Can only be executed in Privileged modes.
  82:Generated_Source\PSoC6\pdl\cmsis/include/cmsis_gcc.h ****  */
  83:Generated_Source\PSoC6\pdl\cmsis/include/cmsis_gcc.h **** __attribute__((always_inline)) __STATIC_INLINE void __enable_irq(void)
  84:Generated_Source\PSoC6\pdl\cmsis/include/cmsis_gcc.h **** {
  85:Generated_Source\PSoC6\pdl\cmsis/include/cmsis_gcc.h ****   __ASM volatile ("cpsie i" : : : "memory");
 473              		.loc 2 85 0
 474              		.syntax divided
 475              	@ 85 "Generated_Source\PSoC6\pdl\cmsis/include/cmsis_gcc.h" 1
 476 000a 62B6     		cpsie i
 477              	@ 0 "" 2
 478              		.thumb
 479              		.syntax unified
 480              	.LBE17:
 481              	.LBE16:
  25:bluetooth.c   ****     
 482              		.loc 1 25 0
 483 000c 5C48     		ldr	r0, .L30+8
 484              	.LVL38:
 485 000e FFF7FEFF 		bl	Cy_SysEnableCM4
 486              	.LVL39:
  28:bluetooth.c   ****     setvbuf ( stdin, NULL, _IONBF, 0);
 487              		.loc 1 28 0
 488 0012 FFF7FEFF 		bl	UART_Start
 489              	.LVL40:
  29:bluetooth.c   ****     printf("Started UART\r\n");
 490              		.loc 1 29 0
 491 0016 5B4B     		ldr	r3, .L30+12
 492 0018 1B68     		ldr	r3, [r3]
 493 001a 5868     		ldr	r0, [r3, #4]
 494 001c 0023     		movs	r3, #0
 495 001e 0222     		movs	r2, #2
 496 0020 0021     		movs	r1, #0
 497 0022 FFF7FEFF 		bl	setvbuf
 498              	.LVL41:
  30:bluetooth.c   ****     
 499              		.loc 1 30 0
 500 0026 5848     		ldr	r0, .L30+16
 501 0028 FFF7FEFF 		bl	puts
 502              	.LVL42:
  33:bluetooth.c   ****                          CM0_MessageCallback,
 503              		.loc 1 33 0
 504 002c 0122     		movs	r2, #1
 505 002e 5749     		ldr	r1, .L30+20
 506 0030 0020     		movs	r0, #0
 507 0032 FFF7FEFF 		bl	Cy_IPC_Pipe_RegisterCallback
 508              	.LVL43:
  39:bluetooth.c   ****     {
 509              		.loc 1 39 0
 510 0036 2368     		ldr	r3, [r4]
ARM GAS  C:\Users\Brian\AppData\Local\Temp\ccBwD5Lv.s 			page 17


 511 0038 1B68     		ldr	r3, [r3]
 512 003a 1A78     		ldrb	r2, [r3]
 513 003c 532A     		cmp	r2, #83
 514 003e 3ED1     		bne	.L14
  39:bluetooth.c   ****     {
 515              		.loc 1 39 0 is_stmt 0 discriminator 1
 516 0040 5B78     		ldrb	r3, [r3, #1]
 517 0042 572B     		cmp	r3, #87
 518 0044 3BD1     		bne	.L14
  41:bluetooth.c   ****         // S W indicates that flash data has been previously written
 519              		.loc 1 41 0 is_stmt 1
 520 0046 5248     		ldr	r0, .L30+24
 521 0048 FFF7FEFF 		bl	puts
 522              	.LVL44:
  44:bluetooth.c   ****         // Pull thresholds
 523              		.loc 1 44 0
 524 004c 4B4C     		ldr	r4, .L30+4
 525 004e 2368     		ldr	r3, [r4]
 526 0050 1A68     		ldr	r2, [r3]
 527 0052 9178     		ldrb	r1, [r2, #2]
 528 0054 4F4A     		ldr	r2, .L30+28
 529 0056 1170     		strb	r1, [r2]
  46:bluetooth.c   ****         upper_thresh[1] = flashPtrs[0][4];
 530              		.loc 1 46 0
 531 0058 4F48     		ldr	r0, .L30+32
 532 005a 1A68     		ldr	r2, [r3]
 533 005c D278     		ldrb	r2, [r2, #3]
 534 005e 0270     		strb	r2, [r0]
  47:bluetooth.c   ****         send_threshold(upper_thresh, UPPER_THRESHOLD);
 535              		.loc 1 47 0
 536 0060 1B68     		ldr	r3, [r3]
 537 0062 1B79     		ldrb	r3, [r3, #4]
 538 0064 4370     		strb	r3, [r0, #1]
  48:bluetooth.c   ****         lower_thresh[0] = flashPtrs[0][5];
 539              		.loc 1 48 0
 540 0066 0221     		movs	r1, #2
 541 0068 FFF7FEFF 		bl	send_threshold
 542              	.LVL45:
  49:bluetooth.c   ****         lower_thresh[1] = flashPtrs[0][6];
 543              		.loc 1 49 0
 544 006c 2368     		ldr	r3, [r4]
 545 006e 4B48     		ldr	r0, .L30+36
 546 0070 1A68     		ldr	r2, [r3]
 547 0072 5279     		ldrb	r2, [r2, #5]
 548 0074 0270     		strb	r2, [r0]
  50:bluetooth.c   ****         send_threshold(lower_thresh, LOWER_THRESHOLD);
 549              		.loc 1 50 0
 550 0076 1B68     		ldr	r3, [r3]
 551 0078 9B79     		ldrb	r3, [r3, #6]
 552 007a 4370     		strb	r3, [r0, #1]
  51:bluetooth.c   ****         // Pull events
 553              		.loc 1 51 0
 554 007c 0321     		movs	r1, #3
 555 007e FFF7FEFF 		bl	send_threshold
 556              	.LVL46:
 557              	.LBB18:
  53:bluetooth.c   ****         {
ARM GAS  C:\Users\Brian\AppData\Local\Temp\ccBwD5Lv.s 			page 18


 558              		.loc 1 53 0
 559 0082 0025     		movs	r5, #0
 560 0084 18E0     		b	.L15
 561              	.LVL47:
 562              	.L16:
 563              	.LBB19:
  57:bluetooth.c   ****             }
 564              		.loc 1 57 0 discriminator 3
 565 0086 3D4A     		ldr	r2, .L30+4
 566 0088 1268     		ldr	r2, [r2]
 567 008a A900     		lsls	r1, r5, #2
 568 008c 8C58     		ldr	r4, [r1, r2]
 569 008e 5A00     		lsls	r2, r3, #1
 570 0090 A05C     		ldrb	r0, [r4, r2]
 571 0092 6A00     		lsls	r2, r5, #1
 572 0094 A218     		adds	r2, r4, r2
 573 0096 5478     		ldrb	r4, [r2, #1]
 574 0098 4919     		adds	r1, r1, r5
 575 009a 4A01     		lsls	r2, r1, #5
 576 009c D218     		adds	r2, r2, r3
 577 009e 5200     		lsls	r2, r2, #1
 578 00a0 2102     		lsls	r1, r4, #8
 579 00a2 0918     		adds	r1, r1, r0
 580 00a4 3E48     		ldr	r0, .L30+40
 581 00a6 1152     		strh	r1, [r2, r0]
  55:bluetooth.c   ****             {
 582              		.loc 1 55 0 discriminator 3
 583 00a8 0133     		adds	r3, r3, #1
 584              	.LVL48:
 585 00aa 9BB2     		uxth	r3, r3
 586              	.LVL49:
 587 00ac 00E0     		b	.L17
 588              	.LVL50:
 589              	.L28:
 590              	.LBE19:
 591 00ae 0023     		movs	r3, #0
 592              	.L17:
 593              	.LVL51:
 594              	.LBB20:
  55:bluetooth.c   ****             {
 595              		.loc 1 55 0 is_stmt 0 discriminator 1
 596 00b0 9F2B     		cmp	r3, #159
 597 00b2 E8D9     		bls	.L16
 598              	.LBE20:
  53:bluetooth.c   ****         {
 599              		.loc 1 53 0 is_stmt 1 discriminator 2
 600 00b4 0135     		adds	r5, r5, #1
 601              	.LVL52:
 602 00b6 EDB2     		uxtb	r5, r5
 603              	.LVL53:
 604              	.L15:
  53:bluetooth.c   ****         {
 605              		.loc 1 53 0 is_stmt 0 discriminator 1
 606 00b8 092D     		cmp	r5, #9
 607 00ba F8D9     		bls	.L28
 608 00bc 42E0     		b	.L18
 609              	.LVL54:
ARM GAS  C:\Users\Brian\AppData\Local\Temp\ccBwD5Lv.s 			page 19


 610              	.L14:
 611              	.LBE18:
 612              	.LBB21:
  63:bluetooth.c   ****         // Flash data not present, writing starting values for everything
 613              		.loc 1 63 0 is_stmt 1
 614 00be 3948     		ldr	r0, .L30+44
 615 00c0 FFF7FEFF 		bl	puts
 616              	.LVL55:
  65:bluetooth.c   ****         // Upper threshold = 130V
 617              		.loc 1 65 0
 618 00c4 0022     		movs	r2, #0
 619 00c6 334B     		ldr	r3, .L30+28
 620 00c8 1A70     		strb	r2, [r3]
  67:bluetooth.c   ****         upper_thresh[1] = 0x04;
 621              		.loc 1 67 0
 622 00ca 3348     		ldr	r0, .L30+32
 623 00cc 5523     		movs	r3, #85
 624 00ce 0370     		strb	r3, [r0]
  68:bluetooth.c   ****         send_threshold(upper_thresh, UPPER_THRESHOLD);
 625              		.loc 1 68 0
 626 00d0 513B     		subs	r3, r3, #81
 627 00d2 4370     		strb	r3, [r0, #1]
  69:bluetooth.c   ****         // Lower threshold = 120V
 628              		.loc 1 69 0
 629 00d4 0221     		movs	r1, #2
 630 00d6 FFF7FEFF 		bl	send_threshold
 631              	.LVL56:
  71:bluetooth.c   ****         lower_thresh[1] = 0x03;
 632              		.loc 1 71 0
 633 00da 3048     		ldr	r0, .L30+36
 634 00dc AB23     		movs	r3, #171
 635 00de 0370     		strb	r3, [r0]
  72:bluetooth.c   ****         send_threshold(lower_thresh, LOWER_THRESHOLD);
 636              		.loc 1 72 0
 637 00e0 A83B     		subs	r3, r3, #168
 638 00e2 4370     		strb	r3, [r0, #1]
  73:bluetooth.c   ****         // Initialize events
 639              		.loc 1 73 0
 640 00e4 0321     		movs	r1, #3
 641 00e6 FFF7FEFF 		bl	send_threshold
 642              	.LVL57:
 643              	.LBB22:
  75:bluetooth.c   ****         {
 644              		.loc 1 75 0
 645 00ea 0020     		movs	r0, #0
 646 00ec 0FE0     		b	.L19
 647              	.LVL58:
 648              	.L20:
 649              	.LBB23:
  79:bluetooth.c   ****             }
 650              		.loc 1 79 0 discriminator 3
 651 00ee 8100     		lsls	r1, r0, #2
 652 00f0 0918     		adds	r1, r1, r0
 653 00f2 4B01     		lsls	r3, r1, #5
 654 00f4 9B18     		adds	r3, r3, r2
 655 00f6 5B00     		lsls	r3, r3, #1
 656 00f8 0024     		movs	r4, #0
ARM GAS  C:\Users\Brian\AppData\Local\Temp\ccBwD5Lv.s 			page 20


 657 00fa 2949     		ldr	r1, .L30+40
 658 00fc 5C52     		strh	r4, [r3, r1]
  77:bluetooth.c   ****             {
 659              		.loc 1 77 0 discriminator 3
 660 00fe 0132     		adds	r2, r2, #1
 661              	.LVL59:
 662 0100 92B2     		uxth	r2, r2
 663              	.LVL60:
 664 0102 00E0     		b	.L21
 665              	.LVL61:
 666              	.L29:
 667              	.LBE23:
 668 0104 0022     		movs	r2, #0
 669              	.L21:
 670              	.LVL62:
 671              	.LBB24:
  77:bluetooth.c   ****             {
 672              		.loc 1 77 0 is_stmt 0 discriminator 1
 673 0106 9F2A     		cmp	r2, #159
 674 0108 F1D9     		bls	.L20
 675              	.LBE24:
  75:bluetooth.c   ****         {
 676              		.loc 1 75 0 is_stmt 1 discriminator 2
 677 010a 0130     		adds	r0, r0, #1
 678              	.LVL63:
 679 010c C0B2     		uxtb	r0, r0
 680              	.LVL64:
 681              	.L19:
  75:bluetooth.c   ****         {
 682              		.loc 1 75 0 is_stmt 0 discriminator 1
 683 010e 0928     		cmp	r0, #9
 684 0110 F8D9     		bls	.L29
 685              	.LBE22:
  83:bluetooth.c   ****         // Initialize events in flash
 686              		.loc 1 83 0 is_stmt 1
 687 0112 FFF7FEFF 		bl	update_flash_config
 688              	.LVL65:
 689              	.LBB25:
  86:bluetooth.c   ****         {
 690              		.loc 1 86 0
 691 0116 0023     		movs	r3, #0
 692 0118 04E0     		b	.L22
 693              	.LVL66:
 694              	.L23:
  88:bluetooth.c   ****         }
 695              		.loc 1 88 0 discriminator 3
 696 011a 0022     		movs	r2, #0
 697 011c 6946     		mov	r1, sp
 698 011e CA54     		strb	r2, [r1, r3]
  86:bluetooth.c   ****         {
 699              		.loc 1 86 0 discriminator 3
 700 0120 0133     		adds	r3, r3, #1
 701              	.LVL67:
 702 0122 9BB2     		uxth	r3, r3
 703              	.LVL68:
 704              	.L22:
  86:bluetooth.c   ****         {
ARM GAS  C:\Users\Brian\AppData\Local\Temp\ccBwD5Lv.s 			page 21


 705              		.loc 1 86 0 is_stmt 0 discriminator 1
 706 0124 204A     		ldr	r2, .L30+48
 707 0126 9342     		cmp	r3, r2
 708 0128 F7D9     		bls	.L23
 709 012a 0124     		movs	r4, #1
 710 012c 08E0     		b	.L24
 711              	.LVL69:
 712              	.L25:
 713              	.LBE25:
 714              	.LBB26:
  92:bluetooth.c   ****         }
 715              		.loc 1 92 0 is_stmt 1 discriminator 3
 716 012e 134B     		ldr	r3, .L30+4
 717 0130 1B68     		ldr	r3, [r3]
 718 0132 A200     		lsls	r2, r4, #2
 719 0134 D058     		ldr	r0, [r2, r3]
 720 0136 6946     		mov	r1, sp
 721 0138 FFF7FEFF 		bl	Cy_Flash_WriteRow
 722              	.LVL70:
  90:bluetooth.c   ****         {
 723              		.loc 1 90 0 discriminator 3
 724 013c 0134     		adds	r4, r4, #1
 725              	.LVL71:
 726 013e E4B2     		uxtb	r4, r4
 727              	.LVL72:
 728              	.L24:
  90:bluetooth.c   ****         {
 729              		.loc 1 90 0 is_stmt 0 discriminator 1
 730 0140 0A2C     		cmp	r4, #10
 731 0142 F4D9     		bls	.L25
 732              	.LVL73:
 733              	.L18:
 734              	.LBE26:
 735              	.LBE21:
  97:bluetooth.c   ****     while(Cy_BLE_GetState() != CY_BLE_STATE_ON)
 736              		.loc 1 97 0 is_stmt 1
 737 0144 1948     		ldr	r0, .L30+52
 738 0146 FFF7FEFF 		bl	Cy_BLE_Start
 739              	.LVL74:
  98:bluetooth.c   ****     {
 740              		.loc 1 98 0
 741 014a 01E0     		b	.L26
 742              	.L27:
 100:bluetooth.c   ****     }
 743              		.loc 1 100 0
 744 014c FFF7FEFF 		bl	Cy_BLE_ProcessEvents
 745              	.LVL75:
 746              	.L26:
  98:bluetooth.c   ****     {
 747              		.loc 1 98 0
 748 0150 174B     		ldr	r3, .L30+56
 749 0152 1B78     		ldrb	r3, [r3]
 750 0154 022B     		cmp	r3, #2
 751 0156 F9D1     		bne	.L27
 104:bluetooth.c   ****     write_threshold_to_server(upper_thresh, UPPER_THRESHOLD);
 752              		.loc 1 104 0
 753 0158 0E48     		ldr	r0, .L30+28
ARM GAS  C:\Users\Brian\AppData\Local\Temp\ccBwD5Lv.s 			page 22


 754 015a FFF7FEFF 		bl	write_num_events_to_server
 755              	.LVL76:
 105:bluetooth.c   ****     write_threshold_to_server(lower_thresh, LOWER_THRESHOLD);
 756              		.loc 1 105 0
 757 015e 0221     		movs	r1, #2
 758 0160 0D48     		ldr	r0, .L30+32
 759 0162 FFF7FEFF 		bl	write_threshold_to_server
 760              	.LVL77:
 106:bluetooth.c   **** }
 761              		.loc 1 106 0
 762 0166 0321     		movs	r1, #3
 763 0168 0C48     		ldr	r0, .L30+36
 764 016a FFF7FEFF 		bl	write_threshold_to_server
 765              	.LVL78:
 107:bluetooth.c   **** 
 766              		.loc 1 107 0
 767 016e 8123     		movs	r3, #129
 768 0170 9B00     		lsls	r3, r3, #2
 769 0172 9D44     		add	sp, sp, r3
 770              		@ sp needed
 771 0174 30BD     		pop	{r4, r5, pc}
 772              	.L31:
 773 0176 C046     		.align	2
 774              	.L30:
 775 0178 FCFDFFFF 		.word	-516
 776 017c 00000000 		.word	flashPtrs
 777 0180 00000810 		.word	268959744
 778 0184 00000000 		.word	_impure_ptr
 779 0188 1C000000 		.word	.LC8
 780 018c 00000000 		.word	CM0_MessageCallback
 781 0190 2C000000 		.word	.LC11
 782 0194 00000000 		.word	num_events
 783 0198 00000000 		.word	upper_thresh
 784 019c 00000000 		.word	lower_thresh
 785 01a0 00000000 		.word	events
 786 01a4 40000000 		.word	.LC17
 787 01a8 FF010000 		.word	511
 788 01ac 00000000 		.word	GenericEventHandler
 789 01b0 00000000 		.word	cy_ble_state
 790              		.cfi_endproc
 791              	.LFE443:
 792              		.size	init_ble, .-init_ble
 793              		.section	.text.GenericEventHandler,"ax",%progbits
 794              		.align	2
 795              		.global	GenericEventHandler
 796              		.code	16
 797              		.thumb_func
 798              		.type	GenericEventHandler, %function
 799              	GenericEventHandler:
 800              	.LFB444:
 111:bluetooth.c   ****     cy_stc_ble_gattc_write_cmd_req_t *writeReqParam;
 801              		.loc 1 111 0
 802              		.cfi_startproc
 803              		@ args = 0, pretend = 0, frame = 0
 804              		@ frame_needed = 0, uses_anonymous_args = 0
 805              	.LVL79:
 806 0000 10B5     		push	{r4, lr}
ARM GAS  C:\Users\Brian\AppData\Local\Temp\ccBwD5Lv.s 			page 23


 807              		.cfi_def_cfa_offset 8
 808              		.cfi_offset 4, -8
 809              		.cfi_offset 14, -4
 810 0002 0C00     		movs	r4, r1
 113:bluetooth.c   ****     {
 811              		.loc 1 113 0
 812 0004 394B     		ldr	r3, .L43
 813 0006 9842     		cmp	r0, r3
 814 0008 0CD0     		beq	.L34
 815 000a 04D8     		bhi	.L35
 816 000c 8023     		movs	r3, #128
 817 000e 5B01     		lsls	r3, r3, #5
 818 0010 9842     		cmp	r0, r3
 819 0012 07D0     		beq	.L34
 820 0014 68E0     		b	.L32
 821              	.L35:
 822 0016 364B     		ldr	r3, .L43+4
 823 0018 9842     		cmp	r0, r3
 824 001a 0BD0     		beq	.L36
 825 001c 354B     		ldr	r3, .L43+8
 826 001e 9842     		cmp	r0, r3
 827 0020 0CD0     		beq	.L37
 828 0022 61E0     		b	.L32
 829              	.L34:
 830              	.LVL80:
 831              	.LBB27:
 832              	.LBB28:
 833              		.file 3 "Generated_Source\\PSoC6\\pdl\\drivers/peripheral/gpio/cy_gpio.h"
   1:Generated_Source\PSoC6\pdl\drivers/peripheral/gpio/cy_gpio.h **** /***************************************************************************//**
   2:Generated_Source\PSoC6\pdl\drivers/peripheral/gpio/cy_gpio.h **** * \file cy_gpio.h
   3:Generated_Source\PSoC6\pdl\drivers/peripheral/gpio/cy_gpio.h **** * \version 1.10.1
   4:Generated_Source\PSoC6\pdl\drivers/peripheral/gpio/cy_gpio.h **** *
   5:Generated_Source\PSoC6\pdl\drivers/peripheral/gpio/cy_gpio.h **** * \brief
   6:Generated_Source\PSoC6\pdl\drivers/peripheral/gpio/cy_gpio.h **** * Provides an API declaration of the GPIO driver
   7:Generated_Source\PSoC6\pdl\drivers/peripheral/gpio/cy_gpio.h **** *
   8:Generated_Source\PSoC6\pdl\drivers/peripheral/gpio/cy_gpio.h **** ********************************************************************************
   9:Generated_Source\PSoC6\pdl\drivers/peripheral/gpio/cy_gpio.h **** * \copyright
  10:Generated_Source\PSoC6\pdl\drivers/peripheral/gpio/cy_gpio.h **** * Copyright 2016-2018, Cypress Semiconductor Corporation. All rights reserved.
  11:Generated_Source\PSoC6\pdl\drivers/peripheral/gpio/cy_gpio.h **** * You may use this file only in accordance with the license, terms, conditions,
  12:Generated_Source\PSoC6\pdl\drivers/peripheral/gpio/cy_gpio.h **** * disclaimers, and limitations in the end user license agreement accompanying
  13:Generated_Source\PSoC6\pdl\drivers/peripheral/gpio/cy_gpio.h **** * the software package with which this file was provided.
  14:Generated_Source\PSoC6\pdl\drivers/peripheral/gpio/cy_gpio.h **** *******************************************************************************/
  15:Generated_Source\PSoC6\pdl\drivers/peripheral/gpio/cy_gpio.h **** 
  16:Generated_Source\PSoC6\pdl\drivers/peripheral/gpio/cy_gpio.h **** /**
  17:Generated_Source\PSoC6\pdl\drivers/peripheral/gpio/cy_gpio.h **** * \defgroup group_gpio General Purpose Input Output (GPIO)
  18:Generated_Source\PSoC6\pdl\drivers/peripheral/gpio/cy_gpio.h **** * \{
  19:Generated_Source\PSoC6\pdl\drivers/peripheral/gpio/cy_gpio.h **** * The GPIO driver provides an API to configure and access device Input/Output pins.
  20:Generated_Source\PSoC6\pdl\drivers/peripheral/gpio/cy_gpio.h **** * IO pins include all general purpose types such as GPIO, SIO, HSIO, AUXIO, and
  21:Generated_Source\PSoC6\pdl\drivers/peripheral/gpio/cy_gpio.h **** * their variants.
  22:Generated_Source\PSoC6\pdl\drivers/peripheral/gpio/cy_gpio.h **** *
  23:Generated_Source\PSoC6\pdl\drivers/peripheral/gpio/cy_gpio.h **** * Initialization can be performed either at the port level or by configuring the
  24:Generated_Source\PSoC6\pdl\drivers/peripheral/gpio/cy_gpio.h **** * individual pins. For efficient use of code space, port
  25:Generated_Source\PSoC6\pdl\drivers/peripheral/gpio/cy_gpio.h **** * configuration should be used in the field. Refer to the product device header files 
  26:Generated_Source\PSoC6\pdl\drivers/peripheral/gpio/cy_gpio.h **** * for the list of supported ports and pins.
  27:Generated_Source\PSoC6\pdl\drivers/peripheral/gpio/cy_gpio.h **** * 
  28:Generated_Source\PSoC6\pdl\drivers/peripheral/gpio/cy_gpio.h **** * - Single pin configuration is performed by using \ref Cy_GPIO_Pin_FastInit 
  29:Generated_Source\PSoC6\pdl\drivers/peripheral/gpio/cy_gpio.h **** *   (provide specific values) or \ref Cy_GPIO_Pin_Init (provide a filled
ARM GAS  C:\Users\Brian\AppData\Local\Temp\ccBwD5Lv.s 			page 24


  30:Generated_Source\PSoC6\pdl\drivers/peripheral/gpio/cy_gpio.h **** *   cy_stc_gpio_pin_config_t structure).
  31:Generated_Source\PSoC6\pdl\drivers/peripheral/gpio/cy_gpio.h **** * - An entire port can be configured using \ref Cy_GPIO_Port_Init. Provide a filled 
  32:Generated_Source\PSoC6\pdl\drivers/peripheral/gpio/cy_gpio.h **** *   cy_stc_gpio_prt_config_t structure. The values in the structure are 
  33:Generated_Source\PSoC6\pdl\drivers/peripheral/gpio/cy_gpio.h **** *   bitfields representing the desired value for each pin in the port.
  34:Generated_Source\PSoC6\pdl\drivers/peripheral/gpio/cy_gpio.h **** * - Pin configuration and management is based on the port address and pin number.
  35:Generated_Source\PSoC6\pdl\drivers/peripheral/gpio/cy_gpio.h **** *   \ref Cy_GPIO_PortToAddr function can optionally be used to calculate the port
  36:Generated_Source\PSoC6\pdl\drivers/peripheral/gpio/cy_gpio.h **** *   address from the port number at run-time.
  37:Generated_Source\PSoC6\pdl\drivers/peripheral/gpio/cy_gpio.h **** *
  38:Generated_Source\PSoC6\pdl\drivers/peripheral/gpio/cy_gpio.h **** * Once the pin/port initialization is complete, each pin can be accessed by 
  39:Generated_Source\PSoC6\pdl\drivers/peripheral/gpio/cy_gpio.h **** * specifying the port (GPIO_PRT_Type) and the pin (0-7) in the provided API 
  40:Generated_Source\PSoC6\pdl\drivers/peripheral/gpio/cy_gpio.h **** * functions.
  41:Generated_Source\PSoC6\pdl\drivers/peripheral/gpio/cy_gpio.h **** *
  42:Generated_Source\PSoC6\pdl\drivers/peripheral/gpio/cy_gpio.h **** * \section group_gpio_configuration Configuration Considerations
  43:Generated_Source\PSoC6\pdl\drivers/peripheral/gpio/cy_gpio.h **** *
  44:Generated_Source\PSoC6\pdl\drivers/peripheral/gpio/cy_gpio.h **** * 1. Pin multiplexing is controlled through the High-Speed IO Matrix (HSIOM) selection.
  45:Generated_Source\PSoC6\pdl\drivers/peripheral/gpio/cy_gpio.h **** *    This allows the pin to connect to signal sources/sinks throughout the device,
  46:Generated_Source\PSoC6\pdl\drivers/peripheral/gpio/cy_gpio.h **** *    as defined by the pin HSIOM selection options (en_hsiom_sel_t).
  47:Generated_Source\PSoC6\pdl\drivers/peripheral/gpio/cy_gpio.h **** * 2. All pins are initialized to High-Z drive mode with HSIOM connected to CPU (SW
  48:Generated_Source\PSoC6\pdl\drivers/peripheral/gpio/cy_gpio.h **** *    control digital pin only) at Power-On-Reset(POR).
  49:Generated_Source\PSoC6\pdl\drivers/peripheral/gpio/cy_gpio.h **** * 3. Some API functions perform read-modify-write operations on shared port
  50:Generated_Source\PSoC6\pdl\drivers/peripheral/gpio/cy_gpio.h **** *    registers. These functions are not thread safe and care must be taken when
  51:Generated_Source\PSoC6\pdl\drivers/peripheral/gpio/cy_gpio.h **** *    called by the application.
  52:Generated_Source\PSoC6\pdl\drivers/peripheral/gpio/cy_gpio.h **** *
  53:Generated_Source\PSoC6\pdl\drivers/peripheral/gpio/cy_gpio.h **** * Multiple pins on a port can be updated using direct port register writes with an
  54:Generated_Source\PSoC6\pdl\drivers/peripheral/gpio/cy_gpio.h **** * appropriate port mask. An example is shown below, highlighting the different ways of 
  55:Generated_Source\PSoC6\pdl\drivers/peripheral/gpio/cy_gpio.h **** * configuring Port 1 pins using,
  56:Generated_Source\PSoC6\pdl\drivers/peripheral/gpio/cy_gpio.h **** * 
  57:Generated_Source\PSoC6\pdl\drivers/peripheral/gpio/cy_gpio.h **** * - Port output data register
  58:Generated_Source\PSoC6\pdl\drivers/peripheral/gpio/cy_gpio.h **** * - Port output data set register
  59:Generated_Source\PSoC6\pdl\drivers/peripheral/gpio/cy_gpio.h **** * - Port output data clear register
  60:Generated_Source\PSoC6\pdl\drivers/peripheral/gpio/cy_gpio.h **** *
  61:Generated_Source\PSoC6\pdl\drivers/peripheral/gpio/cy_gpio.h **** * \snippet gpio/gpio_v1_10_sut_01.cydsn/main_cm4.c Cy_GPIO_Snippet
  62:Generated_Source\PSoC6\pdl\drivers/peripheral/gpio/cy_gpio.h **** *
  63:Generated_Source\PSoC6\pdl\drivers/peripheral/gpio/cy_gpio.h **** * \section group_gpio_more_information More Information
  64:Generated_Source\PSoC6\pdl\drivers/peripheral/gpio/cy_gpio.h **** *
  65:Generated_Source\PSoC6\pdl\drivers/peripheral/gpio/cy_gpio.h **** * Refer to the technical reference manual (TRM) and the device datasheet.
  66:Generated_Source\PSoC6\pdl\drivers/peripheral/gpio/cy_gpio.h **** *
  67:Generated_Source\PSoC6\pdl\drivers/peripheral/gpio/cy_gpio.h **** * \section group_gpio_MISRA MISRA-C Compliance]
  68:Generated_Source\PSoC6\pdl\drivers/peripheral/gpio/cy_gpio.h **** * <table class="doxtable">
  69:Generated_Source\PSoC6\pdl\drivers/peripheral/gpio/cy_gpio.h **** *   <tr>
  70:Generated_Source\PSoC6\pdl\drivers/peripheral/gpio/cy_gpio.h **** *     <th>MISRA Rule</th>
  71:Generated_Source\PSoC6\pdl\drivers/peripheral/gpio/cy_gpio.h **** *     <th>Rule Class (Required/Advisory)</th>
  72:Generated_Source\PSoC6\pdl\drivers/peripheral/gpio/cy_gpio.h **** *     <th>Rule Description</th>
  73:Generated_Source\PSoC6\pdl\drivers/peripheral/gpio/cy_gpio.h **** *     <th>Description of Deviation(s)</th>
  74:Generated_Source\PSoC6\pdl\drivers/peripheral/gpio/cy_gpio.h **** *   </tr>
  75:Generated_Source\PSoC6\pdl\drivers/peripheral/gpio/cy_gpio.h **** *   <tr>
  76:Generated_Source\PSoC6\pdl\drivers/peripheral/gpio/cy_gpio.h **** *     <td>16.7</td>
  77:Generated_Source\PSoC6\pdl\drivers/peripheral/gpio/cy_gpio.h **** *     <td>A</td>
  78:Generated_Source\PSoC6\pdl\drivers/peripheral/gpio/cy_gpio.h **** *     <td>A pointer parameter in a function prototype should be declared as pointer 
  79:Generated_Source\PSoC6\pdl\drivers/peripheral/gpio/cy_gpio.h **** *         to const if the pointer is not used to modify the addressed object.</td>
  80:Generated_Source\PSoC6\pdl\drivers/peripheral/gpio/cy_gpio.h **** *     <td>The objects pointed to by the base addresses of the GPIO port are not always modified.
  81:Generated_Source\PSoC6\pdl\drivers/peripheral/gpio/cy_gpio.h **** *         While a const qualifier can be used in select scenarios, it brings little benefit
  82:Generated_Source\PSoC6\pdl\drivers/peripheral/gpio/cy_gpio.h **** *         in adding this to the affected functions. </td>
  83:Generated_Source\PSoC6\pdl\drivers/peripheral/gpio/cy_gpio.h **** *   </tr>
  84:Generated_Source\PSoC6\pdl\drivers/peripheral/gpio/cy_gpio.h **** * </table>
  85:Generated_Source\PSoC6\pdl\drivers/peripheral/gpio/cy_gpio.h **** *
  86:Generated_Source\PSoC6\pdl\drivers/peripheral/gpio/cy_gpio.h **** * \section group_gpio_changelog Changelog
ARM GAS  C:\Users\Brian\AppData\Local\Temp\ccBwD5Lv.s 			page 25


  87:Generated_Source\PSoC6\pdl\drivers/peripheral/gpio/cy_gpio.h **** * <table class="doxtable">
  88:Generated_Source\PSoC6\pdl\drivers/peripheral/gpio/cy_gpio.h **** *   <tr><th>Version</th><th>Changes</th><th>Reason for Change</th></tr>
  89:Generated_Source\PSoC6\pdl\drivers/peripheral/gpio/cy_gpio.h **** *   <tr>
  90:Generated_Source\PSoC6\pdl\drivers/peripheral/gpio/cy_gpio.h **** *     <td>1.10.1</td>
  91:Generated_Source\PSoC6\pdl\drivers/peripheral/gpio/cy_gpio.h **** *     <td>Updated description for the functions: \ref Cy_GPIO_GetInterruptStatus, 
  92:Generated_Source\PSoC6\pdl\drivers/peripheral/gpio/cy_gpio.h **** *         \ref Cy_GPIO_GetInterruptMask, \ref Cy_GPIO_GetInterruptStatusMasked.
  93:Generated_Source\PSoC6\pdl\drivers/peripheral/gpio/cy_gpio.h **** *         Minor documentation edits.
  94:Generated_Source\PSoC6\pdl\drivers/peripheral/gpio/cy_gpio.h **** *     </td>
  95:Generated_Source\PSoC6\pdl\drivers/peripheral/gpio/cy_gpio.h **** *     <td>Documentation update and clarification</td>
  96:Generated_Source\PSoC6\pdl\drivers/peripheral/gpio/cy_gpio.h **** *   </tr>
  97:Generated_Source\PSoC6\pdl\drivers/peripheral/gpio/cy_gpio.h **** *   <tr>
  98:Generated_Source\PSoC6\pdl\drivers/peripheral/gpio/cy_gpio.h **** *     <td>1.10</td>
  99:Generated_Source\PSoC6\pdl\drivers/peripheral/gpio/cy_gpio.h **** *     <td>Added input parameter validation to the API functions</td>
 100:Generated_Source\PSoC6\pdl\drivers/peripheral/gpio/cy_gpio.h **** *     <td></td>
 101:Generated_Source\PSoC6\pdl\drivers/peripheral/gpio/cy_gpio.h **** *   </tr>
 102:Generated_Source\PSoC6\pdl\drivers/peripheral/gpio/cy_gpio.h **** *   <tr>
 103:Generated_Source\PSoC6\pdl\drivers/peripheral/gpio/cy_gpio.h **** *     <td>1.0</td>
 104:Generated_Source\PSoC6\pdl\drivers/peripheral/gpio/cy_gpio.h **** *     <td>Initial version</td>
 105:Generated_Source\PSoC6\pdl\drivers/peripheral/gpio/cy_gpio.h **** *     <td></td>
 106:Generated_Source\PSoC6\pdl\drivers/peripheral/gpio/cy_gpio.h **** *   </tr>
 107:Generated_Source\PSoC6\pdl\drivers/peripheral/gpio/cy_gpio.h **** * </table>
 108:Generated_Source\PSoC6\pdl\drivers/peripheral/gpio/cy_gpio.h **** *
 109:Generated_Source\PSoC6\pdl\drivers/peripheral/gpio/cy_gpio.h **** * \defgroup group_gpio_macros Macros
 110:Generated_Source\PSoC6\pdl\drivers/peripheral/gpio/cy_gpio.h **** * \defgroup group_gpio_functions Functions
 111:Generated_Source\PSoC6\pdl\drivers/peripheral/gpio/cy_gpio.h **** * \{
 112:Generated_Source\PSoC6\pdl\drivers/peripheral/gpio/cy_gpio.h **** *   \defgroup group_gpio_functions_init       Initialization Functions
 113:Generated_Source\PSoC6\pdl\drivers/peripheral/gpio/cy_gpio.h **** *   \defgroup group_gpio_functions_gpio       GPIO Functions
 114:Generated_Source\PSoC6\pdl\drivers/peripheral/gpio/cy_gpio.h **** *   \defgroup group_gpio_functions_sio        SIO Functions
 115:Generated_Source\PSoC6\pdl\drivers/peripheral/gpio/cy_gpio.h **** *   \defgroup group_gpio_functions_interrupt  Port Interrupt Functions
 116:Generated_Source\PSoC6\pdl\drivers/peripheral/gpio/cy_gpio.h **** * \}
 117:Generated_Source\PSoC6\pdl\drivers/peripheral/gpio/cy_gpio.h **** * \defgroup group_gpio_data_structures Data Structures
 118:Generated_Source\PSoC6\pdl\drivers/peripheral/gpio/cy_gpio.h **** * \defgroup group_gpio_enums Enumerated Types
 119:Generated_Source\PSoC6\pdl\drivers/peripheral/gpio/cy_gpio.h **** */
 120:Generated_Source\PSoC6\pdl\drivers/peripheral/gpio/cy_gpio.h **** 
 121:Generated_Source\PSoC6\pdl\drivers/peripheral/gpio/cy_gpio.h **** #if !defined(CY_GPIO_H)
 122:Generated_Source\PSoC6\pdl\drivers/peripheral/gpio/cy_gpio.h **** #define CY_GPIO_H
 123:Generated_Source\PSoC6\pdl\drivers/peripheral/gpio/cy_gpio.h **** 
 124:Generated_Source\PSoC6\pdl\drivers/peripheral/gpio/cy_gpio.h **** #include <stddef.h>
 125:Generated_Source\PSoC6\pdl\drivers/peripheral/gpio/cy_gpio.h **** #include "syslib/cy_syslib.h"
 126:Generated_Source\PSoC6\pdl\drivers/peripheral/gpio/cy_gpio.h **** #include "cy_device_headers.h"
 127:Generated_Source\PSoC6\pdl\drivers/peripheral/gpio/cy_gpio.h **** 
 128:Generated_Source\PSoC6\pdl\drivers/peripheral/gpio/cy_gpio.h **** #if defined(__cplusplus)
 129:Generated_Source\PSoC6\pdl\drivers/peripheral/gpio/cy_gpio.h **** extern "C" {
 130:Generated_Source\PSoC6\pdl\drivers/peripheral/gpio/cy_gpio.h **** #endif
 131:Generated_Source\PSoC6\pdl\drivers/peripheral/gpio/cy_gpio.h **** 
 132:Generated_Source\PSoC6\pdl\drivers/peripheral/gpio/cy_gpio.h **** /** \addtogroup group_gpio_macros
 133:Generated_Source\PSoC6\pdl\drivers/peripheral/gpio/cy_gpio.h **** * \{
 134:Generated_Source\PSoC6\pdl\drivers/peripheral/gpio/cy_gpio.h **** */
 135:Generated_Source\PSoC6\pdl\drivers/peripheral/gpio/cy_gpio.h **** 
 136:Generated_Source\PSoC6\pdl\drivers/peripheral/gpio/cy_gpio.h **** /** Driver major version */
 137:Generated_Source\PSoC6\pdl\drivers/peripheral/gpio/cy_gpio.h **** #define CY_GPIO_DRV_VERSION_MAJOR       1
 138:Generated_Source\PSoC6\pdl\drivers/peripheral/gpio/cy_gpio.h **** 
 139:Generated_Source\PSoC6\pdl\drivers/peripheral/gpio/cy_gpio.h **** /** Driver minor version */
 140:Generated_Source\PSoC6\pdl\drivers/peripheral/gpio/cy_gpio.h **** #define CY_GPIO_DRV_VERSION_MINOR       10
 141:Generated_Source\PSoC6\pdl\drivers/peripheral/gpio/cy_gpio.h **** 
 142:Generated_Source\PSoC6\pdl\drivers/peripheral/gpio/cy_gpio.h **** /** GPIO driver ID */
 143:Generated_Source\PSoC6\pdl\drivers/peripheral/gpio/cy_gpio.h **** #define CY_GPIO_ID CY_PDL_DRV_ID(0x16u)
ARM GAS  C:\Users\Brian\AppData\Local\Temp\ccBwD5Lv.s 			page 26


 144:Generated_Source\PSoC6\pdl\drivers/peripheral/gpio/cy_gpio.h **** 
 145:Generated_Source\PSoC6\pdl\drivers/peripheral/gpio/cy_gpio.h **** /** \} group_gpio_macros */
 146:Generated_Source\PSoC6\pdl\drivers/peripheral/gpio/cy_gpio.h **** 
 147:Generated_Source\PSoC6\pdl\drivers/peripheral/gpio/cy_gpio.h **** 
 148:Generated_Source\PSoC6\pdl\drivers/peripheral/gpio/cy_gpio.h **** /***************************************
 149:Generated_Source\PSoC6\pdl\drivers/peripheral/gpio/cy_gpio.h **** *       Enumerations
 150:Generated_Source\PSoC6\pdl\drivers/peripheral/gpio/cy_gpio.h **** ***************************************/
 151:Generated_Source\PSoC6\pdl\drivers/peripheral/gpio/cy_gpio.h **** /**
 152:Generated_Source\PSoC6\pdl\drivers/peripheral/gpio/cy_gpio.h **** * \addtogroup group_gpio_enums
 153:Generated_Source\PSoC6\pdl\drivers/peripheral/gpio/cy_gpio.h **** * \{
 154:Generated_Source\PSoC6\pdl\drivers/peripheral/gpio/cy_gpio.h **** */
 155:Generated_Source\PSoC6\pdl\drivers/peripheral/gpio/cy_gpio.h **** 
 156:Generated_Source\PSoC6\pdl\drivers/peripheral/gpio/cy_gpio.h **** /**
 157:Generated_Source\PSoC6\pdl\drivers/peripheral/gpio/cy_gpio.h **** * GPIO Driver error codes
 158:Generated_Source\PSoC6\pdl\drivers/peripheral/gpio/cy_gpio.h **** */
 159:Generated_Source\PSoC6\pdl\drivers/peripheral/gpio/cy_gpio.h **** typedef enum 
 160:Generated_Source\PSoC6\pdl\drivers/peripheral/gpio/cy_gpio.h **** {
 161:Generated_Source\PSoC6\pdl\drivers/peripheral/gpio/cy_gpio.h ****     CY_GPIO_SUCCESS   = 0x00u,                                    /**< Returned successful */
 162:Generated_Source\PSoC6\pdl\drivers/peripheral/gpio/cy_gpio.h ****     CY_GPIO_BAD_PARAM = CY_GPIO_ID | CY_PDL_STATUS_ERROR | 0x01u, /**< Bad parameter was passed */
 163:Generated_Source\PSoC6\pdl\drivers/peripheral/gpio/cy_gpio.h **** } cy_en_gpio_status_t;
 164:Generated_Source\PSoC6\pdl\drivers/peripheral/gpio/cy_gpio.h **** 
 165:Generated_Source\PSoC6\pdl\drivers/peripheral/gpio/cy_gpio.h **** /** \} group_gpio_enums */
 166:Generated_Source\PSoC6\pdl\drivers/peripheral/gpio/cy_gpio.h **** 
 167:Generated_Source\PSoC6\pdl\drivers/peripheral/gpio/cy_gpio.h **** 
 168:Generated_Source\PSoC6\pdl\drivers/peripheral/gpio/cy_gpio.h **** /***************************************
 169:Generated_Source\PSoC6\pdl\drivers/peripheral/gpio/cy_gpio.h **** *       Configuration Structures
 170:Generated_Source\PSoC6\pdl\drivers/peripheral/gpio/cy_gpio.h **** ***************************************/
 171:Generated_Source\PSoC6\pdl\drivers/peripheral/gpio/cy_gpio.h **** 
 172:Generated_Source\PSoC6\pdl\drivers/peripheral/gpio/cy_gpio.h **** /**
 173:Generated_Source\PSoC6\pdl\drivers/peripheral/gpio/cy_gpio.h **** * \addtogroup group_gpio_data_structures
 174:Generated_Source\PSoC6\pdl\drivers/peripheral/gpio/cy_gpio.h **** * \{
 175:Generated_Source\PSoC6\pdl\drivers/peripheral/gpio/cy_gpio.h **** */
 176:Generated_Source\PSoC6\pdl\drivers/peripheral/gpio/cy_gpio.h **** 
 177:Generated_Source\PSoC6\pdl\drivers/peripheral/gpio/cy_gpio.h **** /** This structure is used to initialize a port of GPIO pins */
 178:Generated_Source\PSoC6\pdl\drivers/peripheral/gpio/cy_gpio.h **** typedef struct {
 179:Generated_Source\PSoC6\pdl\drivers/peripheral/gpio/cy_gpio.h ****     uint32_t out;           /**< Initial output data for the IO pins in the port */
 180:Generated_Source\PSoC6\pdl\drivers/peripheral/gpio/cy_gpio.h ****     uint32_t intrMask;      /**< Interrupt enable mask for the port interrupt */
 181:Generated_Source\PSoC6\pdl\drivers/peripheral/gpio/cy_gpio.h ****     uint32_t intrCfg;       /**< Port pin interrupt edge detection configuration */
 182:Generated_Source\PSoC6\pdl\drivers/peripheral/gpio/cy_gpio.h ****     uint32_t cfg;           /**< Port pin drive modes and input buffer enable configuration */
 183:Generated_Source\PSoC6\pdl\drivers/peripheral/gpio/cy_gpio.h ****     uint32_t cfgIn;         /**< Port pin input buffer configuration */
 184:Generated_Source\PSoC6\pdl\drivers/peripheral/gpio/cy_gpio.h ****     uint32_t cfgOut;        /**< Port pin output buffer configuration */
 185:Generated_Source\PSoC6\pdl\drivers/peripheral/gpio/cy_gpio.h ****     uint32_t cfgSIO;        /**< Port SIO pins configuration */
 186:Generated_Source\PSoC6\pdl\drivers/peripheral/gpio/cy_gpio.h ****     uint32_t sel0Active;    /**< HSIOM selection for port pins 0,1,2,3 */
 187:Generated_Source\PSoC6\pdl\drivers/peripheral/gpio/cy_gpio.h ****     uint32_t sel1Active;    /**< HSIOM selection for port pins 4,5,6,7 */
 188:Generated_Source\PSoC6\pdl\drivers/peripheral/gpio/cy_gpio.h **** } cy_stc_gpio_prt_config_t;
 189:Generated_Source\PSoC6\pdl\drivers/peripheral/gpio/cy_gpio.h **** 
 190:Generated_Source\PSoC6\pdl\drivers/peripheral/gpio/cy_gpio.h **** /** This structure is used to initialize a single GPIO pin */
 191:Generated_Source\PSoC6\pdl\drivers/peripheral/gpio/cy_gpio.h **** typedef struct {
 192:Generated_Source\PSoC6\pdl\drivers/peripheral/gpio/cy_gpio.h ****     uint32_t outVal;         /**< Pin output state */
 193:Generated_Source\PSoC6\pdl\drivers/peripheral/gpio/cy_gpio.h ****     uint32_t driveMode;      /**< Drive mode */
 194:Generated_Source\PSoC6\pdl\drivers/peripheral/gpio/cy_gpio.h ****     en_hsiom_sel_t hsiom;   /**< HSIOM selection */
 195:Generated_Source\PSoC6\pdl\drivers/peripheral/gpio/cy_gpio.h ****     uint32_t intEdge;        /**< Interrupt Edge type */
 196:Generated_Source\PSoC6\pdl\drivers/peripheral/gpio/cy_gpio.h ****     uint32_t intMask;        /**< Interrupt enable mask */
 197:Generated_Source\PSoC6\pdl\drivers/peripheral/gpio/cy_gpio.h ****     uint32_t vtrip;          /**< Input buffer voltage trip type */
 198:Generated_Source\PSoC6\pdl\drivers/peripheral/gpio/cy_gpio.h ****     uint32_t slewRate;       /**< Output buffer slew rate */
 199:Generated_Source\PSoC6\pdl\drivers/peripheral/gpio/cy_gpio.h ****     uint32_t driveSel;       /**< Drive strength */
 200:Generated_Source\PSoC6\pdl\drivers/peripheral/gpio/cy_gpio.h ****     uint32_t vregEn;         /**< SIO pair output buffer mode */
ARM GAS  C:\Users\Brian\AppData\Local\Temp\ccBwD5Lv.s 			page 27


 201:Generated_Source\PSoC6\pdl\drivers/peripheral/gpio/cy_gpio.h ****     uint32_t ibufMode;       /**< SIO pair input buffer mode */
 202:Generated_Source\PSoC6\pdl\drivers/peripheral/gpio/cy_gpio.h ****     uint32_t vtripSel;       /**< SIO pair input buffer trip point */
 203:Generated_Source\PSoC6\pdl\drivers/peripheral/gpio/cy_gpio.h ****     uint32_t vrefSel;        /**< SIO pair reference voltage for input buffer trip point */
 204:Generated_Source\PSoC6\pdl\drivers/peripheral/gpio/cy_gpio.h ****     uint32_t vohSel;         /**< SIO pair regulated voltage output level */
 205:Generated_Source\PSoC6\pdl\drivers/peripheral/gpio/cy_gpio.h **** } cy_stc_gpio_pin_config_t;
 206:Generated_Source\PSoC6\pdl\drivers/peripheral/gpio/cy_gpio.h **** 
 207:Generated_Source\PSoC6\pdl\drivers/peripheral/gpio/cy_gpio.h **** /** \} group_gpio_data_structures */
 208:Generated_Source\PSoC6\pdl\drivers/peripheral/gpio/cy_gpio.h **** 
 209:Generated_Source\PSoC6\pdl\drivers/peripheral/gpio/cy_gpio.h **** /***************************************
 210:Generated_Source\PSoC6\pdl\drivers/peripheral/gpio/cy_gpio.h **** *        Constants
 211:Generated_Source\PSoC6\pdl\drivers/peripheral/gpio/cy_gpio.h **** ***************************************/
 212:Generated_Source\PSoC6\pdl\drivers/peripheral/gpio/cy_gpio.h **** 
 213:Generated_Source\PSoC6\pdl\drivers/peripheral/gpio/cy_gpio.h **** /** \cond INTERNAL */
 214:Generated_Source\PSoC6\pdl\drivers/peripheral/gpio/cy_gpio.h **** 
 215:Generated_Source\PSoC6\pdl\drivers/peripheral/gpio/cy_gpio.h **** /* General Constants */
 216:Generated_Source\PSoC6\pdl\drivers/peripheral/gpio/cy_gpio.h **** #define CY_GPIO_PRT_HALF                       (4UL)      /**< Half-way point of a GPIO port */
 217:Generated_Source\PSoC6\pdl\drivers/peripheral/gpio/cy_gpio.h **** #define CY_GPIO_PRT_DEINIT                     (0UL)      /**< De-init value for port registers */
 218:Generated_Source\PSoC6\pdl\drivers/peripheral/gpio/cy_gpio.h **** 
 219:Generated_Source\PSoC6\pdl\drivers/peripheral/gpio/cy_gpio.h **** /* GPIO Masks */
 220:Generated_Source\PSoC6\pdl\drivers/peripheral/gpio/cy_gpio.h **** #define CY_GPIO_HSIOM_MASK                     (0x1FUL)   /**< HSIOM selection mask */
 221:Generated_Source\PSoC6\pdl\drivers/peripheral/gpio/cy_gpio.h **** #define CY_GPIO_OUT_MASK                       (0x01UL)   /**< Single pin mask for OUT register */
 222:Generated_Source\PSoC6\pdl\drivers/peripheral/gpio/cy_gpio.h **** #define CY_GPIO_IN_MASK                        (0x01UL)   /**< Single pin mask for IN register */
 223:Generated_Source\PSoC6\pdl\drivers/peripheral/gpio/cy_gpio.h **** #define CY_GPIO_CFG_DM_MASK                    (0x0FUL)   /**< Single pin mask for drive mode in CF
 224:Generated_Source\PSoC6\pdl\drivers/peripheral/gpio/cy_gpio.h **** #define CY_GPIO_CFG_IN_VTRIP_SEL_MASK          (0x01UL)   /**< Single pin mask for VTRIP selection 
 225:Generated_Source\PSoC6\pdl\drivers/peripheral/gpio/cy_gpio.h **** #define CY_GPIO_CFG_OUT_SLOW_MASK              (0x01UL)   /**< Single pin mask for slew rate in CFG
 226:Generated_Source\PSoC6\pdl\drivers/peripheral/gpio/cy_gpio.h **** #define CY_GPIO_CFG_OUT_DRIVE_SEL_MASK         (0x03UL)   /**< Single pin mask for drive strength i
 227:Generated_Source\PSoC6\pdl\drivers/peripheral/gpio/cy_gpio.h **** #define CY_GPIO_INTR_STATUS_MASK               (0x01UL)   /**< Single pin mask for interrupt status
 228:Generated_Source\PSoC6\pdl\drivers/peripheral/gpio/cy_gpio.h **** #define CY_GPIO_INTR_EN_MASK                   (0x01UL)   /**< Single pin mask for interrupt status
 229:Generated_Source\PSoC6\pdl\drivers/peripheral/gpio/cy_gpio.h **** #define CY_GPIO_INTR_MASKED_MASK               (0x01UL)   /**< Single pin mask for masked interrupt
 230:Generated_Source\PSoC6\pdl\drivers/peripheral/gpio/cy_gpio.h **** #define CY_GPIO_INTR_SET_MASK                  (0x01UL)   /**< Single pin mask for setting the inte
 231:Generated_Source\PSoC6\pdl\drivers/peripheral/gpio/cy_gpio.h **** #define CY_GPIO_INTR_EDGE_MASK                 (0x03UL)   /**< Single pin mask for interrupt edge t
 232:Generated_Source\PSoC6\pdl\drivers/peripheral/gpio/cy_gpio.h **** #define CY_GPIO_INTR_FLT_EDGE_MASK             (0x07UL)   /**< Single pin mask for setting filtered
 233:Generated_Source\PSoC6\pdl\drivers/peripheral/gpio/cy_gpio.h **** 
 234:Generated_Source\PSoC6\pdl\drivers/peripheral/gpio/cy_gpio.h **** /* SIO Masks */
 235:Generated_Source\PSoC6\pdl\drivers/peripheral/gpio/cy_gpio.h **** #define CY_GPIO_VREG_EN_MASK                   (0x01UL)   /**< Single SIO pin mask for voltage regu
 236:Generated_Source\PSoC6\pdl\drivers/peripheral/gpio/cy_gpio.h **** #define CY_GPIO_IBUF_MASK                      (0x01UL)   /**< Single SIO pin mask for input buffer
 237:Generated_Source\PSoC6\pdl\drivers/peripheral/gpio/cy_gpio.h **** #define CY_GPIO_IBUF_SHIFT                     (0x01UL)   /**< Single SIO pin shift for input buffe
 238:Generated_Source\PSoC6\pdl\drivers/peripheral/gpio/cy_gpio.h **** #define CY_GPIO_VTRIP_SEL_MASK                 (0x01UL)   /**< Single SIO pin mask for the input bu
 239:Generated_Source\PSoC6\pdl\drivers/peripheral/gpio/cy_gpio.h **** #define CY_GPIO_VTRIP_SEL_SHIFT                (0x02UL)   /**< Single SIO pin shift for the input b
 240:Generated_Source\PSoC6\pdl\drivers/peripheral/gpio/cy_gpio.h **** #define CY_GPIO_VREF_SEL_MASK                  (0x03UL)   /**< Single SIO pin mask for voltage refe
 241:Generated_Source\PSoC6\pdl\drivers/peripheral/gpio/cy_gpio.h **** #define CY_GPIO_VREF_SEL_SHIFT                 (0x03UL)   /**< Single SIO pin shift for voltage ref
 242:Generated_Source\PSoC6\pdl\drivers/peripheral/gpio/cy_gpio.h **** #define CY_GPIO_VOH_SEL_MASK                   (0x07UL)   /**< Single SIO pin mask for VOH */
 243:Generated_Source\PSoC6\pdl\drivers/peripheral/gpio/cy_gpio.h **** #define CY_GPIO_VOH_SEL_SHIFT                  (0x05UL)   /**< Single SIO pin shift for VOH */
 244:Generated_Source\PSoC6\pdl\drivers/peripheral/gpio/cy_gpio.h **** 
 245:Generated_Source\PSoC6\pdl\drivers/peripheral/gpio/cy_gpio.h **** /* Special mask for SIO pin pair setting */
 246:Generated_Source\PSoC6\pdl\drivers/peripheral/gpio/cy_gpio.h **** #define CY_GPIO_SIO_ODD_PIN_MASK               (0x00FEUL) /**< SIO pin pair selection mask */
 247:Generated_Source\PSoC6\pdl\drivers/peripheral/gpio/cy_gpio.h **** #define CY_GPIO_SIO_PIN_MASK                   (0x00FFUL) /**< SIO pin pair mask */
 248:Generated_Source\PSoC6\pdl\drivers/peripheral/gpio/cy_gpio.h **** 
 249:Generated_Source\PSoC6\pdl\drivers/peripheral/gpio/cy_gpio.h **** /* Offsets */
 250:Generated_Source\PSoC6\pdl\drivers/peripheral/gpio/cy_gpio.h **** #define CY_GPIO_HSIOM_OFFSET                   (3UL)      /**< Offset for HSIOM */
 251:Generated_Source\PSoC6\pdl\drivers/peripheral/gpio/cy_gpio.h **** #define CY_GPIO_DRIVE_MODE_OFFSET              (2UL)      /**< Offset for Drive mode */
 252:Generated_Source\PSoC6\pdl\drivers/peripheral/gpio/cy_gpio.h **** #define CY_GPIO_INBUF_OFFSET                   (3UL)      /**< Offset for input buffer */
 253:Generated_Source\PSoC6\pdl\drivers/peripheral/gpio/cy_gpio.h **** #define CY_GPIO_CFG_OUT_DRIVE_OFFSET           (16UL)     /**< Offset for drive strength */
 254:Generated_Source\PSoC6\pdl\drivers/peripheral/gpio/cy_gpio.h **** #define CY_GPIO_INTR_CFG_OFFSET                (1UL)      /**< Offset for interrupt config */
 255:Generated_Source\PSoC6\pdl\drivers/peripheral/gpio/cy_gpio.h **** #define CY_GPIO_INTR_FILT_OFFSET               (18UL)     /**< Offset for filtered interrupt config
 256:Generated_Source\PSoC6\pdl\drivers/peripheral/gpio/cy_gpio.h **** #define CY_GPIO_CFG_SIO_OFFSET                 (2UL)      /**< Offset for SIO config */
 257:Generated_Source\PSoC6\pdl\drivers/peripheral/gpio/cy_gpio.h **** 
ARM GAS  C:\Users\Brian\AppData\Local\Temp\ccBwD5Lv.s 			page 28


 258:Generated_Source\PSoC6\pdl\drivers/peripheral/gpio/cy_gpio.h **** /* Parameter validation constants */
 259:Generated_Source\PSoC6\pdl\drivers/peripheral/gpio/cy_gpio.h **** #define CY_GPIO_PINS_MAX                       (8UL)      /**< Number of pins in the port */
 260:Generated_Source\PSoC6\pdl\drivers/peripheral/gpio/cy_gpio.h **** #define CY_GPIO_PRT_PINS_MASK                  (0x0000000FFUL)
 261:Generated_Source\PSoC6\pdl\drivers/peripheral/gpio/cy_gpio.h **** #define CY_GPIO_PRT_INTR_CFG_EDGE_SEL_MASK     (GPIO_PRT_INTR_CFG_EDGE0_SEL_Msk | \
 262:Generated_Source\PSoC6\pdl\drivers/peripheral/gpio/cy_gpio.h ****                                                 GPIO_PRT_INTR_CFG_EDGE1_SEL_Msk | \
 263:Generated_Source\PSoC6\pdl\drivers/peripheral/gpio/cy_gpio.h ****                                                 GPIO_PRT_INTR_CFG_EDGE2_SEL_Msk | \
 264:Generated_Source\PSoC6\pdl\drivers/peripheral/gpio/cy_gpio.h ****                                                 GPIO_PRT_INTR_CFG_EDGE3_SEL_Msk | \
 265:Generated_Source\PSoC6\pdl\drivers/peripheral/gpio/cy_gpio.h ****                                                 GPIO_PRT_INTR_CFG_EDGE4_SEL_Msk | \
 266:Generated_Source\PSoC6\pdl\drivers/peripheral/gpio/cy_gpio.h ****                                                 GPIO_PRT_INTR_CFG_EDGE5_SEL_Msk | \
 267:Generated_Source\PSoC6\pdl\drivers/peripheral/gpio/cy_gpio.h ****                                                 GPIO_PRT_INTR_CFG_EDGE6_SEL_Msk | \
 268:Generated_Source\PSoC6\pdl\drivers/peripheral/gpio/cy_gpio.h ****                                                 GPIO_PRT_INTR_CFG_EDGE7_SEL_Msk)            
 269:Generated_Source\PSoC6\pdl\drivers/peripheral/gpio/cy_gpio.h **** #define CY_GPIO_PRT_INTR_CFG_RANGE_MASK        (CY_GPIO_PRT_INTR_CFG_EDGE_SEL_MASK | \
 270:Generated_Source\PSoC6\pdl\drivers/peripheral/gpio/cy_gpio.h ****                                                 GPIO_PRT_INTR_CFG_FLT_EDGE_SEL_Msk | \
 271:Generated_Source\PSoC6\pdl\drivers/peripheral/gpio/cy_gpio.h ****                                                 GPIO_PRT_INTR_CFG_FLT_SEL_Msk)
 272:Generated_Source\PSoC6\pdl\drivers/peripheral/gpio/cy_gpio.h **** #define CY_GPIO_PRT_INT_MASK_MASK              (0x0000001FFUL)
 273:Generated_Source\PSoC6\pdl\drivers/peripheral/gpio/cy_gpio.h **** #define CY_GPIO_PRT_SEL_ACTIVE_MASK            (0x1FFFFFFFUL)
 274:Generated_Source\PSoC6\pdl\drivers/peripheral/gpio/cy_gpio.h **** 
 275:Generated_Source\PSoC6\pdl\drivers/peripheral/gpio/cy_gpio.h **** /* Parameter validation macros */
 276:Generated_Source\PSoC6\pdl\drivers/peripheral/gpio/cy_gpio.h **** #define CY_GPIO_IS_PIN_VALID(pinNum)           (CY_GPIO_PINS_MAX > (pinNum))
 277:Generated_Source\PSoC6\pdl\drivers/peripheral/gpio/cy_gpio.h **** #define CY_GPIO_IS_FILTER_PIN_VALID(pinNum)    (CY_GPIO_PINS_MAX >= (pinNum))
 278:Generated_Source\PSoC6\pdl\drivers/peripheral/gpio/cy_gpio.h **** #define CY_GPIO_IS_VALUE_VALID(outVal)         (1UL >= (outVal))
 279:Generated_Source\PSoC6\pdl\drivers/peripheral/gpio/cy_gpio.h **** #define CY_GPIO_IS_DM_VALID(driveMode)         (0U == ((driveMode) & (uint32_t)~CY_GPIO_CFG_DM_MASK
 280:Generated_Source\PSoC6\pdl\drivers/peripheral/gpio/cy_gpio.h **** 
 281:Generated_Source\PSoC6\pdl\drivers/peripheral/gpio/cy_gpio.h **** #define CY_GPIO_IS_HSIOM_VALID(hsiom)          (0U == ((hsiom) & (uint32_t)~CY_GPIO_HSIOM_MASK))
 282:Generated_Source\PSoC6\pdl\drivers/peripheral/gpio/cy_gpio.h **** 
 283:Generated_Source\PSoC6\pdl\drivers/peripheral/gpio/cy_gpio.h **** #define CY_GPIO_IS_INT_EDGE_VALID(intEdge)     ((CY_GPIO_INTR_DISABLE  == (intEdge)) || \
 284:Generated_Source\PSoC6\pdl\drivers/peripheral/gpio/cy_gpio.h ****                                                 (CY_GPIO_INTR_RISING   == (intEdge)) || \
 285:Generated_Source\PSoC6\pdl\drivers/peripheral/gpio/cy_gpio.h ****                                                 (CY_GPIO_INTR_FALLING  == (intEdge)) || \
 286:Generated_Source\PSoC6\pdl\drivers/peripheral/gpio/cy_gpio.h ****                                                 (CY_GPIO_INTR_BOTH     == (intEdge)))
 287:Generated_Source\PSoC6\pdl\drivers/peripheral/gpio/cy_gpio.h **** 
 288:Generated_Source\PSoC6\pdl\drivers/peripheral/gpio/cy_gpio.h **** #define CY_GPIO_IS_DRIVE_SEL_VALID(driveSel)   ((CY_GPIO_DRIVE_FULL    == (driveSel)) || \
 289:Generated_Source\PSoC6\pdl\drivers/peripheral/gpio/cy_gpio.h ****                                                 (CY_GPIO_DRIVE_1_2     == (driveSel)) || \
 290:Generated_Source\PSoC6\pdl\drivers/peripheral/gpio/cy_gpio.h ****                                                 (CY_GPIO_DRIVE_1_4     == (driveSel)) || \
 291:Generated_Source\PSoC6\pdl\drivers/peripheral/gpio/cy_gpio.h ****                                                 (CY_GPIO_DRIVE_1_8     == (driveSel)))
 292:Generated_Source\PSoC6\pdl\drivers/peripheral/gpio/cy_gpio.h **** 
 293:Generated_Source\PSoC6\pdl\drivers/peripheral/gpio/cy_gpio.h **** #define CY_GPIO_IS_VREF_SEL_VALID(vrefSel)     ((CY_SIO_VREF_PINREF    == (vrefSel)) || \
 294:Generated_Source\PSoC6\pdl\drivers/peripheral/gpio/cy_gpio.h ****                                                 (CY_SIO_VREF_1_2V      == (vrefSel)) || \
 295:Generated_Source\PSoC6\pdl\drivers/peripheral/gpio/cy_gpio.h ****                                                 (CY_SIO_VREF_AMUX_A    == (vrefSel)) || \
 296:Generated_Source\PSoC6\pdl\drivers/peripheral/gpio/cy_gpio.h ****                                                 (CY_SIO_VREF_AMUX_B    == (vrefSel)))
 297:Generated_Source\PSoC6\pdl\drivers/peripheral/gpio/cy_gpio.h **** 
 298:Generated_Source\PSoC6\pdl\drivers/peripheral/gpio/cy_gpio.h **** #define CY_GPIO_IS_VOH_SEL_VALID(vrefSel)      ((CY_SIO_VOH_1_00       == (vrefSel)) || \
 299:Generated_Source\PSoC6\pdl\drivers/peripheral/gpio/cy_gpio.h ****                                                 (CY_SIO_VOH_1_25       == (vrefSel)) || \
 300:Generated_Source\PSoC6\pdl\drivers/peripheral/gpio/cy_gpio.h ****                                                 (CY_SIO_VOH_1_49       == (vrefSel)) || \
 301:Generated_Source\PSoC6\pdl\drivers/peripheral/gpio/cy_gpio.h ****                                                 (CY_SIO_VOH_1_67       == (vrefSel)) || \
 302:Generated_Source\PSoC6\pdl\drivers/peripheral/gpio/cy_gpio.h ****                                                 (CY_SIO_VOH_2_08       == (vrefSel)) || \
 303:Generated_Source\PSoC6\pdl\drivers/peripheral/gpio/cy_gpio.h ****                                                 (CY_SIO_VOH_2_50       == (vrefSel)) || \
 304:Generated_Source\PSoC6\pdl\drivers/peripheral/gpio/cy_gpio.h ****                                                 (CY_SIO_VOH_2_78       == (vrefSel)) || \
 305:Generated_Source\PSoC6\pdl\drivers/peripheral/gpio/cy_gpio.h ****                                                 (CY_SIO_VOH_4_16       == (vrefSel)))
 306:Generated_Source\PSoC6\pdl\drivers/peripheral/gpio/cy_gpio.h ****                    
 307:Generated_Source\PSoC6\pdl\drivers/peripheral/gpio/cy_gpio.h **** #define CY_GPIO_IS_PIN_BIT_VALID(pinBit)       (0U == ((pinBit) & (uint32_t)~CY_GPIO_PRT_PINS_MASK)
 308:Generated_Source\PSoC6\pdl\drivers/peripheral/gpio/cy_gpio.h **** #define CY_GPIO_IS_INTR_CFG_VALID(intrCfg)     (0U == ((intrCfg) & (uint32_t)~CY_GPIO_PRT_INTR_CFG_
 309:Generated_Source\PSoC6\pdl\drivers/peripheral/gpio/cy_gpio.h **** #define CY_GPIO_IS_INTR_MASK_VALID(intrMask)   (0U == ((intrMask) & (uint32_t)~CY_GPIO_PRT_INT_MASK
 310:Generated_Source\PSoC6\pdl\drivers/peripheral/gpio/cy_gpio.h **** #define CY_GPIO_IS_SEL_ACT_VALID(selActive)    (0U == ((selActive) & (uint32_t)~CY_GPIO_PRT_SEL_ACT
 311:Generated_Source\PSoC6\pdl\drivers/peripheral/gpio/cy_gpio.h **** 
 312:Generated_Source\PSoC6\pdl\drivers/peripheral/gpio/cy_gpio.h **** /** \endcond */
 313:Generated_Source\PSoC6\pdl\drivers/peripheral/gpio/cy_gpio.h **** 
 314:Generated_Source\PSoC6\pdl\drivers/peripheral/gpio/cy_gpio.h **** 
ARM GAS  C:\Users\Brian\AppData\Local\Temp\ccBwD5Lv.s 			page 29


 315:Generated_Source\PSoC6\pdl\drivers/peripheral/gpio/cy_gpio.h **** /***************************************
 316:Generated_Source\PSoC6\pdl\drivers/peripheral/gpio/cy_gpio.h **** *        Function Constants
 317:Generated_Source\PSoC6\pdl\drivers/peripheral/gpio/cy_gpio.h **** ***************************************/
 318:Generated_Source\PSoC6\pdl\drivers/peripheral/gpio/cy_gpio.h **** 
 319:Generated_Source\PSoC6\pdl\drivers/peripheral/gpio/cy_gpio.h **** /**
 320:Generated_Source\PSoC6\pdl\drivers/peripheral/gpio/cy_gpio.h **** * \addtogroup group_gpio_macros
 321:Generated_Source\PSoC6\pdl\drivers/peripheral/gpio/cy_gpio.h **** * \{
 322:Generated_Source\PSoC6\pdl\drivers/peripheral/gpio/cy_gpio.h **** */
 323:Generated_Source\PSoC6\pdl\drivers/peripheral/gpio/cy_gpio.h **** 
 324:Generated_Source\PSoC6\pdl\drivers/peripheral/gpio/cy_gpio.h **** /**
 325:Generated_Source\PSoC6\pdl\drivers/peripheral/gpio/cy_gpio.h **** * \defgroup group_gpio_driveModes Pin drive mode
 326:Generated_Source\PSoC6\pdl\drivers/peripheral/gpio/cy_gpio.h **** * \{
 327:Generated_Source\PSoC6\pdl\drivers/peripheral/gpio/cy_gpio.h **** * Constants to be used for setting the drive mode of the pin.
 328:Generated_Source\PSoC6\pdl\drivers/peripheral/gpio/cy_gpio.h **** */
 329:Generated_Source\PSoC6\pdl\drivers/peripheral/gpio/cy_gpio.h **** #define CY_GPIO_DM_ANALOG                      (0x00UL) /**< \brief Analog High-Z. Input buffer off
 330:Generated_Source\PSoC6\pdl\drivers/peripheral/gpio/cy_gpio.h **** #define CY_GPIO_DM_PULLUP_IN_OFF               (0x02UL) /**< \brief Resistive Pull-Up. Input buffer
 331:Generated_Source\PSoC6\pdl\drivers/peripheral/gpio/cy_gpio.h **** #define CY_GPIO_DM_PULLDOWN_IN_OFF             (0x03UL) /**< \brief Resistive Pull-Down. Input buff
 332:Generated_Source\PSoC6\pdl\drivers/peripheral/gpio/cy_gpio.h **** #define CY_GPIO_DM_OD_DRIVESLOW_IN_OFF         (0x04UL) /**< \brief Open Drain, Drives Low. Input b
 333:Generated_Source\PSoC6\pdl\drivers/peripheral/gpio/cy_gpio.h **** #define CY_GPIO_DM_OD_DRIVESHIGH_IN_OFF        (0x05UL) /**< \brief Open Drain, Drives High. Input 
 334:Generated_Source\PSoC6\pdl\drivers/peripheral/gpio/cy_gpio.h **** #define CY_GPIO_DM_STRONG_IN_OFF               (0x06UL) /**< \brief Strong Drive. Input buffer off 
 335:Generated_Source\PSoC6\pdl\drivers/peripheral/gpio/cy_gpio.h **** #define CY_GPIO_DM_PULLUP_DOWN_IN_OFF          (0x07UL) /**< \brief Resistive Pull-Up/Down. Input b
 336:Generated_Source\PSoC6\pdl\drivers/peripheral/gpio/cy_gpio.h **** #define CY_GPIO_DM_HIGHZ                       (0x08UL) /**< \brief Digital High-Z. Input buffer on
 337:Generated_Source\PSoC6\pdl\drivers/peripheral/gpio/cy_gpio.h **** #define CY_GPIO_DM_PULLUP                      (0x0AUL) /**< \brief Resistive Pull-Up. Input buffer
 338:Generated_Source\PSoC6\pdl\drivers/peripheral/gpio/cy_gpio.h **** #define CY_GPIO_DM_PULLDOWN                    (0x0BUL) /**< \brief Resistive Pull-Down. Input buff
 339:Generated_Source\PSoC6\pdl\drivers/peripheral/gpio/cy_gpio.h **** #define CY_GPIO_DM_OD_DRIVESLOW                (0x0CUL) /**< \brief Open Drain, Drives Low. Input b
 340:Generated_Source\PSoC6\pdl\drivers/peripheral/gpio/cy_gpio.h **** #define CY_GPIO_DM_OD_DRIVESHIGH               (0x0DUL) /**< \brief Open Drain, Drives High. Input 
 341:Generated_Source\PSoC6\pdl\drivers/peripheral/gpio/cy_gpio.h **** #define CY_GPIO_DM_STRONG                      (0x0EUL) /**< \brief Strong Drive. Input buffer on *
 342:Generated_Source\PSoC6\pdl\drivers/peripheral/gpio/cy_gpio.h **** #define CY_GPIO_DM_PULLUP_DOWN                 (0x0FUL) /**< \brief Resistive Pull-Up/Down. Input b
 343:Generated_Source\PSoC6\pdl\drivers/peripheral/gpio/cy_gpio.h **** /** \} */
 344:Generated_Source\PSoC6\pdl\drivers/peripheral/gpio/cy_gpio.h **** 
 345:Generated_Source\PSoC6\pdl\drivers/peripheral/gpio/cy_gpio.h **** /**
 346:Generated_Source\PSoC6\pdl\drivers/peripheral/gpio/cy_gpio.h **** * \defgroup group_gpio_vtrip Voltage trip mode
 347:Generated_Source\PSoC6\pdl\drivers/peripheral/gpio/cy_gpio.h **** * \{
 348:Generated_Source\PSoC6\pdl\drivers/peripheral/gpio/cy_gpio.h **** * Constants to be used for setting the voltage trip type on the pin.
 349:Generated_Source\PSoC6\pdl\drivers/peripheral/gpio/cy_gpio.h **** */
 350:Generated_Source\PSoC6\pdl\drivers/peripheral/gpio/cy_gpio.h **** #define CY_GPIO_VTRIP_CMOS                     (0x00UL) /**< \brief Input buffer compatible with CM
 351:Generated_Source\PSoC6\pdl\drivers/peripheral/gpio/cy_gpio.h **** #define CY_GPIO_VTRIP_TTL                      (0x01UL) /**< \brief Input buffer compatible with TT
 352:Generated_Source\PSoC6\pdl\drivers/peripheral/gpio/cy_gpio.h **** /** \} */
 353:Generated_Source\PSoC6\pdl\drivers/peripheral/gpio/cy_gpio.h **** 
 354:Generated_Source\PSoC6\pdl\drivers/peripheral/gpio/cy_gpio.h **** /**
 355:Generated_Source\PSoC6\pdl\drivers/peripheral/gpio/cy_gpio.h **** * \defgroup group_gpio_slewRate Slew Rate Mode
 356:Generated_Source\PSoC6\pdl\drivers/peripheral/gpio/cy_gpio.h **** * \{
 357:Generated_Source\PSoC6\pdl\drivers/peripheral/gpio/cy_gpio.h **** * Constants to be used for setting the slew rate of the pin.
 358:Generated_Source\PSoC6\pdl\drivers/peripheral/gpio/cy_gpio.h **** */
 359:Generated_Source\PSoC6\pdl\drivers/peripheral/gpio/cy_gpio.h **** #define CY_GPIO_SLEW_FAST                      (0x00UL) /**< \brief Fast slew rate */
 360:Generated_Source\PSoC6\pdl\drivers/peripheral/gpio/cy_gpio.h **** #define CY_GPIO_SLEW_SLOW                      (0x01UL) /**< \brief Slow slew rate */
 361:Generated_Source\PSoC6\pdl\drivers/peripheral/gpio/cy_gpio.h **** /** \} */
 362:Generated_Source\PSoC6\pdl\drivers/peripheral/gpio/cy_gpio.h **** 
 363:Generated_Source\PSoC6\pdl\drivers/peripheral/gpio/cy_gpio.h **** /**
 364:Generated_Source\PSoC6\pdl\drivers/peripheral/gpio/cy_gpio.h **** * \defgroup group_gpio_driveStrength Pin drive strength
 365:Generated_Source\PSoC6\pdl\drivers/peripheral/gpio/cy_gpio.h **** * \{
 366:Generated_Source\PSoC6\pdl\drivers/peripheral/gpio/cy_gpio.h **** * Constants to be used for setting the drive strength of the pin.
 367:Generated_Source\PSoC6\pdl\drivers/peripheral/gpio/cy_gpio.h **** */
 368:Generated_Source\PSoC6\pdl\drivers/peripheral/gpio/cy_gpio.h **** #define CY_GPIO_DRIVE_FULL                     (0x00UL) /**< \brief Full drive strength: Max drive 
 369:Generated_Source\PSoC6\pdl\drivers/peripheral/gpio/cy_gpio.h **** #define CY_GPIO_DRIVE_1_2                      (0x01UL) /**< \brief 1/2 drive strength: 1/2 drive c
 370:Generated_Source\PSoC6\pdl\drivers/peripheral/gpio/cy_gpio.h **** #define CY_GPIO_DRIVE_1_4                      (0x02UL) /**< \brief 1/4 drive strength: 1/4 drive c
 371:Generated_Source\PSoC6\pdl\drivers/peripheral/gpio/cy_gpio.h **** #define CY_GPIO_DRIVE_1_8                      (0x03UL) /**< \brief 1/8 drive strength: 1/8 drive c
ARM GAS  C:\Users\Brian\AppData\Local\Temp\ccBwD5Lv.s 			page 30


 372:Generated_Source\PSoC6\pdl\drivers/peripheral/gpio/cy_gpio.h **** /** \} */
 373:Generated_Source\PSoC6\pdl\drivers/peripheral/gpio/cy_gpio.h **** 
 374:Generated_Source\PSoC6\pdl\drivers/peripheral/gpio/cy_gpio.h **** /**
 375:Generated_Source\PSoC6\pdl\drivers/peripheral/gpio/cy_gpio.h **** * \defgroup group_gpio_interruptTrigger Interrupt trigger type
 376:Generated_Source\PSoC6\pdl\drivers/peripheral/gpio/cy_gpio.h **** * \{
 377:Generated_Source\PSoC6\pdl\drivers/peripheral/gpio/cy_gpio.h **** * Constants to be used for setting the interrupt trigger type on the pin.
 378:Generated_Source\PSoC6\pdl\drivers/peripheral/gpio/cy_gpio.h **** */
 379:Generated_Source\PSoC6\pdl\drivers/peripheral/gpio/cy_gpio.h **** #define CY_GPIO_INTR_DISABLE                   (0x00UL) /**< \brief Disable the pin interrupt gener
 380:Generated_Source\PSoC6\pdl\drivers/peripheral/gpio/cy_gpio.h **** #define CY_GPIO_INTR_RISING                    (0x01UL) /**< \brief Rising-Edge interrupt */
 381:Generated_Source\PSoC6\pdl\drivers/peripheral/gpio/cy_gpio.h **** #define CY_GPIO_INTR_FALLING                   (0x02UL) /**< \brief Falling-Edge interrupt */
 382:Generated_Source\PSoC6\pdl\drivers/peripheral/gpio/cy_gpio.h **** #define CY_GPIO_INTR_BOTH                      (0x03UL) /**< \brief Both-Edge interrupt */
 383:Generated_Source\PSoC6\pdl\drivers/peripheral/gpio/cy_gpio.h **** /** \} */
 384:Generated_Source\PSoC6\pdl\drivers/peripheral/gpio/cy_gpio.h **** 
 385:Generated_Source\PSoC6\pdl\drivers/peripheral/gpio/cy_gpio.h **** /**
 386:Generated_Source\PSoC6\pdl\drivers/peripheral/gpio/cy_gpio.h **** * \defgroup group_gpio_sioVreg SIO output buffer mode
 387:Generated_Source\PSoC6\pdl\drivers/peripheral/gpio/cy_gpio.h **** * \{
 388:Generated_Source\PSoC6\pdl\drivers/peripheral/gpio/cy_gpio.h **** * Constants to be used for setting the SIO output buffer mode on the pin.
 389:Generated_Source\PSoC6\pdl\drivers/peripheral/gpio/cy_gpio.h **** */
 390:Generated_Source\PSoC6\pdl\drivers/peripheral/gpio/cy_gpio.h **** #define CY_SIO_VREG_UNREGULATED                (0x00UL) /**< \brief Unregulated output buffer */
 391:Generated_Source\PSoC6\pdl\drivers/peripheral/gpio/cy_gpio.h **** #define CY_SIO_VREG_REGULATED                  (0x01UL) /**< \brief Regulated output buffer */
 392:Generated_Source\PSoC6\pdl\drivers/peripheral/gpio/cy_gpio.h **** /** \} */
 393:Generated_Source\PSoC6\pdl\drivers/peripheral/gpio/cy_gpio.h **** 
 394:Generated_Source\PSoC6\pdl\drivers/peripheral/gpio/cy_gpio.h **** /**
 395:Generated_Source\PSoC6\pdl\drivers/peripheral/gpio/cy_gpio.h **** * \defgroup group_gpio_sioIbuf SIO input buffer mode
 396:Generated_Source\PSoC6\pdl\drivers/peripheral/gpio/cy_gpio.h **** * \{
 397:Generated_Source\PSoC6\pdl\drivers/peripheral/gpio/cy_gpio.h **** * Constants to be used for setting the SIO input buffer mode on the pin.
 398:Generated_Source\PSoC6\pdl\drivers/peripheral/gpio/cy_gpio.h **** */
 399:Generated_Source\PSoC6\pdl\drivers/peripheral/gpio/cy_gpio.h **** #define CY_SIO_IBUF_SINGLEENDED                (0x00UL) /**< \brief Single ended input buffer */
 400:Generated_Source\PSoC6\pdl\drivers/peripheral/gpio/cy_gpio.h **** #define CY_SIO_IBUF_DIFFERENTIAL               (0x01UL) /**< \brief Differential input buffer */
 401:Generated_Source\PSoC6\pdl\drivers/peripheral/gpio/cy_gpio.h **** /** \} */
 402:Generated_Source\PSoC6\pdl\drivers/peripheral/gpio/cy_gpio.h **** 
 403:Generated_Source\PSoC6\pdl\drivers/peripheral/gpio/cy_gpio.h **** /**
 404:Generated_Source\PSoC6\pdl\drivers/peripheral/gpio/cy_gpio.h **** * \defgroup group_gpio_sioVtrip SIO input buffer trip-point
 405:Generated_Source\PSoC6\pdl\drivers/peripheral/gpio/cy_gpio.h **** * \{
 406:Generated_Source\PSoC6\pdl\drivers/peripheral/gpio/cy_gpio.h **** * Constants to be used for setting the SIO input buffer trip-point of the pin.
 407:Generated_Source\PSoC6\pdl\drivers/peripheral/gpio/cy_gpio.h **** */
 408:Generated_Source\PSoC6\pdl\drivers/peripheral/gpio/cy_gpio.h **** #define CY_SIO_VTRIP_CMOS                      (0x00UL) /**< \brief CMOS input buffer (single-ended
 409:Generated_Source\PSoC6\pdl\drivers/peripheral/gpio/cy_gpio.h **** #define CY_SIO_VTRIP_TTL                       (0x01UL) /**< \brief TTL input buffer (single-ended)
 410:Generated_Source\PSoC6\pdl\drivers/peripheral/gpio/cy_gpio.h **** #define CY_SIO_VTRIP_0_5VDDIO_0_5VOH           (0x00UL) /**< \brief 0.5xVddio or 0.5xVoh (different
 411:Generated_Source\PSoC6\pdl\drivers/peripheral/gpio/cy_gpio.h **** #define CY_SIO_VTRIP_0_4VDDIO_1_0VREF          (0x01UL) /**< \brief 0.4xVddio or 0.4xVoh (different
 412:Generated_Source\PSoC6\pdl\drivers/peripheral/gpio/cy_gpio.h **** /** \} */
 413:Generated_Source\PSoC6\pdl\drivers/peripheral/gpio/cy_gpio.h **** 
 414:Generated_Source\PSoC6\pdl\drivers/peripheral/gpio/cy_gpio.h **** /**
 415:Generated_Source\PSoC6\pdl\drivers/peripheral/gpio/cy_gpio.h **** * \defgroup group_gpio_sioVref SIO reference voltage for input buffer trip-point
 416:Generated_Source\PSoC6\pdl\drivers/peripheral/gpio/cy_gpio.h **** * \{
 417:Generated_Source\PSoC6\pdl\drivers/peripheral/gpio/cy_gpio.h **** * Constants to be used for setting the reference voltage of SIO input buffer trip-point.
 418:Generated_Source\PSoC6\pdl\drivers/peripheral/gpio/cy_gpio.h **** */
 419:Generated_Source\PSoC6\pdl\drivers/peripheral/gpio/cy_gpio.h **** #define CY_SIO_VREF_PINREF                     (0x00UL) /**< \brief Vref from analog pin */
 420:Generated_Source\PSoC6\pdl\drivers/peripheral/gpio/cy_gpio.h **** #define CY_SIO_VREF_1_2V                       (0x01UL) /**< \brief Vref from internal 1.2V referen
 421:Generated_Source\PSoC6\pdl\drivers/peripheral/gpio/cy_gpio.h **** #define CY_SIO_VREF_AMUX_A                     (0x02UL) /**< \brief Vref from AMUXBUS_A */
 422:Generated_Source\PSoC6\pdl\drivers/peripheral/gpio/cy_gpio.h **** #define CY_SIO_VREF_AMUX_B                     (0x03UL) /**< \brief Vref from AMUXBUS_B */
 423:Generated_Source\PSoC6\pdl\drivers/peripheral/gpio/cy_gpio.h **** /** \} */
 424:Generated_Source\PSoC6\pdl\drivers/peripheral/gpio/cy_gpio.h **** 
 425:Generated_Source\PSoC6\pdl\drivers/peripheral/gpio/cy_gpio.h **** /**
 426:Generated_Source\PSoC6\pdl\drivers/peripheral/gpio/cy_gpio.h **** * \defgroup group_gpio_sioVoh Regulated output voltage level (Voh) and input buffer trip-point of a
 427:Generated_Source\PSoC6\pdl\drivers/peripheral/gpio/cy_gpio.h **** * \{
 428:Generated_Source\PSoC6\pdl\drivers/peripheral/gpio/cy_gpio.h **** * Constants to be used for setting the Voh and input buffer trip-point of an SIO pair
ARM GAS  C:\Users\Brian\AppData\Local\Temp\ccBwD5Lv.s 			page 31


 429:Generated_Source\PSoC6\pdl\drivers/peripheral/gpio/cy_gpio.h **** */
 430:Generated_Source\PSoC6\pdl\drivers/peripheral/gpio/cy_gpio.h **** #define CY_SIO_VOH_1_00                        (0x00UL) /**< \brief Voh = 1 x Reference */
 431:Generated_Source\PSoC6\pdl\drivers/peripheral/gpio/cy_gpio.h **** #define CY_SIO_VOH_1_25                        (0x01UL) /**< \brief Voh = 1.25 x Reference */
 432:Generated_Source\PSoC6\pdl\drivers/peripheral/gpio/cy_gpio.h **** #define CY_SIO_VOH_1_49                        (0x02UL) /**< \brief Voh = 1.49 x Reference */
 433:Generated_Source\PSoC6\pdl\drivers/peripheral/gpio/cy_gpio.h **** #define CY_SIO_VOH_1_67                        (0x03UL) /**< \brief Voh = 1.67 x Reference */
 434:Generated_Source\PSoC6\pdl\drivers/peripheral/gpio/cy_gpio.h **** #define CY_SIO_VOH_2_08                        (0x04UL) /**< \brief Voh = 2.08 x Reference */
 435:Generated_Source\PSoC6\pdl\drivers/peripheral/gpio/cy_gpio.h **** #define CY_SIO_VOH_2_50                        (0x05UL) /**< \brief Voh = 2.50 x Reference */
 436:Generated_Source\PSoC6\pdl\drivers/peripheral/gpio/cy_gpio.h **** #define CY_SIO_VOH_2_78                        (0x06UL) /**< \brief Voh = 2.78 x Reference */
 437:Generated_Source\PSoC6\pdl\drivers/peripheral/gpio/cy_gpio.h **** #define CY_SIO_VOH_4_16                        (0x07UL) /**< \brief Voh = 4.16 x Reference */
 438:Generated_Source\PSoC6\pdl\drivers/peripheral/gpio/cy_gpio.h **** /** \} */
 439:Generated_Source\PSoC6\pdl\drivers/peripheral/gpio/cy_gpio.h **** 
 440:Generated_Source\PSoC6\pdl\drivers/peripheral/gpio/cy_gpio.h **** /** \} group_gpio_macros */
 441:Generated_Source\PSoC6\pdl\drivers/peripheral/gpio/cy_gpio.h **** 
 442:Generated_Source\PSoC6\pdl\drivers/peripheral/gpio/cy_gpio.h **** /***************************************
 443:Generated_Source\PSoC6\pdl\drivers/peripheral/gpio/cy_gpio.h **** *        Function Prototypes
 444:Generated_Source\PSoC6\pdl\drivers/peripheral/gpio/cy_gpio.h **** ***************************************/
 445:Generated_Source\PSoC6\pdl\drivers/peripheral/gpio/cy_gpio.h **** 
 446:Generated_Source\PSoC6\pdl\drivers/peripheral/gpio/cy_gpio.h **** /**
 447:Generated_Source\PSoC6\pdl\drivers/peripheral/gpio/cy_gpio.h **** * \addtogroup group_gpio_functions
 448:Generated_Source\PSoC6\pdl\drivers/peripheral/gpio/cy_gpio.h **** * \{
 449:Generated_Source\PSoC6\pdl\drivers/peripheral/gpio/cy_gpio.h **** */
 450:Generated_Source\PSoC6\pdl\drivers/peripheral/gpio/cy_gpio.h **** 
 451:Generated_Source\PSoC6\pdl\drivers/peripheral/gpio/cy_gpio.h **** /**
 452:Generated_Source\PSoC6\pdl\drivers/peripheral/gpio/cy_gpio.h **** * \addtogroup group_gpio_functions_init
 453:Generated_Source\PSoC6\pdl\drivers/peripheral/gpio/cy_gpio.h **** * \{
 454:Generated_Source\PSoC6\pdl\drivers/peripheral/gpio/cy_gpio.h **** */
 455:Generated_Source\PSoC6\pdl\drivers/peripheral/gpio/cy_gpio.h **** 
 456:Generated_Source\PSoC6\pdl\drivers/peripheral/gpio/cy_gpio.h **** cy_en_gpio_status_t Cy_GPIO_Pin_Init(GPIO_PRT_Type* base, uint32_t pinNum, const cy_stc_gpio_pin_co
 457:Generated_Source\PSoC6\pdl\drivers/peripheral/gpio/cy_gpio.h **** cy_en_gpio_status_t Cy_GPIO_Port_Init(GPIO_PRT_Type* base, const cy_stc_gpio_prt_config_t *config);
 458:Generated_Source\PSoC6\pdl\drivers/peripheral/gpio/cy_gpio.h **** void Cy_GPIO_Pin_FastInit(GPIO_PRT_Type* base, uint32_t pinNum, uint32_t driveMode, uint32_t outVal
 459:Generated_Source\PSoC6\pdl\drivers/peripheral/gpio/cy_gpio.h **** void Cy_GPIO_Port_Deinit(GPIO_PRT_Type* base);
 460:Generated_Source\PSoC6\pdl\drivers/peripheral/gpio/cy_gpio.h **** __STATIC_INLINE void Cy_GPIO_SetHSIOM(GPIO_PRT_Type* base, uint32_t pinNum, en_hsiom_sel_t value);
 461:Generated_Source\PSoC6\pdl\drivers/peripheral/gpio/cy_gpio.h **** __STATIC_INLINE en_hsiom_sel_t Cy_GPIO_GetHSIOM(GPIO_PRT_Type* base, uint32_t pinNum);
 462:Generated_Source\PSoC6\pdl\drivers/peripheral/gpio/cy_gpio.h **** __STATIC_INLINE GPIO_PRT_Type* Cy_GPIO_PortToAddr(uint32_t portNum);
 463:Generated_Source\PSoC6\pdl\drivers/peripheral/gpio/cy_gpio.h **** 
 464:Generated_Source\PSoC6\pdl\drivers/peripheral/gpio/cy_gpio.h **** /** \} group_gpio_functions_init */
 465:Generated_Source\PSoC6\pdl\drivers/peripheral/gpio/cy_gpio.h **** 
 466:Generated_Source\PSoC6\pdl\drivers/peripheral/gpio/cy_gpio.h **** /**
 467:Generated_Source\PSoC6\pdl\drivers/peripheral/gpio/cy_gpio.h **** * \addtogroup group_gpio_functions_gpio
 468:Generated_Source\PSoC6\pdl\drivers/peripheral/gpio/cy_gpio.h **** * \{
 469:Generated_Source\PSoC6\pdl\drivers/peripheral/gpio/cy_gpio.h **** */
 470:Generated_Source\PSoC6\pdl\drivers/peripheral/gpio/cy_gpio.h **** 
 471:Generated_Source\PSoC6\pdl\drivers/peripheral/gpio/cy_gpio.h **** __STATIC_INLINE uint32_t Cy_GPIO_Read(GPIO_PRT_Type* base, uint32_t pinNum);
 472:Generated_Source\PSoC6\pdl\drivers/peripheral/gpio/cy_gpio.h **** __STATIC_INLINE void Cy_GPIO_Write(GPIO_PRT_Type* base, uint32_t pinNum, uint32_t value);
 473:Generated_Source\PSoC6\pdl\drivers/peripheral/gpio/cy_gpio.h **** __STATIC_INLINE uint32_t Cy_GPIO_ReadOut(GPIO_PRT_Type* base, uint32_t pinNum);
 474:Generated_Source\PSoC6\pdl\drivers/peripheral/gpio/cy_gpio.h **** __STATIC_INLINE void Cy_GPIO_Set(GPIO_PRT_Type* base, uint32_t pinNum);
 475:Generated_Source\PSoC6\pdl\drivers/peripheral/gpio/cy_gpio.h **** __STATIC_INLINE void Cy_GPIO_Clr(GPIO_PRT_Type* base, uint32_t pinNum);
 476:Generated_Source\PSoC6\pdl\drivers/peripheral/gpio/cy_gpio.h **** __STATIC_INLINE void Cy_GPIO_Inv(GPIO_PRT_Type* base, uint32_t pinNum);
 477:Generated_Source\PSoC6\pdl\drivers/peripheral/gpio/cy_gpio.h **** __STATIC_INLINE void Cy_GPIO_SetDrivemode(GPIO_PRT_Type* base, uint32_t pinNum, uint32_t value);
 478:Generated_Source\PSoC6\pdl\drivers/peripheral/gpio/cy_gpio.h **** __STATIC_INLINE uint32_t Cy_GPIO_GetDrivemode(GPIO_PRT_Type* base, uint32_t pinNum);
 479:Generated_Source\PSoC6\pdl\drivers/peripheral/gpio/cy_gpio.h **** __STATIC_INLINE void Cy_GPIO_SetVtrip(GPIO_PRT_Type* base, uint32_t pinNum, uint32_t value);
 480:Generated_Source\PSoC6\pdl\drivers/peripheral/gpio/cy_gpio.h **** __STATIC_INLINE uint32_t Cy_GPIO_GetVtrip(GPIO_PRT_Type* base, uint32_t pinNum);
 481:Generated_Source\PSoC6\pdl\drivers/peripheral/gpio/cy_gpio.h **** __STATIC_INLINE void Cy_GPIO_SetSlewRate(GPIO_PRT_Type* base, uint32_t pinNum, uint32_t value);
 482:Generated_Source\PSoC6\pdl\drivers/peripheral/gpio/cy_gpio.h **** __STATIC_INLINE uint32_t Cy_GPIO_GetSlewRate(GPIO_PRT_Type* base, uint32_t pinNum);
 483:Generated_Source\PSoC6\pdl\drivers/peripheral/gpio/cy_gpio.h **** __STATIC_INLINE void Cy_GPIO_SetDriveSel(GPIO_PRT_Type* base, uint32_t pinNum, uint32_t value);
 484:Generated_Source\PSoC6\pdl\drivers/peripheral/gpio/cy_gpio.h **** __STATIC_INLINE uint32_t Cy_GPIO_GetDriveSel(GPIO_PRT_Type* base, uint32_t pinNum);
 485:Generated_Source\PSoC6\pdl\drivers/peripheral/gpio/cy_gpio.h **** 
ARM GAS  C:\Users\Brian\AppData\Local\Temp\ccBwD5Lv.s 			page 32


 486:Generated_Source\PSoC6\pdl\drivers/peripheral/gpio/cy_gpio.h **** /** \} group_gpio_functions_gpio */
 487:Generated_Source\PSoC6\pdl\drivers/peripheral/gpio/cy_gpio.h **** 
 488:Generated_Source\PSoC6\pdl\drivers/peripheral/gpio/cy_gpio.h **** /**
 489:Generated_Source\PSoC6\pdl\drivers/peripheral/gpio/cy_gpio.h **** * \addtogroup group_gpio_functions_sio
 490:Generated_Source\PSoC6\pdl\drivers/peripheral/gpio/cy_gpio.h **** * \{
 491:Generated_Source\PSoC6\pdl\drivers/peripheral/gpio/cy_gpio.h **** */
 492:Generated_Source\PSoC6\pdl\drivers/peripheral/gpio/cy_gpio.h **** 
 493:Generated_Source\PSoC6\pdl\drivers/peripheral/gpio/cy_gpio.h **** __STATIC_INLINE void Cy_GPIO_SetVregEn(GPIO_PRT_Type* base, uint32_t pinNum, uint32_t value);
 494:Generated_Source\PSoC6\pdl\drivers/peripheral/gpio/cy_gpio.h **** __STATIC_INLINE uint32_t Cy_GPIO_GetVregEn(GPIO_PRT_Type* base, uint32_t pinNum);
 495:Generated_Source\PSoC6\pdl\drivers/peripheral/gpio/cy_gpio.h **** __STATIC_INLINE void Cy_GPIO_SetIbufMode(GPIO_PRT_Type* base, uint32_t pinNum, uint32_t value);
 496:Generated_Source\PSoC6\pdl\drivers/peripheral/gpio/cy_gpio.h **** __STATIC_INLINE uint32_t Cy_GPIO_GetIbufMode(GPIO_PRT_Type* base, uint32_t pinNum);
 497:Generated_Source\PSoC6\pdl\drivers/peripheral/gpio/cy_gpio.h **** __STATIC_INLINE void Cy_GPIO_SetVtripSel(GPIO_PRT_Type* base, uint32_t pinNum, uint32_t value);
 498:Generated_Source\PSoC6\pdl\drivers/peripheral/gpio/cy_gpio.h **** __STATIC_INLINE uint32_t Cy_GPIO_GetVtripSel(GPIO_PRT_Type* base, uint32_t pinNum);
 499:Generated_Source\PSoC6\pdl\drivers/peripheral/gpio/cy_gpio.h **** __STATIC_INLINE void Cy_GPIO_SetVrefSel(GPIO_PRT_Type* base, uint32_t pinNum, uint32_t value);
 500:Generated_Source\PSoC6\pdl\drivers/peripheral/gpio/cy_gpio.h **** __STATIC_INLINE uint32_t Cy_GPIO_GetVrefSel(GPIO_PRT_Type* base, uint32_t pinNum);
 501:Generated_Source\PSoC6\pdl\drivers/peripheral/gpio/cy_gpio.h **** __STATIC_INLINE void Cy_GPIO_SetVohSel(GPIO_PRT_Type* base, uint32_t pinNum, uint32_t value);
 502:Generated_Source\PSoC6\pdl\drivers/peripheral/gpio/cy_gpio.h **** __STATIC_INLINE uint32_t Cy_GPIO_GetVohSel(GPIO_PRT_Type* base, uint32_t pinNum);
 503:Generated_Source\PSoC6\pdl\drivers/peripheral/gpio/cy_gpio.h **** 
 504:Generated_Source\PSoC6\pdl\drivers/peripheral/gpio/cy_gpio.h **** /** \} group_gpio_functions_sio */
 505:Generated_Source\PSoC6\pdl\drivers/peripheral/gpio/cy_gpio.h **** 
 506:Generated_Source\PSoC6\pdl\drivers/peripheral/gpio/cy_gpio.h **** /**
 507:Generated_Source\PSoC6\pdl\drivers/peripheral/gpio/cy_gpio.h **** * \addtogroup group_gpio_functions_interrupt
 508:Generated_Source\PSoC6\pdl\drivers/peripheral/gpio/cy_gpio.h **** * \{
 509:Generated_Source\PSoC6\pdl\drivers/peripheral/gpio/cy_gpio.h **** */
 510:Generated_Source\PSoC6\pdl\drivers/peripheral/gpio/cy_gpio.h **** 
 511:Generated_Source\PSoC6\pdl\drivers/peripheral/gpio/cy_gpio.h **** __STATIC_INLINE uint32_t Cy_GPIO_GetInterruptStatus(GPIO_PRT_Type* base, uint32_t pinNum);
 512:Generated_Source\PSoC6\pdl\drivers/peripheral/gpio/cy_gpio.h **** __STATIC_INLINE void Cy_GPIO_ClearInterrupt(GPIO_PRT_Type* base, uint32_t pinNum);
 513:Generated_Source\PSoC6\pdl\drivers/peripheral/gpio/cy_gpio.h **** __STATIC_INLINE void Cy_GPIO_SetInterruptMask(GPIO_PRT_Type* base, uint32_t pinNum, uint32_t value)
 514:Generated_Source\PSoC6\pdl\drivers/peripheral/gpio/cy_gpio.h **** __STATIC_INLINE uint32_t Cy_GPIO_GetInterruptMask(GPIO_PRT_Type* base, uint32_t pinNum);
 515:Generated_Source\PSoC6\pdl\drivers/peripheral/gpio/cy_gpio.h **** __STATIC_INLINE uint32_t Cy_GPIO_GetInterruptStatusMasked(GPIO_PRT_Type* base, uint32_t pinNum);
 516:Generated_Source\PSoC6\pdl\drivers/peripheral/gpio/cy_gpio.h **** __STATIC_INLINE void Cy_GPIO_SetSwInterrupt(GPIO_PRT_Type* base, uint32_t pinNum);
 517:Generated_Source\PSoC6\pdl\drivers/peripheral/gpio/cy_gpio.h **** __STATIC_INLINE void Cy_GPIO_SetInterruptEdge(GPIO_PRT_Type* base, uint32_t pinNum, uint32_t value)
 518:Generated_Source\PSoC6\pdl\drivers/peripheral/gpio/cy_gpio.h **** __STATIC_INLINE uint32_t Cy_GPIO_GetInterruptEdge(GPIO_PRT_Type* base, uint32_t pinNum);
 519:Generated_Source\PSoC6\pdl\drivers/peripheral/gpio/cy_gpio.h **** __STATIC_INLINE void Cy_GPIO_SetFilter(GPIO_PRT_Type* base, uint32_t value);
 520:Generated_Source\PSoC6\pdl\drivers/peripheral/gpio/cy_gpio.h **** __STATIC_INLINE uint32_t Cy_GPIO_GetFilter(GPIO_PRT_Type* base);
 521:Generated_Source\PSoC6\pdl\drivers/peripheral/gpio/cy_gpio.h **** 
 522:Generated_Source\PSoC6\pdl\drivers/peripheral/gpio/cy_gpio.h **** #if (IOSS_GPIO_GPIO_PORT_NR_0_31 != 0) || defined (CY_DOXYGEN)
 523:Generated_Source\PSoC6\pdl\drivers/peripheral/gpio/cy_gpio.h **** __STATIC_INLINE uint32_t Cy_GPIO_GetInterruptCause0(void);
 524:Generated_Source\PSoC6\pdl\drivers/peripheral/gpio/cy_gpio.h **** #endif /* (IOSS_GPIO_GPIO_PORT_NR_0_31 != 0) */
 525:Generated_Source\PSoC6\pdl\drivers/peripheral/gpio/cy_gpio.h **** 
 526:Generated_Source\PSoC6\pdl\drivers/peripheral/gpio/cy_gpio.h **** #if (IOSS_GPIO_GPIO_PORT_NR_32_63 != 0) || defined (CY_DOXYGEN)
 527:Generated_Source\PSoC6\pdl\drivers/peripheral/gpio/cy_gpio.h **** __STATIC_INLINE uint32_t Cy_GPIO_GetInterruptCause1(void);
 528:Generated_Source\PSoC6\pdl\drivers/peripheral/gpio/cy_gpio.h **** #endif /* (IOSS_GPIO_GPIO_PORT_NR_32_63 != 0) */
 529:Generated_Source\PSoC6\pdl\drivers/peripheral/gpio/cy_gpio.h **** 
 530:Generated_Source\PSoC6\pdl\drivers/peripheral/gpio/cy_gpio.h **** #if (IOSS_GPIO_GPIO_PORT_NR_64_95 != 0) || defined (CY_DOXYGEN)
 531:Generated_Source\PSoC6\pdl\drivers/peripheral/gpio/cy_gpio.h **** __STATIC_INLINE uint32_t Cy_GPIO_GetInterruptCause2(void);
 532:Generated_Source\PSoC6\pdl\drivers/peripheral/gpio/cy_gpio.h **** #endif /* (IOSS_GPIO_GPIO_PORT_NR_64_95 != 0) */
 533:Generated_Source\PSoC6\pdl\drivers/peripheral/gpio/cy_gpio.h **** 
 534:Generated_Source\PSoC6\pdl\drivers/peripheral/gpio/cy_gpio.h **** #if (IOSS_GPIO_GPIO_PORT_NR_96_127 != 0) || defined (CY_DOXYGEN)
 535:Generated_Source\PSoC6\pdl\drivers/peripheral/gpio/cy_gpio.h **** __STATIC_INLINE uint32_t Cy_GPIO_GetInterruptCause3(void);
 536:Generated_Source\PSoC6\pdl\drivers/peripheral/gpio/cy_gpio.h **** #endif /* (IOSS_GPIO_GPIO_PORT_NR_96_127 != 0) */
 537:Generated_Source\PSoC6\pdl\drivers/peripheral/gpio/cy_gpio.h **** 
 538:Generated_Source\PSoC6\pdl\drivers/peripheral/gpio/cy_gpio.h **** /** \} group_gpio_functions_interrupt */
 539:Generated_Source\PSoC6\pdl\drivers/peripheral/gpio/cy_gpio.h **** 
 540:Generated_Source\PSoC6\pdl\drivers/peripheral/gpio/cy_gpio.h **** 
 541:Generated_Source\PSoC6\pdl\drivers/peripheral/gpio/cy_gpio.h **** /**
 542:Generated_Source\PSoC6\pdl\drivers/peripheral/gpio/cy_gpio.h **** * \addtogroup group_gpio_functions_init
ARM GAS  C:\Users\Brian\AppData\Local\Temp\ccBwD5Lv.s 			page 33


 543:Generated_Source\PSoC6\pdl\drivers/peripheral/gpio/cy_gpio.h **** * \{
 544:Generated_Source\PSoC6\pdl\drivers/peripheral/gpio/cy_gpio.h **** */
 545:Generated_Source\PSoC6\pdl\drivers/peripheral/gpio/cy_gpio.h **** 
 546:Generated_Source\PSoC6\pdl\drivers/peripheral/gpio/cy_gpio.h **** /*******************************************************************************
 547:Generated_Source\PSoC6\pdl\drivers/peripheral/gpio/cy_gpio.h **** * Function Name: Cy_GPIO_SetHSIOM
 548:Generated_Source\PSoC6\pdl\drivers/peripheral/gpio/cy_gpio.h **** ****************************************************************************//**
 549:Generated_Source\PSoC6\pdl\drivers/peripheral/gpio/cy_gpio.h **** *
 550:Generated_Source\PSoC6\pdl\drivers/peripheral/gpio/cy_gpio.h **** * \brief Configures the HSIOM connection to the pin.
 551:Generated_Source\PSoC6\pdl\drivers/peripheral/gpio/cy_gpio.h **** *
 552:Generated_Source\PSoC6\pdl\drivers/peripheral/gpio/cy_gpio.h **** * Connects the specified High-Speed Input Output Multiplexer (HSIOM) selection
 553:Generated_Source\PSoC6\pdl\drivers/peripheral/gpio/cy_gpio.h **** * to the pin.
 554:Generated_Source\PSoC6\pdl\drivers/peripheral/gpio/cy_gpio.h **** *
 555:Generated_Source\PSoC6\pdl\drivers/peripheral/gpio/cy_gpio.h **** * \param base
 556:Generated_Source\PSoC6\pdl\drivers/peripheral/gpio/cy_gpio.h **** * Pointer to the pin's port register base address
 557:Generated_Source\PSoC6\pdl\drivers/peripheral/gpio/cy_gpio.h **** *
 558:Generated_Source\PSoC6\pdl\drivers/peripheral/gpio/cy_gpio.h **** * \param pinNum
 559:Generated_Source\PSoC6\pdl\drivers/peripheral/gpio/cy_gpio.h **** * Position of the pin bit-field within the port register
 560:Generated_Source\PSoC6\pdl\drivers/peripheral/gpio/cy_gpio.h **** *
 561:Generated_Source\PSoC6\pdl\drivers/peripheral/gpio/cy_gpio.h **** * \param value
 562:Generated_Source\PSoC6\pdl\drivers/peripheral/gpio/cy_gpio.h **** * HSIOM input selection
 563:Generated_Source\PSoC6\pdl\drivers/peripheral/gpio/cy_gpio.h **** *
 564:Generated_Source\PSoC6\pdl\drivers/peripheral/gpio/cy_gpio.h **** * \return
 565:Generated_Source\PSoC6\pdl\drivers/peripheral/gpio/cy_gpio.h **** * void
 566:Generated_Source\PSoC6\pdl\drivers/peripheral/gpio/cy_gpio.h **** *
 567:Generated_Source\PSoC6\pdl\drivers/peripheral/gpio/cy_gpio.h **** * \note 
 568:Generated_Source\PSoC6\pdl\drivers/peripheral/gpio/cy_gpio.h **** * This function modifies a port register in a read-modify-write operation. It is
 569:Generated_Source\PSoC6\pdl\drivers/peripheral/gpio/cy_gpio.h **** * not thread safe as the resource is shared among multiple pins on a port.
 570:Generated_Source\PSoC6\pdl\drivers/peripheral/gpio/cy_gpio.h **** *
 571:Generated_Source\PSoC6\pdl\drivers/peripheral/gpio/cy_gpio.h **** * \funcusage
 572:Generated_Source\PSoC6\pdl\drivers/peripheral/gpio/cy_gpio.h **** * \snippet gpio/gpio_v1_10_sut_01.cydsn/main_cm4.c snippet_Cy_GPIO_SetHSIOM
 573:Generated_Source\PSoC6\pdl\drivers/peripheral/gpio/cy_gpio.h **** *
 574:Generated_Source\PSoC6\pdl\drivers/peripheral/gpio/cy_gpio.h **** *******************************************************************************/
 575:Generated_Source\PSoC6\pdl\drivers/peripheral/gpio/cy_gpio.h **** __STATIC_INLINE void Cy_GPIO_SetHSIOM(GPIO_PRT_Type* base, uint32_t pinNum, en_hsiom_sel_t value)
 576:Generated_Source\PSoC6\pdl\drivers/peripheral/gpio/cy_gpio.h **** {
 577:Generated_Source\PSoC6\pdl\drivers/peripheral/gpio/cy_gpio.h ****     uint32_t portNum;
 578:Generated_Source\PSoC6\pdl\drivers/peripheral/gpio/cy_gpio.h ****     uint32_t tempReg;
 579:Generated_Source\PSoC6\pdl\drivers/peripheral/gpio/cy_gpio.h ****     HSIOM_PRT_Type* portAddrHSIOM;
 580:Generated_Source\PSoC6\pdl\drivers/peripheral/gpio/cy_gpio.h **** 
 581:Generated_Source\PSoC6\pdl\drivers/peripheral/gpio/cy_gpio.h ****     CY_ASSERT_L2(CY_GPIO_IS_PIN_VALID(pinNum));
 582:Generated_Source\PSoC6\pdl\drivers/peripheral/gpio/cy_gpio.h ****     CY_ASSERT_L2(CY_GPIO_IS_HSIOM_VALID(value));
 583:Generated_Source\PSoC6\pdl\drivers/peripheral/gpio/cy_gpio.h **** 
 584:Generated_Source\PSoC6\pdl\drivers/peripheral/gpio/cy_gpio.h ****     portNum = ((uint32_t)(base) - GPIO_BASE) / GPIO_PRT_SECTION_SIZE;
 585:Generated_Source\PSoC6\pdl\drivers/peripheral/gpio/cy_gpio.h ****     portAddrHSIOM = (HSIOM_PRT_Type*)(HSIOM_BASE + (HSIOM_PRT_SECTION_SIZE * portNum));
 586:Generated_Source\PSoC6\pdl\drivers/peripheral/gpio/cy_gpio.h **** 
 587:Generated_Source\PSoC6\pdl\drivers/peripheral/gpio/cy_gpio.h ****     if(pinNum < CY_GPIO_PRT_HALF)
 588:Generated_Source\PSoC6\pdl\drivers/peripheral/gpio/cy_gpio.h ****     {
 589:Generated_Source\PSoC6\pdl\drivers/peripheral/gpio/cy_gpio.h ****         tempReg = portAddrHSIOM->PORT_SEL0 & ~(CY_GPIO_HSIOM_MASK << (pinNum << CY_GPIO_HSIOM_OFFSE
 590:Generated_Source\PSoC6\pdl\drivers/peripheral/gpio/cy_gpio.h ****         portAddrHSIOM->PORT_SEL0 = tempReg | ((value & CY_GPIO_HSIOM_MASK) << (pinNum << CY_GPIO_HS
 591:Generated_Source\PSoC6\pdl\drivers/peripheral/gpio/cy_gpio.h ****     }
 592:Generated_Source\PSoC6\pdl\drivers/peripheral/gpio/cy_gpio.h ****     else
 593:Generated_Source\PSoC6\pdl\drivers/peripheral/gpio/cy_gpio.h ****     {
 594:Generated_Source\PSoC6\pdl\drivers/peripheral/gpio/cy_gpio.h ****         pinNum -= CY_GPIO_PRT_HALF;
 595:Generated_Source\PSoC6\pdl\drivers/peripheral/gpio/cy_gpio.h ****         tempReg = portAddrHSIOM->PORT_SEL1 & ~(CY_GPIO_HSIOM_MASK << (pinNum << CY_GPIO_HSIOM_OFFSE
 596:Generated_Source\PSoC6\pdl\drivers/peripheral/gpio/cy_gpio.h ****         portAddrHSIOM->PORT_SEL1 = tempReg | ((value & CY_GPIO_HSIOM_MASK) << (pinNum << CY_GPIO_HS
 597:Generated_Source\PSoC6\pdl\drivers/peripheral/gpio/cy_gpio.h ****     }
 598:Generated_Source\PSoC6\pdl\drivers/peripheral/gpio/cy_gpio.h **** }
 599:Generated_Source\PSoC6\pdl\drivers/peripheral/gpio/cy_gpio.h **** 
ARM GAS  C:\Users\Brian\AppData\Local\Temp\ccBwD5Lv.s 			page 34


 600:Generated_Source\PSoC6\pdl\drivers/peripheral/gpio/cy_gpio.h **** 
 601:Generated_Source\PSoC6\pdl\drivers/peripheral/gpio/cy_gpio.h **** /*******************************************************************************
 602:Generated_Source\PSoC6\pdl\drivers/peripheral/gpio/cy_gpio.h **** * Function Name: Cy_GPIO_GetHSIOM
 603:Generated_Source\PSoC6\pdl\drivers/peripheral/gpio/cy_gpio.h **** ****************************************************************************//**
 604:Generated_Source\PSoC6\pdl\drivers/peripheral/gpio/cy_gpio.h **** *
 605:Generated_Source\PSoC6\pdl\drivers/peripheral/gpio/cy_gpio.h **** * \brief Returns the current HSIOM multiplexer connection to the pin.
 606:Generated_Source\PSoC6\pdl\drivers/peripheral/gpio/cy_gpio.h **** *
 607:Generated_Source\PSoC6\pdl\drivers/peripheral/gpio/cy_gpio.h **** * \param base
 608:Generated_Source\PSoC6\pdl\drivers/peripheral/gpio/cy_gpio.h **** * Pointer to the pin's port register base address
 609:Generated_Source\PSoC6\pdl\drivers/peripheral/gpio/cy_gpio.h **** *
 610:Generated_Source\PSoC6\pdl\drivers/peripheral/gpio/cy_gpio.h **** * \param pinNum
 611:Generated_Source\PSoC6\pdl\drivers/peripheral/gpio/cy_gpio.h **** * Position of the pin bit-field within the port register
 612:Generated_Source\PSoC6\pdl\drivers/peripheral/gpio/cy_gpio.h **** *
 613:Generated_Source\PSoC6\pdl\drivers/peripheral/gpio/cy_gpio.h **** * \return
 614:Generated_Source\PSoC6\pdl\drivers/peripheral/gpio/cy_gpio.h **** * HSIOM input selection
 615:Generated_Source\PSoC6\pdl\drivers/peripheral/gpio/cy_gpio.h **** *
 616:Generated_Source\PSoC6\pdl\drivers/peripheral/gpio/cy_gpio.h **** * \funcusage
 617:Generated_Source\PSoC6\pdl\drivers/peripheral/gpio/cy_gpio.h **** * \snippet gpio/gpio_v1_10_sut_01.cydsn/main_cm4.c snippet_Cy_GPIO_SetHSIOM
 618:Generated_Source\PSoC6\pdl\drivers/peripheral/gpio/cy_gpio.h **** *
 619:Generated_Source\PSoC6\pdl\drivers/peripheral/gpio/cy_gpio.h **** *******************************************************************************/
 620:Generated_Source\PSoC6\pdl\drivers/peripheral/gpio/cy_gpio.h **** __STATIC_INLINE en_hsiom_sel_t Cy_GPIO_GetHSIOM(GPIO_PRT_Type* base, uint32_t pinNum)
 621:Generated_Source\PSoC6\pdl\drivers/peripheral/gpio/cy_gpio.h **** {
 622:Generated_Source\PSoC6\pdl\drivers/peripheral/gpio/cy_gpio.h ****     uint32_t returnValue;
 623:Generated_Source\PSoC6\pdl\drivers/peripheral/gpio/cy_gpio.h ****     uint32_t portNum;
 624:Generated_Source\PSoC6\pdl\drivers/peripheral/gpio/cy_gpio.h ****     HSIOM_PRT_Type* portAddrHSIOM;
 625:Generated_Source\PSoC6\pdl\drivers/peripheral/gpio/cy_gpio.h ****     
 626:Generated_Source\PSoC6\pdl\drivers/peripheral/gpio/cy_gpio.h ****     CY_ASSERT_L2(CY_GPIO_IS_PIN_VALID(pinNum));
 627:Generated_Source\PSoC6\pdl\drivers/peripheral/gpio/cy_gpio.h **** 
 628:Generated_Source\PSoC6\pdl\drivers/peripheral/gpio/cy_gpio.h ****     portNum = ((uint32_t)(base) - GPIO_BASE) / GPIO_PRT_SECTION_SIZE;
 629:Generated_Source\PSoC6\pdl\drivers/peripheral/gpio/cy_gpio.h ****     portAddrHSIOM = (HSIOM_PRT_Type*)(HSIOM_BASE + (HSIOM_PRT_SECTION_SIZE * portNum));
 630:Generated_Source\PSoC6\pdl\drivers/peripheral/gpio/cy_gpio.h **** 
 631:Generated_Source\PSoC6\pdl\drivers/peripheral/gpio/cy_gpio.h ****     if(pinNum < CY_GPIO_PRT_HALF)
 632:Generated_Source\PSoC6\pdl\drivers/peripheral/gpio/cy_gpio.h ****     {
 633:Generated_Source\PSoC6\pdl\drivers/peripheral/gpio/cy_gpio.h ****         returnValue = (portAddrHSIOM->PORT_SEL0 >> (pinNum << CY_GPIO_HSIOM_OFFSET)) & CY_GPIO_HSIO
 634:Generated_Source\PSoC6\pdl\drivers/peripheral/gpio/cy_gpio.h ****     }
 635:Generated_Source\PSoC6\pdl\drivers/peripheral/gpio/cy_gpio.h ****     else
 636:Generated_Source\PSoC6\pdl\drivers/peripheral/gpio/cy_gpio.h ****     {
 637:Generated_Source\PSoC6\pdl\drivers/peripheral/gpio/cy_gpio.h ****         pinNum -= CY_GPIO_PRT_HALF;
 638:Generated_Source\PSoC6\pdl\drivers/peripheral/gpio/cy_gpio.h ****         returnValue = (portAddrHSIOM->PORT_SEL1 >> (pinNum << CY_GPIO_HSIOM_OFFSET)) & CY_GPIO_HSIO
 639:Generated_Source\PSoC6\pdl\drivers/peripheral/gpio/cy_gpio.h ****     }
 640:Generated_Source\PSoC6\pdl\drivers/peripheral/gpio/cy_gpio.h **** 
 641:Generated_Source\PSoC6\pdl\drivers/peripheral/gpio/cy_gpio.h ****     return (en_hsiom_sel_t)returnValue;
 642:Generated_Source\PSoC6\pdl\drivers/peripheral/gpio/cy_gpio.h **** }
 643:Generated_Source\PSoC6\pdl\drivers/peripheral/gpio/cy_gpio.h **** 
 644:Generated_Source\PSoC6\pdl\drivers/peripheral/gpio/cy_gpio.h **** 
 645:Generated_Source\PSoC6\pdl\drivers/peripheral/gpio/cy_gpio.h **** /*******************************************************************************
 646:Generated_Source\PSoC6\pdl\drivers/peripheral/gpio/cy_gpio.h **** * Function Name: Cy_GPIO_PortToAddr
 647:Generated_Source\PSoC6\pdl\drivers/peripheral/gpio/cy_gpio.h **** ****************************************************************************//**
 648:Generated_Source\PSoC6\pdl\drivers/peripheral/gpio/cy_gpio.h **** *
 649:Generated_Source\PSoC6\pdl\drivers/peripheral/gpio/cy_gpio.h **** * \brief Retrieves the port address based on the given port number.
 650:Generated_Source\PSoC6\pdl\drivers/peripheral/gpio/cy_gpio.h **** *
 651:Generated_Source\PSoC6\pdl\drivers/peripheral/gpio/cy_gpio.h **** * This is a helper function to calculate the port base address when given a port
 652:Generated_Source\PSoC6\pdl\drivers/peripheral/gpio/cy_gpio.h **** * number. It is to be used when pin access needs to be calculated at runtime.
 653:Generated_Source\PSoC6\pdl\drivers/peripheral/gpio/cy_gpio.h **** *
 654:Generated_Source\PSoC6\pdl\drivers/peripheral/gpio/cy_gpio.h **** * \param portNum
 655:Generated_Source\PSoC6\pdl\drivers/peripheral/gpio/cy_gpio.h **** * Port number
 656:Generated_Source\PSoC6\pdl\drivers/peripheral/gpio/cy_gpio.h **** *
ARM GAS  C:\Users\Brian\AppData\Local\Temp\ccBwD5Lv.s 			page 35


 657:Generated_Source\PSoC6\pdl\drivers/peripheral/gpio/cy_gpio.h **** * \return
 658:Generated_Source\PSoC6\pdl\drivers/peripheral/gpio/cy_gpio.h **** * Base address of the port register structure
 659:Generated_Source\PSoC6\pdl\drivers/peripheral/gpio/cy_gpio.h **** *
 660:Generated_Source\PSoC6\pdl\drivers/peripheral/gpio/cy_gpio.h **** * \funcusage
 661:Generated_Source\PSoC6\pdl\drivers/peripheral/gpio/cy_gpio.h **** * \snippet gpio/gpio_v1_10_sut_01.cydsn/main_cm4.c snippet_Cy_GPIO_PortToAddr
 662:Generated_Source\PSoC6\pdl\drivers/peripheral/gpio/cy_gpio.h **** *
 663:Generated_Source\PSoC6\pdl\drivers/peripheral/gpio/cy_gpio.h **** *******************************************************************************/
 664:Generated_Source\PSoC6\pdl\drivers/peripheral/gpio/cy_gpio.h **** __STATIC_INLINE GPIO_PRT_Type* Cy_GPIO_PortToAddr(uint32_t portNum)
 665:Generated_Source\PSoC6\pdl\drivers/peripheral/gpio/cy_gpio.h **** {
 666:Generated_Source\PSoC6\pdl\drivers/peripheral/gpio/cy_gpio.h ****     GPIO_PRT_Type* base;
 667:Generated_Source\PSoC6\pdl\drivers/peripheral/gpio/cy_gpio.h ****     
 668:Generated_Source\PSoC6\pdl\drivers/peripheral/gpio/cy_gpio.h ****     if(portNum < (uint32_t)IOSS_GPIO_GPIO_PORT_NR)
 669:Generated_Source\PSoC6\pdl\drivers/peripheral/gpio/cy_gpio.h ****     {
 670:Generated_Source\PSoC6\pdl\drivers/peripheral/gpio/cy_gpio.h ****          base = (GPIO_PRT_Type *)(GPIO_BASE + (GPIO_PRT_SECTION_SIZE * portNum));
 671:Generated_Source\PSoC6\pdl\drivers/peripheral/gpio/cy_gpio.h ****     }
 672:Generated_Source\PSoC6\pdl\drivers/peripheral/gpio/cy_gpio.h ****     else
 673:Generated_Source\PSoC6\pdl\drivers/peripheral/gpio/cy_gpio.h ****     {
 674:Generated_Source\PSoC6\pdl\drivers/peripheral/gpio/cy_gpio.h ****         /* Error: Return default base address */
 675:Generated_Source\PSoC6\pdl\drivers/peripheral/gpio/cy_gpio.h ****         base = (GPIO_PRT_Type *)(GPIO_BASE);
 676:Generated_Source\PSoC6\pdl\drivers/peripheral/gpio/cy_gpio.h ****     }
 677:Generated_Source\PSoC6\pdl\drivers/peripheral/gpio/cy_gpio.h **** 
 678:Generated_Source\PSoC6\pdl\drivers/peripheral/gpio/cy_gpio.h ****     return (base);
 679:Generated_Source\PSoC6\pdl\drivers/peripheral/gpio/cy_gpio.h **** }
 680:Generated_Source\PSoC6\pdl\drivers/peripheral/gpio/cy_gpio.h **** 
 681:Generated_Source\PSoC6\pdl\drivers/peripheral/gpio/cy_gpio.h **** /** \} group_gpio_functions_init */
 682:Generated_Source\PSoC6\pdl\drivers/peripheral/gpio/cy_gpio.h **** 
 683:Generated_Source\PSoC6\pdl\drivers/peripheral/gpio/cy_gpio.h **** /**
 684:Generated_Source\PSoC6\pdl\drivers/peripheral/gpio/cy_gpio.h **** * \addtogroup group_gpio_functions_gpio
 685:Generated_Source\PSoC6\pdl\drivers/peripheral/gpio/cy_gpio.h **** * \{
 686:Generated_Source\PSoC6\pdl\drivers/peripheral/gpio/cy_gpio.h **** */
 687:Generated_Source\PSoC6\pdl\drivers/peripheral/gpio/cy_gpio.h **** 
 688:Generated_Source\PSoC6\pdl\drivers/peripheral/gpio/cy_gpio.h **** /*******************************************************************************
 689:Generated_Source\PSoC6\pdl\drivers/peripheral/gpio/cy_gpio.h **** * Function Name: Cy_GPIO_Read
 690:Generated_Source\PSoC6\pdl\drivers/peripheral/gpio/cy_gpio.h **** ****************************************************************************//**
 691:Generated_Source\PSoC6\pdl\drivers/peripheral/gpio/cy_gpio.h **** *
 692:Generated_Source\PSoC6\pdl\drivers/peripheral/gpio/cy_gpio.h **** * \brief Reads the current logic level on the input buffer of the pin.
 693:Generated_Source\PSoC6\pdl\drivers/peripheral/gpio/cy_gpio.h **** *
 694:Generated_Source\PSoC6\pdl\drivers/peripheral/gpio/cy_gpio.h **** * \param base
 695:Generated_Source\PSoC6\pdl\drivers/peripheral/gpio/cy_gpio.h **** * Pointer to the pin's port register base address
 696:Generated_Source\PSoC6\pdl\drivers/peripheral/gpio/cy_gpio.h **** *
 697:Generated_Source\PSoC6\pdl\drivers/peripheral/gpio/cy_gpio.h **** * \param pinNum
 698:Generated_Source\PSoC6\pdl\drivers/peripheral/gpio/cy_gpio.h **** * Position of the pin bit-field within the port register.
 699:Generated_Source\PSoC6\pdl\drivers/peripheral/gpio/cy_gpio.h **** * Bit position 8 is the routed pin through the port glitch filter.
 700:Generated_Source\PSoC6\pdl\drivers/peripheral/gpio/cy_gpio.h **** *
 701:Generated_Source\PSoC6\pdl\drivers/peripheral/gpio/cy_gpio.h **** * \return
 702:Generated_Source\PSoC6\pdl\drivers/peripheral/gpio/cy_gpio.h **** * Logic level present on the pin
 703:Generated_Source\PSoC6\pdl\drivers/peripheral/gpio/cy_gpio.h **** *
 704:Generated_Source\PSoC6\pdl\drivers/peripheral/gpio/cy_gpio.h **** * \funcusage
 705:Generated_Source\PSoC6\pdl\drivers/peripheral/gpio/cy_gpio.h **** * \snippet gpio/gpio_v1_10_sut_01.cydsn/main_cm4.c snippet_Cy_GPIO_Read
 706:Generated_Source\PSoC6\pdl\drivers/peripheral/gpio/cy_gpio.h **** *
 707:Generated_Source\PSoC6\pdl\drivers/peripheral/gpio/cy_gpio.h **** *******************************************************************************/
 708:Generated_Source\PSoC6\pdl\drivers/peripheral/gpio/cy_gpio.h **** __STATIC_INLINE uint32_t Cy_GPIO_Read(GPIO_PRT_Type* base, uint32_t pinNum)
 709:Generated_Source\PSoC6\pdl\drivers/peripheral/gpio/cy_gpio.h **** {
 710:Generated_Source\PSoC6\pdl\drivers/peripheral/gpio/cy_gpio.h ****     CY_ASSERT_L2(CY_GPIO_IS_FILTER_PIN_VALID(pinNum));
 711:Generated_Source\PSoC6\pdl\drivers/peripheral/gpio/cy_gpio.h ****     
 712:Generated_Source\PSoC6\pdl\drivers/peripheral/gpio/cy_gpio.h ****     return (base->IN >> (pinNum)) & CY_GPIO_IN_MASK;
 713:Generated_Source\PSoC6\pdl\drivers/peripheral/gpio/cy_gpio.h **** }
ARM GAS  C:\Users\Brian\AppData\Local\Temp\ccBwD5Lv.s 			page 36


 714:Generated_Source\PSoC6\pdl\drivers/peripheral/gpio/cy_gpio.h **** 
 715:Generated_Source\PSoC6\pdl\drivers/peripheral/gpio/cy_gpio.h **** 
 716:Generated_Source\PSoC6\pdl\drivers/peripheral/gpio/cy_gpio.h **** /*******************************************************************************
 717:Generated_Source\PSoC6\pdl\drivers/peripheral/gpio/cy_gpio.h **** * Function Name: Cy_GPIO_Write
 718:Generated_Source\PSoC6\pdl\drivers/peripheral/gpio/cy_gpio.h **** ****************************************************************************//**
 719:Generated_Source\PSoC6\pdl\drivers/peripheral/gpio/cy_gpio.h **** *
 720:Generated_Source\PSoC6\pdl\drivers/peripheral/gpio/cy_gpio.h **** * \brief Write a logic 0 or logic 1 state to the output driver.
 721:Generated_Source\PSoC6\pdl\drivers/peripheral/gpio/cy_gpio.h **** *
 722:Generated_Source\PSoC6\pdl\drivers/peripheral/gpio/cy_gpio.h **** * This function should be used only for software driven pins. It does not have
 723:Generated_Source\PSoC6\pdl\drivers/peripheral/gpio/cy_gpio.h **** * any effect on peripheral driven pins.
 724:Generated_Source\PSoC6\pdl\drivers/peripheral/gpio/cy_gpio.h **** *
 725:Generated_Source\PSoC6\pdl\drivers/peripheral/gpio/cy_gpio.h **** * \param base
 726:Generated_Source\PSoC6\pdl\drivers/peripheral/gpio/cy_gpio.h **** * Pointer to the pin's port register base address
 727:Generated_Source\PSoC6\pdl\drivers/peripheral/gpio/cy_gpio.h **** *
 728:Generated_Source\PSoC6\pdl\drivers/peripheral/gpio/cy_gpio.h **** * \param pinNum
 729:Generated_Source\PSoC6\pdl\drivers/peripheral/gpio/cy_gpio.h **** * Position of the pin bit-field within the port register
 730:Generated_Source\PSoC6\pdl\drivers/peripheral/gpio/cy_gpio.h **** *
 731:Generated_Source\PSoC6\pdl\drivers/peripheral/gpio/cy_gpio.h **** * \param value
 732:Generated_Source\PSoC6\pdl\drivers/peripheral/gpio/cy_gpio.h **** * Logic level to drive out on the pin
 733:Generated_Source\PSoC6\pdl\drivers/peripheral/gpio/cy_gpio.h **** *
 734:Generated_Source\PSoC6\pdl\drivers/peripheral/gpio/cy_gpio.h **** * \return
 735:Generated_Source\PSoC6\pdl\drivers/peripheral/gpio/cy_gpio.h **** * void
 736:Generated_Source\PSoC6\pdl\drivers/peripheral/gpio/cy_gpio.h **** *
 737:Generated_Source\PSoC6\pdl\drivers/peripheral/gpio/cy_gpio.h **** * \funcusage
 738:Generated_Source\PSoC6\pdl\drivers/peripheral/gpio/cy_gpio.h **** * \snippet gpio/gpio_v1_10_sut_01.cydsn/main_cm4.c snippet_Cy_GPIO_Write
 739:Generated_Source\PSoC6\pdl\drivers/peripheral/gpio/cy_gpio.h **** *
 740:Generated_Source\PSoC6\pdl\drivers/peripheral/gpio/cy_gpio.h **** *******************************************************************************/
 741:Generated_Source\PSoC6\pdl\drivers/peripheral/gpio/cy_gpio.h **** __STATIC_INLINE void Cy_GPIO_Write(GPIO_PRT_Type* base, uint32_t pinNum, uint32_t value)
 742:Generated_Source\PSoC6\pdl\drivers/peripheral/gpio/cy_gpio.h **** {
 743:Generated_Source\PSoC6\pdl\drivers/peripheral/gpio/cy_gpio.h ****     CY_ASSERT_L2(CY_GPIO_IS_PIN_VALID(pinNum));
 744:Generated_Source\PSoC6\pdl\drivers/peripheral/gpio/cy_gpio.h ****     CY_ASSERT_L2(CY_GPIO_IS_VALUE_VALID(value));
 745:Generated_Source\PSoC6\pdl\drivers/peripheral/gpio/cy_gpio.h **** 
 746:Generated_Source\PSoC6\pdl\drivers/peripheral/gpio/cy_gpio.h ****     /* Thread-safe: Directly access the pin registers instead of base->OUT */
 747:Generated_Source\PSoC6\pdl\drivers/peripheral/gpio/cy_gpio.h ****     if(0UL == value)
 748:Generated_Source\PSoC6\pdl\drivers/peripheral/gpio/cy_gpio.h ****     {
 749:Generated_Source\PSoC6\pdl\drivers/peripheral/gpio/cy_gpio.h ****         base->OUT_CLR = CY_GPIO_OUT_MASK << pinNum;
 834              		.loc 3 749 0
 835 0024 2022     		movs	r2, #32
 836 0026 344B     		ldr	r3, .L43+12
 837 0028 5A60     		str	r2, [r3, #4]
 838              	.LVL81:
 839              	.LBE28:
 840              	.LBE27:
 120:bluetooth.c   ****             break;
 841              		.loc 1 120 0
 842 002a 0021     		movs	r1, #0
 843              	.LVL82:
 844 002c 0020     		movs	r0, #0
 845              	.LVL83:
 846 002e FFF7FEFF 		bl	Cy_BLE_GAPP_StartAdvertisement
 847              	.LVL84:
 121:bluetooth.c   ****             
 848              		.loc 1 121 0
 849 0032 59E0     		b	.L32
 850              	.LVL85:
 851              	.L36:
 852              	.LBB29:
ARM GAS  C:\Users\Brian\AppData\Local\Temp\ccBwD5Lv.s 			page 37


 853              	.LBB30:
 750:Generated_Source\PSoC6\pdl\drivers/peripheral/gpio/cy_gpio.h ****     }
 751:Generated_Source\PSoC6\pdl\drivers/peripheral/gpio/cy_gpio.h ****     else
 752:Generated_Source\PSoC6\pdl\drivers/peripheral/gpio/cy_gpio.h ****     {
 753:Generated_Source\PSoC6\pdl\drivers/peripheral/gpio/cy_gpio.h ****         base->OUT_SET = CY_GPIO_OUT_MASK << pinNum;
 854              		.loc 3 753 0
 855 0034 2022     		movs	r2, #32
 856 0036 304B     		ldr	r3, .L43+12
 857 0038 9A60     		str	r2, [r3, #8]
 858 003a 55E0     		b	.L32
 859              	.LVL86:
 860              	.L37:
 861              	.LBE30:
 862              	.LBE29:
 130:bluetooth.c   ****             {
 863              		.loc 1 130 0
 864 003c 0B89     		ldrh	r3, [r1, #8]
 865 003e 3F2B     		cmp	r3, #63
 866 0040 0AD1     		bne	.L38
 133:bluetooth.c   ****                 {
 867              		.loc 1 133 0
 868 0042 0B68     		ldr	r3, [r1]
 869 0044 1878     		ldrb	r0, [r3]
 870              	.LVL87:
 871 0046 0128     		cmp	r0, #1
 872 0048 06D8     		bhi	.L38
 136:bluetooth.c   ****                     // Write enable to GATT server
 873              		.loc 1 136 0
 874 004a FFF7FEFF 		bl	send_enable
 875              	.LVL88:
 138:bluetooth.c   ****                 }
 876              		.loc 1 138 0
 877 004e 2000     		movs	r0, r4
 878 0050 0C30     		adds	r0, r0, #12
 879 0052 2100     		movs	r1, r4
 880 0054 FFF7FEFF 		bl	Cy_BLE_GATTS_WriteAttributeValuePeer
 881              	.LVL89:
 882              	.L38:
 141:bluetooth.c   ****             {
 883              		.loc 1 141 0
 884 0058 2389     		ldrh	r3, [r4, #8]
 885 005a 372B     		cmp	r3, #55
 886 005c 13D1     		bne	.L39
 144:bluetooth.c   ****                 {
 887              		.loc 1 144 0
 888 005e 2368     		ldr	r3, [r4]
 889 0060 1B78     		ldrb	r3, [r3]
 890 0062 264A     		ldr	r2, .L43+16
 891 0064 1278     		ldrb	r2, [r2]
 892 0066 9342     		cmp	r3, r2
 893 0068 3BD8     		bhi	.L40
 147:bluetooth.c   ****                     // Write new event number to GATT server
 894              		.loc 1 147 0
 895 006a 013B     		subs	r3, r3, #1
 896 006c 9A00     		lsls	r2, r3, #2
 897 006e D318     		adds	r3, r2, r3
 898 0070 9801     		lsls	r0, r3, #6
ARM GAS  C:\Users\Brian\AppData\Local\Temp\ccBwD5Lv.s 			page 38


 899 0072 234B     		ldr	r3, .L43+20
 900 0074 C018     		adds	r0, r0, r3
 901 0076 FFF7FEFF 		bl	write_event_to_server
 902              	.LVL90:
 149:bluetooth.c   ****                 }
 903              		.loc 1 149 0
 904 007a 2000     		movs	r0, r4
 905 007c 0C30     		adds	r0, r0, #12
 906 007e 2100     		movs	r1, r4
 907 0080 FFF7FEFF 		bl	Cy_BLE_GATTS_WriteAttributeValuePeer
 908              	.LVL91:
 909 0084 2DE0     		b	.L40
 910              	.L39:
 152:bluetooth.c   ****             {
 911              		.loc 1 152 0
 912 0086 392B     		cmp	r3, #57
 913 0088 12D1     		bne	.L41
 155:bluetooth.c   ****                 // Send new threshold to flash
 914              		.loc 1 155 0
 915 008a 0221     		movs	r1, #2
 916 008c 2068     		ldr	r0, [r4]
 917 008e FFF7FEFF 		bl	send_threshold
 918              	.LVL92:
 157:bluetooth.c   ****                 upper_thresh[1] = writeReqParam->handleValPair.value.val[1];
 919              		.loc 1 157 0
 920 0092 2368     		ldr	r3, [r4]
 921 0094 1A78     		ldrb	r2, [r3]
 922 0096 1B4B     		ldr	r3, .L43+24
 923 0098 1A70     		strb	r2, [r3]
 158:bluetooth.c   ****                 update_flash_config();
 924              		.loc 1 158 0
 925 009a 2268     		ldr	r2, [r4]
 926 009c 5278     		ldrb	r2, [r2, #1]
 927 009e 5A70     		strb	r2, [r3, #1]
 159:bluetooth.c   ****                 // Write new threshold to GATT server
 928              		.loc 1 159 0
 929 00a0 FFF7FEFF 		bl	update_flash_config
 930              	.LVL93:
 161:bluetooth.c   ****             }
 931              		.loc 1 161 0
 932 00a4 2000     		movs	r0, r4
 933 00a6 0C30     		adds	r0, r0, #12
 934 00a8 2100     		movs	r1, r4
 935 00aa FFF7FEFF 		bl	Cy_BLE_GATTS_WriteAttributeValuePeer
 936              	.LVL94:
 937 00ae 18E0     		b	.L40
 938              	.L41:
 163:bluetooth.c   ****             {
 939              		.loc 1 163 0
 940 00b0 3B2B     		cmp	r3, #59
 941 00b2 12D1     		bne	.L42
 166:bluetooth.c   ****                 // Send new threshold to flash
 942              		.loc 1 166 0
 943 00b4 0321     		movs	r1, #3
 944 00b6 2068     		ldr	r0, [r4]
 945 00b8 FFF7FEFF 		bl	send_threshold
 946              	.LVL95:
ARM GAS  C:\Users\Brian\AppData\Local\Temp\ccBwD5Lv.s 			page 39


 168:bluetooth.c   ****                 lower_thresh[1] = writeReqParam->handleValPair.value.val[1];
 947              		.loc 1 168 0
 948 00bc 2368     		ldr	r3, [r4]
 949 00be 1A78     		ldrb	r2, [r3]
 950 00c0 114B     		ldr	r3, .L43+28
 951 00c2 1A70     		strb	r2, [r3]
 169:bluetooth.c   ****                 update_flash_config();
 952              		.loc 1 169 0
 953 00c4 2268     		ldr	r2, [r4]
 954 00c6 5278     		ldrb	r2, [r2, #1]
 955 00c8 5A70     		strb	r2, [r3, #1]
 170:bluetooth.c   ****                 // Write new threshold to GATT server
 956              		.loc 1 170 0
 957 00ca FFF7FEFF 		bl	update_flash_config
 958              	.LVL96:
 172:bluetooth.c   ****             }
 959              		.loc 1 172 0
 960 00ce 2000     		movs	r0, r4
 961 00d0 0C30     		adds	r0, r0, #12
 962 00d2 2100     		movs	r1, r4
 963 00d4 FFF7FEFF 		bl	Cy_BLE_GATTS_WriteAttributeValuePeer
 964              	.LVL97:
 965 00d8 03E0     		b	.L40
 966              	.L42:
 174:bluetooth.c   ****             {
 967              		.loc 1 174 0
 968 00da 352B     		cmp	r3, #53
 969 00dc 01D1     		bne	.L40
 177:bluetooth.c   ****             }
 970              		.loc 1 177 0
 971 00de FFF7FEFF 		bl	send_trigger
 972              	.LVL98:
 973              	.L40:
 180:bluetooth.c   ****             break;          
 974              		.loc 1 180 0
 975 00e2 E068     		ldr	r0, [r4, #12]
 976 00e4 FFF7FEFF 		bl	Cy_BLE_GATTS_WriteRsp
 977              	.LVL99:
 978              	.L32:
 185:bluetooth.c   **** 
 979              		.loc 1 185 0
 980              		@ sp needed
 981              	.LVL100:
 982 00e8 10BD     		pop	{r4, pc}
 983              	.L44:
 984 00ea C046     		.align	2
 985              	.L43:
 986 00ec 08400000 		.word	16392
 987 00f0 01500000 		.word	20481
 988 00f4 0C500000 		.word	20492
 989 00f8 00053240 		.word	1077019904
 990 00fc 00000000 		.word	num_events
 991 0100 00000000 		.word	events
 992 0104 00000000 		.word	upper_thresh
 993 0108 00000000 		.word	lower_thresh
 994              		.cfi_endproc
 995              	.LFE444:
ARM GAS  C:\Users\Brian\AppData\Local\Temp\ccBwD5Lv.s 			page 40


 996              		.size	GenericEventHandler, .-GenericEventHandler
 997              		.comm	flashPtrs,4,4
 998              		.comm	lower_thresh,2,4
 999              		.comm	upper_thresh,2,4
 1000              		.comm	num_events,1,1
 1001              		.comm	events,3200,4
 1002              		.comm	ipcMsgForCM4,296,4
 1003              		.comm	rdyToRecvMsg,1,1
 1004              		.section	.rodata.str1.4,"aMS",%progbits,1
 1005              		.align	2
 1006              	.LC4:
 1007 0000 53657474 		.ascii	"Settings written to flash!\015\000"
 1007      696E6773 
 1007      20777269 
 1007      7474656E 
 1007      20746F20 
 1008              	.LC8:
 1009 001c 53746172 		.ascii	"Started UART\015\000"
 1009      74656420 
 1009      55415254 
 1009      0D00
 1010 002a 0000     		.space	2
 1011              	.LC11:
 1012 002c 466C6173 		.ascii	"Flash Data Present\015\000"
 1012      68204461 
 1012      74612050 
 1012      72657365 
 1012      6E740D00 
 1013              	.LC17:
 1014 0040 466C6173 		.ascii	"Flash Data NOT Present\015\000"
 1014      68204461 
 1014      7461204E 
 1014      4F542050 
 1014      72657365 
 1015              		.text
 1016              	.Letext0:
 1017              		.file 4 "c:\\program files (x86)\\cypress\\psoc creator\\4.2\\psoc creator\\import\\gnu\\arm\\5.4.
 1018              		.file 5 "c:\\program files (x86)\\cypress\\psoc creator\\4.2\\psoc creator\\import\\gnu\\arm\\5.4.
 1019              		.file 6 "Generated_Source\\PSoC6\\pdl\\devices/psoc6/ip/cyip_gpio.h"
 1020              		.file 7 "Generated_Source\\PSoC6\\pdl\\drivers/peripheral/syslib/cy_syslib.h"
 1021              		.file 8 "Generated_Source\\PSoC6\\pdl\\drivers/peripheral/scb/cy_scb_uart.h"
 1022              		.file 9 "Generated_Source\\PSoC6\\pdl\\drivers/peripheral/flash/cy_flash.h"
 1023              		.file 10 "Generated_Source\\PSoC6\\pdl\\drivers/peripheral/sar/cy_sar.h"
 1024              		.file 11 "c:\\program files (x86)\\cypress\\psoc creator\\4.2\\psoc creator\\import\\gnu\\arm\\5.4
 1025              		.file 12 "c:\\program files (x86)\\cypress\\psoc creator\\4.2\\psoc creator\\import\\gnu\\arm\\5.4
 1026              		.file 13 "c:\\program files (x86)\\cypress\\psoc creator\\4.2\\psoc creator\\import\\gnu\\arm\\5.4
 1027              		.file 14 "c:\\program files (x86)\\cypress\\psoc creator\\4.2\\psoc creator\\import\\gnu\\arm\\5.4
 1028              		.file 15 "Generated_Source\\PSoC6\\pdl\\middleware/ble/cy_ble_stack.h"
 1029              		.file 16 "Generated_Source\\PSoC6\\pdl\\middleware/ble/cy_ble_stack_host_main.h"
 1030              		.file 17 "Generated_Source\\PSoC6\\pdl\\middleware/ble/cy_ble_stack_gatt.h"
 1031              		.file 18 "Generated_Source\\PSoC6\\pdl\\middleware/ble/cy_ble_gap.h"
 1032              		.file 19 "Generated_Source\\PSoC6\\pdl\\middleware/ble/cy_ble_stack_gatt_client.h"
 1033              		.file 20 "Generated_Source\\PSoC6/ADC.h"
 1034              		.file 21 "ipc_shared.h"
 1035              		.file 22 "Generated_Source\\PSoC6/UART.h"
 1036              		.file 23 "ipc_cm0p.h"
 1037              		.file 24 "bluetooth.h"
ARM GAS  C:\Users\Brian\AppData\Local\Temp\ccBwD5Lv.s 			page 41


 1038              		.file 25 "Generated_Source\\PSoC6\\pdl\\middleware/ble/cy_ble_gatt.h"
 1039              		.file 26 "./system_psoc63.h"
 1040              		.file 27 "c:\\program files (x86)\\cypress\\psoc creator\\4.2\\psoc creator\\import\\gnu\\arm\\5.4
 1041              		.file 28 "Generated_Source\\PSoC6\\pdl\\drivers/peripheral/ipc/cy_ipc_pipe.h"
 1042              		.file 29 "Generated_Source\\PSoC6/BLE.h"
 1043              		.file 30 "Generated_Source\\PSoC6\\pdl\\middleware/ble/cy_ble_stack_gatt_server.h"
 1044              		.file 31 "<built-in>"
 1045              		.section	.debug_info,"",%progbits
 1046              	.Ldebug_info0:
 1047 0000 B61B0000 		.4byte	0x1bb6
 1048 0004 0400     		.2byte	0x4
 1049 0006 00000000 		.4byte	.Ldebug_abbrev0
 1050 000a 04       		.byte	0x4
 1051 000b 01       		.uleb128 0x1
 1052 000c 61070000 		.4byte	.LASF416
 1053 0010 0C       		.byte	0xc
 1054 0011 AA040000 		.4byte	.LASF417
 1055 0015 6D0A0000 		.4byte	.LASF418
 1056 0019 30000000 		.4byte	.Ldebug_ranges0+0x30
 1057 001d 00000000 		.4byte	0
 1058 0021 00000000 		.4byte	.Ldebug_line0
 1059 0025 02       		.uleb128 0x2
 1060 0026 02       		.byte	0x2
 1061 0027 05       		.byte	0x5
 1062 0028 38170000 		.4byte	.LASF0
 1063 002c 02       		.uleb128 0x2
 1064 002d 01       		.byte	0x1
 1065 002e 08       		.byte	0x8
 1066 002f 6B1B0000 		.4byte	.LASF1
 1067 0033 02       		.uleb128 0x2
 1068 0034 01       		.byte	0x1
 1069 0035 06       		.byte	0x6
 1070 0036 B31D0000 		.4byte	.LASF2
 1071 003a 03       		.uleb128 0x3
 1072 003b 7C190000 		.4byte	.LASF3
 1073 003f 04       		.byte	0x4
 1074 0040 1D       		.byte	0x1d
 1075 0041 2C000000 		.4byte	0x2c
 1076 0045 03       		.uleb128 0x3
 1077 0046 28090000 		.4byte	.LASF4
 1078 004a 04       		.byte	0x4
 1079 004b 2B       		.byte	0x2b
 1080 004c 50000000 		.4byte	0x50
 1081 0050 02       		.uleb128 0x2
 1082 0051 02       		.byte	0x2
 1083 0052 07       		.byte	0x7
 1084 0053 DC1D0000 		.4byte	.LASF5
 1085 0057 02       		.uleb128 0x2
 1086 0058 04       		.byte	0x4
 1087 0059 05       		.byte	0x5
 1088 005a 91170000 		.4byte	.LASF6
 1089 005e 03       		.uleb128 0x3
 1090 005f A61B0000 		.4byte	.LASF7
 1091 0063 04       		.byte	0x4
 1092 0064 41       		.byte	0x41
 1093 0065 69000000 		.4byte	0x69
 1094 0069 02       		.uleb128 0x2
ARM GAS  C:\Users\Brian\AppData\Local\Temp\ccBwD5Lv.s 			page 42


 1095 006a 04       		.byte	0x4
 1096 006b 07       		.byte	0x7
 1097 006c 6F1A0000 		.4byte	.LASF8
 1098 0070 02       		.uleb128 0x2
 1099 0071 08       		.byte	0x8
 1100 0072 05       		.byte	0x5
 1101 0073 C8100000 		.4byte	.LASF9
 1102 0077 02       		.uleb128 0x2
 1103 0078 08       		.byte	0x8
 1104 0079 07       		.byte	0x7
 1105 007a A0060000 		.4byte	.LASF10
 1106 007e 04       		.uleb128 0x4
 1107 007f 04       		.byte	0x4
 1108 0080 05       		.byte	0x5
 1109 0081 696E7400 		.ascii	"int\000"
 1110 0085 02       		.uleb128 0x2
 1111 0086 04       		.byte	0x4
 1112 0087 07       		.byte	0x7
 1113 0088 3E020000 		.4byte	.LASF11
 1114 008c 03       		.uleb128 0x3
 1115 008d A80F0000 		.4byte	.LASF12
 1116 0091 05       		.byte	0x5
 1117 0092 18       		.byte	0x18
 1118 0093 3A000000 		.4byte	0x3a
 1119 0097 03       		.uleb128 0x3
 1120 0098 44150000 		.4byte	.LASF13
 1121 009c 05       		.byte	0x5
 1122 009d 24       		.byte	0x24
 1123 009e 45000000 		.4byte	0x45
 1124 00a2 03       		.uleb128 0x3
 1125 00a3 6F060000 		.4byte	.LASF14
 1126 00a7 05       		.byte	0x5
 1127 00a8 30       		.byte	0x30
 1128 00a9 5E000000 		.4byte	0x5e
 1129 00ad 02       		.uleb128 0x2
 1130 00ae 04       		.byte	0x4
 1131 00af 07       		.byte	0x7
 1132 00b0 661A0000 		.4byte	.LASF15
 1133 00b4 05       		.uleb128 0x5
 1134 00b5 A2000000 		.4byte	0xa2
 1135 00b9 06       		.uleb128 0x6
 1136 00ba B4000000 		.4byte	0xb4
 1137 00be 07       		.uleb128 0x7
 1138 00bf B9000000 		.4byte	0xb9
 1139 00c3 CE000000 		.4byte	0xce
 1140 00c7 08       		.uleb128 0x8
 1141 00c8 AD000000 		.4byte	0xad
 1142 00cc 0F       		.byte	0xf
 1143 00cd 00       		.byte	0
 1144 00ce 07       		.uleb128 0x7
 1145 00cf 8C000000 		.4byte	0x8c
 1146 00d3 DE000000 		.4byte	0xde
 1147 00d7 08       		.uleb128 0x8
 1148 00d8 AD000000 		.4byte	0xad
 1149 00dc 01       		.byte	0x1
 1150 00dd 00       		.byte	0
 1151 00de 09       		.uleb128 0x9
ARM GAS  C:\Users\Brian\AppData\Local\Temp\ccBwD5Lv.s 			page 43


 1152 00df 80       		.byte	0x80
 1153 00e0 06       		.byte	0x6
 1154 00e1 22       		.byte	0x22
 1155 00e2 B2010000 		.4byte	0x1b2
 1156 00e6 0A       		.uleb128 0xa
 1157 00e7 4F555400 		.ascii	"OUT\000"
 1158 00eb 06       		.byte	0x6
 1159 00ec 23       		.byte	0x23
 1160 00ed B4000000 		.4byte	0xb4
 1161 00f1 00       		.byte	0
 1162 00f2 0B       		.uleb128 0xb
 1163 00f3 46080000 		.4byte	.LASF16
 1164 00f7 06       		.byte	0x6
 1165 00f8 24       		.byte	0x24
 1166 00f9 B4000000 		.4byte	0xb4
 1167 00fd 04       		.byte	0x4
 1168 00fe 0B       		.uleb128 0xb
 1169 00ff D6030000 		.4byte	.LASF17
 1170 0103 06       		.byte	0x6
 1171 0104 25       		.byte	0x25
 1172 0105 B4000000 		.4byte	0xb4
 1173 0109 08       		.byte	0x8
 1174 010a 0B       		.uleb128 0xb
 1175 010b 6C190000 		.4byte	.LASF18
 1176 010f 06       		.byte	0x6
 1177 0110 26       		.byte	0x26
 1178 0111 B4000000 		.4byte	0xb4
 1179 0115 0C       		.byte	0xc
 1180 0116 0A       		.uleb128 0xa
 1181 0117 494E00   		.ascii	"IN\000"
 1182 011a 06       		.byte	0x6
 1183 011b 27       		.byte	0x27
 1184 011c B9000000 		.4byte	0xb9
 1185 0120 10       		.byte	0x10
 1186 0121 0B       		.uleb128 0xb
 1187 0122 40120000 		.4byte	.LASF19
 1188 0126 06       		.byte	0x6
 1189 0127 28       		.byte	0x28
 1190 0128 B4000000 		.4byte	0xb4
 1191 012c 14       		.byte	0x14
 1192 012d 0B       		.uleb128 0xb
 1193 012e 82120000 		.4byte	.LASF20
 1194 0132 06       		.byte	0x6
 1195 0133 29       		.byte	0x29
 1196 0134 B4000000 		.4byte	0xb4
 1197 0138 18       		.byte	0x18
 1198 0139 0B       		.uleb128 0xb
 1199 013a 0A140000 		.4byte	.LASF21
 1200 013e 06       		.byte	0x6
 1201 013f 2A       		.byte	0x2a
 1202 0140 B9000000 		.4byte	0xb9
 1203 0144 1C       		.byte	0x1c
 1204 0145 0B       		.uleb128 0xb
 1205 0146 7A040000 		.4byte	.LASF22
 1206 014a 06       		.byte	0x6
 1207 014b 2B       		.byte	0x2b
 1208 014c B4000000 		.4byte	0xb4
ARM GAS  C:\Users\Brian\AppData\Local\Temp\ccBwD5Lv.s 			page 44


 1209 0150 20       		.byte	0x20
 1210 0151 0B       		.uleb128 0xb
 1211 0152 DA1B0000 		.4byte	.LASF23
 1212 0156 06       		.byte	0x6
 1213 0157 2C       		.byte	0x2c
 1214 0158 B4000000 		.4byte	0xb4
 1215 015c 24       		.byte	0x24
 1216 015d 0A       		.uleb128 0xa
 1217 015e 43464700 		.ascii	"CFG\000"
 1218 0162 06       		.byte	0x6
 1219 0163 2D       		.byte	0x2d
 1220 0164 B4000000 		.4byte	0xb4
 1221 0168 28       		.byte	0x28
 1222 0169 0B       		.uleb128 0xb
 1223 016a 06060000 		.4byte	.LASF24
 1224 016e 06       		.byte	0x6
 1225 016f 2E       		.byte	0x2e
 1226 0170 B4000000 		.4byte	0xb4
 1227 0174 2C       		.byte	0x2c
 1228 0175 0B       		.uleb128 0xb
 1229 0176 510A0000 		.4byte	.LASF25
 1230 017a 06       		.byte	0x6
 1231 017b 2F       		.byte	0x2f
 1232 017c B4000000 		.4byte	0xb4
 1233 0180 30       		.byte	0x30
 1234 0181 0B       		.uleb128 0xb
 1235 0182 C3020000 		.4byte	.LASF26
 1236 0186 06       		.byte	0x6
 1237 0187 30       		.byte	0x30
 1238 0188 B4000000 		.4byte	0xb4
 1239 018c 34       		.byte	0x34
 1240 018d 0B       		.uleb128 0xb
 1241 018e 00000000 		.4byte	.LASF27
 1242 0192 06       		.byte	0x6
 1243 0193 31       		.byte	0x31
 1244 0194 B9000000 		.4byte	0xb9
 1245 0198 38       		.byte	0x38
 1246 0199 0B       		.uleb128 0xb
 1247 019a 70180000 		.4byte	.LASF28
 1248 019e 06       		.byte	0x6
 1249 019f 32       		.byte	0x32
 1250 01a0 B4000000 		.4byte	0xb4
 1251 01a4 3C       		.byte	0x3c
 1252 01a5 0B       		.uleb128 0xb
 1253 01a6 EA160000 		.4byte	.LASF29
 1254 01aa 06       		.byte	0x6
 1255 01ab 33       		.byte	0x33
 1256 01ac B7010000 		.4byte	0x1b7
 1257 01b0 40       		.byte	0x40
 1258 01b1 00       		.byte	0
 1259 01b2 05       		.uleb128 0x5
 1260 01b3 BE000000 		.4byte	0xbe
 1261 01b7 06       		.uleb128 0x6
 1262 01b8 B2010000 		.4byte	0x1b2
 1263 01bc 03       		.uleb128 0x3
 1264 01bd 3A0D0000 		.4byte	.LASF30
 1265 01c1 06       		.byte	0x6
ARM GAS  C:\Users\Brian\AppData\Local\Temp\ccBwD5Lv.s 			page 45


 1266 01c2 34       		.byte	0x34
 1267 01c3 DE000000 		.4byte	0xde
 1268 01c7 0C       		.uleb128 0xc
 1269 01c8 2440     		.2byte	0x4024
 1270 01ca 06       		.byte	0x6
 1271 01cb 39       		.byte	0x39
 1272 01cc 52020000 		.4byte	0x252
 1273 01d0 0A       		.uleb128 0xa
 1274 01d1 50525400 		.ascii	"PRT\000"
 1275 01d5 06       		.byte	0x6
 1276 01d6 3A       		.byte	0x3a
 1277 01d7 52020000 		.4byte	0x252
 1278 01db 00       		.byte	0
 1279 01dc 0D       		.uleb128 0xd
 1280 01dd 14000000 		.4byte	.LASF31
 1281 01e1 06       		.byte	0x6
 1282 01e2 3B       		.byte	0x3b
 1283 01e3 B9000000 		.4byte	0xb9
 1284 01e7 0040     		.2byte	0x4000
 1285 01e9 0D       		.uleb128 0xd
 1286 01ea 20000000 		.4byte	.LASF32
 1287 01ee 06       		.byte	0x6
 1288 01ef 3C       		.byte	0x3c
 1289 01f0 B9000000 		.4byte	0xb9
 1290 01f4 0440     		.2byte	0x4004
 1291 01f6 0D       		.uleb128 0xd
 1292 01f7 11100000 		.4byte	.LASF33
 1293 01fb 06       		.byte	0x6
 1294 01fc 3D       		.byte	0x3d
 1295 01fd B9000000 		.4byte	0xb9
 1296 0201 0840     		.2byte	0x4008
 1297 0203 0D       		.uleb128 0xd
 1298 0204 4C000000 		.4byte	.LASF34
 1299 0208 06       		.byte	0x6
 1300 0209 3E       		.byte	0x3e
 1301 020a B9000000 		.4byte	0xb9
 1302 020e 0C40     		.2byte	0x400c
 1303 0210 0D       		.uleb128 0xd
 1304 0211 09000000 		.4byte	.LASF35
 1305 0215 06       		.byte	0x6
 1306 0216 3F       		.byte	0x3f
 1307 0217 B9000000 		.4byte	0xb9
 1308 021b 1040     		.2byte	0x4010
 1309 021d 0D       		.uleb128 0xd
 1310 021e 120C0000 		.4byte	.LASF36
 1311 0222 06       		.byte	0x6
 1312 0223 40       		.byte	0x40
 1313 0224 B4000000 		.4byte	0xb4
 1314 0228 1440     		.2byte	0x4014
 1315 022a 0D       		.uleb128 0xd
 1316 022b 9D1D0000 		.4byte	.LASF37
 1317 022f 06       		.byte	0x6
 1318 0230 41       		.byte	0x41
 1319 0231 B4000000 		.4byte	0xb4
 1320 0235 1840     		.2byte	0x4018
 1321 0237 0D       		.uleb128 0xd
 1322 0238 88140000 		.4byte	.LASF38
ARM GAS  C:\Users\Brian\AppData\Local\Temp\ccBwD5Lv.s 			page 46


 1323 023c 06       		.byte	0x6
 1324 023d 42       		.byte	0x42
 1325 023e B9000000 		.4byte	0xb9
 1326 0242 1C40     		.2byte	0x401c
 1327 0244 0D       		.uleb128 0xd
 1328 0245 66150000 		.4byte	.LASF39
 1329 0249 06       		.byte	0x6
 1330 024a 43       		.byte	0x43
 1331 024b B4000000 		.4byte	0xb4
 1332 024f 2040     		.2byte	0x4020
 1333 0251 00       		.byte	0
 1334 0252 07       		.uleb128 0x7
 1335 0253 BC010000 		.4byte	0x1bc
 1336 0257 62020000 		.4byte	0x262
 1337 025b 08       		.uleb128 0x8
 1338 025c AD000000 		.4byte	0xad
 1339 0260 7F       		.byte	0x7f
 1340 0261 00       		.byte	0
 1341 0262 03       		.uleb128 0x3
 1342 0263 B11B0000 		.4byte	.LASF40
 1343 0267 06       		.byte	0x6
 1344 0268 44       		.byte	0x44
 1345 0269 C7010000 		.4byte	0x1c7
 1346 026d 02       		.uleb128 0x2
 1347 026e 08       		.byte	0x8
 1348 026f 04       		.byte	0x4
 1349 0270 EF140000 		.4byte	.LASF41
 1350 0274 0E       		.uleb128 0xe
 1351 0275 04       		.byte	0x4
 1352 0276 7A020000 		.4byte	0x27a
 1353 027a 0F       		.uleb128 0xf
 1354 027b 10       		.uleb128 0x10
 1355 027c 5C180000 		.4byte	.LASF42
 1356 0280 07       		.byte	0x7
 1357 0281 C401     		.2byte	0x1c4
 1358 0283 87020000 		.4byte	0x287
 1359 0287 02       		.uleb128 0x2
 1360 0288 01       		.byte	0x1
 1361 0289 08       		.byte	0x8
 1362 028a 4B0E0000 		.4byte	.LASF43
 1363 028e 02       		.uleb128 0x2
 1364 028f 04       		.byte	0x4
 1365 0290 04       		.byte	0x4
 1366 0291 030D0000 		.4byte	.LASF44
 1367 0295 02       		.uleb128 0x2
 1368 0296 08       		.byte	0x8
 1369 0297 04       		.byte	0x4
 1370 0298 AA0B0000 		.4byte	.LASF45
 1371 029c 10       		.uleb128 0x10
 1372 029d 1E060000 		.4byte	.LASF46
 1373 02a1 07       		.byte	0x7
 1374 02a2 8503     		.2byte	0x385
 1375 02a4 8C000000 		.4byte	0x8c
 1376 02a8 10       		.uleb128 0x10
 1377 02a9 F3120000 		.4byte	.LASF47
 1378 02ad 07       		.byte	0x7
 1379 02ae 8703     		.2byte	0x387
ARM GAS  C:\Users\Brian\AppData\Local\Temp\ccBwD5Lv.s 			page 47


 1380 02b0 A2000000 		.4byte	0xa2
 1381 02b4 11       		.uleb128 0x11
 1382 02b5 04       		.byte	0x4
 1383 02b6 02       		.uleb128 0x2
 1384 02b7 01       		.byte	0x1
 1385 02b8 02       		.byte	0x2
 1386 02b9 AD1C0000 		.4byte	.LASF48
 1387 02bd 0E       		.uleb128 0xe
 1388 02be 04       		.byte	0x4
 1389 02bf C3020000 		.4byte	0x2c3
 1390 02c3 12       		.uleb128 0x12
 1391 02c4 CE020000 		.4byte	0x2ce
 1392 02c8 13       		.uleb128 0x13
 1393 02c9 A2000000 		.4byte	0xa2
 1394 02cd 00       		.byte	0
 1395 02ce 0E       		.uleb128 0xe
 1396 02cf 04       		.byte	0x4
 1397 02d0 8C000000 		.4byte	0x8c
 1398 02d4 05       		.uleb128 0x5
 1399 02d5 B6020000 		.4byte	0x2b6
 1400 02d9 10       		.uleb128 0x10
 1401 02da 83100000 		.4byte	.LASF49
 1402 02de 08       		.byte	0x8
 1403 02df AB01     		.2byte	0x1ab
 1404 02e1 BD020000 		.4byte	0x2bd
 1405 02e5 14       		.uleb128 0x14
 1406 02e6 2E080000 		.4byte	.LASF110
 1407 02ea 38       		.byte	0x38
 1408 02eb 08       		.byte	0x8
 1409 02ec 4702     		.2byte	0x247
 1410 02ee A9030000 		.4byte	0x3a9
 1411 02f2 15       		.uleb128 0x15
 1412 02f3 81010000 		.4byte	.LASF50
 1413 02f7 08       		.byte	0x8
 1414 02f8 4A02     		.2byte	0x24a
 1415 02fa B4000000 		.4byte	0xb4
 1416 02fe 00       		.byte	0
 1417 02ff 15       		.uleb128 0x15
 1418 0300 590A0000 		.4byte	.LASF51
 1419 0304 08       		.byte	0x8
 1420 0305 4B02     		.2byte	0x24b
 1421 0307 B4000000 		.4byte	0xb4
 1422 030b 04       		.byte	0x4
 1423 030c 15       		.uleb128 0x15
 1424 030d E5140000 		.4byte	.LASF52
 1425 0311 08       		.byte	0x8
 1426 0312 4D02     		.2byte	0x24d
 1427 0314 B4020000 		.4byte	0x2b4
 1428 0318 08       		.byte	0x8
 1429 0319 15       		.uleb128 0x15
 1430 031a F50C0000 		.4byte	.LASF53
 1431 031e 08       		.byte	0x8
 1432 031f 4E02     		.2byte	0x24e
 1433 0321 A2000000 		.4byte	0xa2
 1434 0325 0C       		.byte	0xc
 1435 0326 15       		.uleb128 0x15
 1436 0327 B7160000 		.4byte	.LASF54
ARM GAS  C:\Users\Brian\AppData\Local\Temp\ccBwD5Lv.s 			page 48


 1437 032b 08       		.byte	0x8
 1438 032c 4F02     		.2byte	0x24f
 1439 032e B4000000 		.4byte	0xb4
 1440 0332 10       		.byte	0x10
 1441 0333 15       		.uleb128 0x15
 1442 0334 B40E0000 		.4byte	.LASF55
 1443 0338 08       		.byte	0x8
 1444 0339 5002     		.2byte	0x250
 1445 033b B4000000 		.4byte	0xb4
 1446 033f 14       		.byte	0x14
 1447 0340 15       		.uleb128 0x15
 1448 0341 ED1F0000 		.4byte	.LASF56
 1449 0345 08       		.byte	0x8
 1450 0346 5202     		.2byte	0x252
 1451 0348 B4020000 		.4byte	0x2b4
 1452 034c 18       		.byte	0x18
 1453 034d 15       		.uleb128 0x15
 1454 034e 62200000 		.4byte	.LASF57
 1455 0352 08       		.byte	0x8
 1456 0353 5302     		.2byte	0x253
 1457 0355 A2000000 		.4byte	0xa2
 1458 0359 1C       		.byte	0x1c
 1459 035a 15       		.uleb128 0x15
 1460 035b 570F0000 		.4byte	.LASF58
 1461 035f 08       		.byte	0x8
 1462 0360 5402     		.2byte	0x254
 1463 0362 B4000000 		.4byte	0xb4
 1464 0366 20       		.byte	0x20
 1465 0367 15       		.uleb128 0x15
 1466 0368 82140000 		.4byte	.LASF59
 1467 036c 08       		.byte	0x8
 1468 036d 5602     		.2byte	0x256
 1469 036f B4020000 		.4byte	0x2b4
 1470 0373 24       		.byte	0x24
 1471 0374 15       		.uleb128 0x15
 1472 0375 E9120000 		.4byte	.LASF60
 1473 0379 08       		.byte	0x8
 1474 037a 5702     		.2byte	0x257
 1475 037c A2000000 		.4byte	0xa2
 1476 0380 28       		.byte	0x28
 1477 0381 15       		.uleb128 0x15
 1478 0382 C6180000 		.4byte	.LASF61
 1479 0386 08       		.byte	0x8
 1480 0387 5802     		.2byte	0x258
 1481 0389 B4000000 		.4byte	0xb4
 1482 038d 2C       		.byte	0x2c
 1483 038e 15       		.uleb128 0x15
 1484 038f CF0D0000 		.4byte	.LASF62
 1485 0393 08       		.byte	0x8
 1486 0394 5D02     		.2byte	0x25d
 1487 0396 D9020000 		.4byte	0x2d9
 1488 039a 30       		.byte	0x30
 1489 039b 15       		.uleb128 0x15
 1490 039c 940F0000 		.4byte	.LASF63
 1491 03a0 08       		.byte	0x8
 1492 03a1 6002     		.2byte	0x260
 1493 03a3 A2000000 		.4byte	0xa2
ARM GAS  C:\Users\Brian\AppData\Local\Temp\ccBwD5Lv.s 			page 49


 1494 03a7 34       		.byte	0x34
 1495 03a8 00       		.byte	0
 1496 03a9 10       		.uleb128 0x10
 1497 03aa FC070000 		.4byte	.LASF64
 1498 03ae 08       		.byte	0x8
 1499 03af 6302     		.2byte	0x263
 1500 03b1 E5020000 		.4byte	0x2e5
 1501 03b5 16       		.uleb128 0x16
 1502 03b6 1F010000 		.4byte	.LASF419
 1503 03ba 04       		.byte	0x4
 1504 03bb 85000000 		.4byte	0x85
 1505 03bf 09       		.byte	0x9
 1506 03c0 7001     		.2byte	0x170
 1507 03c2 30040000 		.4byte	0x430
 1508 03c6 17       		.uleb128 0x17
 1509 03c7 0C0A0000 		.4byte	.LASF65
 1510 03cb 00       		.byte	0
 1511 03cc 18       		.uleb128 0x18
 1512 03cd F4160000 		.4byte	.LASF66
 1513 03d1 00005200 		.4byte	0x520000
 1514 03d5 18       		.uleb128 0x18
 1515 03d6 25070000 		.4byte	.LASF67
 1516 03da 01005200 		.4byte	0x520001
 1517 03de 18       		.uleb128 0x18
 1518 03df FB140000 		.4byte	.LASF68
 1519 03e3 02005200 		.4byte	0x520002
 1520 03e7 18       		.uleb128 0x18
 1521 03e8 F1090000 		.4byte	.LASF69
 1522 03ec 03005200 		.4byte	0x520003
 1523 03f0 18       		.uleb128 0x18
 1524 03f1 BF1D0000 		.4byte	.LASF70
 1525 03f5 05005200 		.4byte	0x520005
 1526 03f9 18       		.uleb128 0x18
 1527 03fa 46190000 		.4byte	.LASF71
 1528 03fe 06005200 		.4byte	0x520006
 1529 0402 18       		.uleb128 0x18
 1530 0403 B4030000 		.4byte	.LASF72
 1531 0407 22005200 		.4byte	0x520022
 1532 040b 18       		.uleb128 0x18
 1533 040c C2140000 		.4byte	.LASF73
 1534 0410 FF005200 		.4byte	0x5200ff
 1535 0414 18       		.uleb128 0x18
 1536 0415 81060000 		.4byte	.LASF74
 1537 0419 00005000 		.4byte	0x500000
 1538 041d 18       		.uleb128 0x18
 1539 041e EF1D0000 		.4byte	.LASF75
 1540 0422 01005000 		.4byte	0x500001
 1541 0426 18       		.uleb128 0x18
 1542 0427 4D150000 		.4byte	.LASF76
 1543 042b 02005000 		.4byte	0x500002
 1544 042f 00       		.byte	0
 1545 0430 10       		.uleb128 0x10
 1546 0431 F71E0000 		.4byte	.LASF77
 1547 0435 09       		.byte	0x9
 1548 0436 7E01     		.2byte	0x17e
 1549 0438 B5030000 		.4byte	0x3b5
 1550 043c 19       		.uleb128 0x19
ARM GAS  C:\Users\Brian\AppData\Local\Temp\ccBwD5Lv.s 			page 50


 1551 043d 01       		.byte	0x1
 1552 043e 2C000000 		.4byte	0x2c
 1553 0442 0A       		.byte	0xa
 1554 0443 0504     		.2byte	0x405
 1555 0445 62040000 		.4byte	0x462
 1556 0449 17       		.uleb128 0x17
 1557 044a 63050000 		.4byte	.LASF78
 1558 044e 00       		.byte	0
 1559 044f 17       		.uleb128 0x17
 1560 0450 3A090000 		.4byte	.LASF79
 1561 0454 01       		.byte	0x1
 1562 0455 17       		.uleb128 0x17
 1563 0456 330E0000 		.4byte	.LASF80
 1564 045a 02       		.byte	0x2
 1565 045b 17       		.uleb128 0x17
 1566 045c 92020000 		.4byte	.LASF81
 1567 0460 03       		.byte	0x3
 1568 0461 00       		.byte	0
 1569 0462 10       		.uleb128 0x10
 1570 0463 481F0000 		.4byte	.LASF82
 1571 0467 0A       		.byte	0xa
 1572 0468 0A04     		.2byte	0x40a
 1573 046a 3C040000 		.4byte	0x43c
 1574 046e 1A       		.uleb128 0x1a
 1575 046f 78       		.byte	0x78
 1576 0470 0A       		.byte	0xa
 1577 0471 F404     		.2byte	0x4f4
 1578 0473 3B050000 		.4byte	0x53b
 1579 0477 15       		.uleb128 0x15
 1580 0478 A3090000 		.4byte	.LASF83
 1581 047c 0A       		.byte	0xa
 1582 047d F604     		.2byte	0x4f6
 1583 047f A2000000 		.4byte	0xa2
 1584 0483 00       		.byte	0
 1585 0484 15       		.uleb128 0x15
 1586 0485 531B0000 		.4byte	.LASF84
 1587 0489 0A       		.byte	0xa
 1588 048a F704     		.2byte	0x4f7
 1589 048c A2000000 		.4byte	0xa2
 1590 0490 04       		.byte	0x4
 1591 0491 15       		.uleb128 0x15
 1592 0492 BC150000 		.4byte	.LASF85
 1593 0496 0A       		.byte	0xa
 1594 0497 F804     		.2byte	0x4f8
 1595 0499 A2000000 		.4byte	0xa2
 1596 049d 08       		.byte	0x8
 1597 049e 15       		.uleb128 0x15
 1598 049f 331A0000 		.4byte	.LASF86
 1599 04a3 0A       		.byte	0xa
 1600 04a4 F904     		.2byte	0x4f9
 1601 04a6 A2000000 		.4byte	0xa2
 1602 04aa 0C       		.byte	0xc
 1603 04ab 15       		.uleb128 0x15
 1604 04ac FE080000 		.4byte	.LASF87
 1605 04b0 0A       		.byte	0xa
 1606 04b1 FA04     		.2byte	0x4fa
 1607 04b3 A2000000 		.4byte	0xa2
ARM GAS  C:\Users\Brian\AppData\Local\Temp\ccBwD5Lv.s 			page 51


 1608 04b7 10       		.byte	0x10
 1609 04b8 15       		.uleb128 0x15
 1610 04b9 A2100000 		.4byte	.LASF88
 1611 04bd 0A       		.byte	0xa
 1612 04be FB04     		.2byte	0x4fb
 1613 04c0 62040000 		.4byte	0x462
 1614 04c4 14       		.byte	0x14
 1615 04c5 15       		.uleb128 0x15
 1616 04c6 AD0E0000 		.4byte	.LASF89
 1617 04ca 0A       		.byte	0xa
 1618 04cb FC04     		.2byte	0x4fc
 1619 04cd A2000000 		.4byte	0xa2
 1620 04d1 18       		.byte	0x18
 1621 04d2 15       		.uleb128 0x15
 1622 04d3 8C120000 		.4byte	.LASF90
 1623 04d7 0A       		.byte	0xa
 1624 04d8 FD04     		.2byte	0x4fd
 1625 04da 3B050000 		.4byte	0x53b
 1626 04de 1C       		.byte	0x1c
 1627 04df 15       		.uleb128 0x15
 1628 04e0 E8000000 		.4byte	.LASF91
 1629 04e4 0A       		.byte	0xa
 1630 04e5 FE04     		.2byte	0x4fe
 1631 04e7 A2000000 		.4byte	0xa2
 1632 04eb 5C       		.byte	0x5c
 1633 04ec 15       		.uleb128 0x15
 1634 04ed DE160000 		.4byte	.LASF92
 1635 04f1 0A       		.byte	0xa
 1636 04f2 FF04     		.2byte	0x4ff
 1637 04f4 A2000000 		.4byte	0xa2
 1638 04f8 60       		.byte	0x60
 1639 04f9 15       		.uleb128 0x15
 1640 04fa 311F0000 		.4byte	.LASF93
 1641 04fe 0A       		.byte	0xa
 1642 04ff 0005     		.2byte	0x500
 1643 0501 A2000000 		.4byte	0xa2
 1644 0505 64       		.byte	0x64
 1645 0506 15       		.uleb128 0x15
 1646 0507 E3150000 		.4byte	.LASF94
 1647 050b 0A       		.byte	0xa
 1648 050c 0105     		.2byte	0x501
 1649 050e A2000000 		.4byte	0xa2
 1650 0512 68       		.byte	0x68
 1651 0513 15       		.uleb128 0x15
 1652 0514 63100000 		.4byte	.LASF95
 1653 0518 0A       		.byte	0xa
 1654 0519 0205     		.2byte	0x502
 1655 051b A2000000 		.4byte	0xa2
 1656 051f 6C       		.byte	0x6c
 1657 0520 15       		.uleb128 0x15
 1658 0521 D41E0000 		.4byte	.LASF96
 1659 0525 0A       		.byte	0xa
 1660 0526 0305     		.2byte	0x503
 1661 0528 B6020000 		.4byte	0x2b6
 1662 052c 70       		.byte	0x70
 1663 052d 15       		.uleb128 0x15
 1664 052e 9D0D0000 		.4byte	.LASF97
ARM GAS  C:\Users\Brian\AppData\Local\Temp\ccBwD5Lv.s 			page 52


 1665 0532 0A       		.byte	0xa
 1666 0533 0405     		.2byte	0x504
 1667 0535 A2000000 		.4byte	0xa2
 1668 0539 74       		.byte	0x74
 1669 053a 00       		.byte	0
 1670 053b 07       		.uleb128 0x7
 1671 053c A2000000 		.4byte	0xa2
 1672 0540 4B050000 		.4byte	0x54b
 1673 0544 08       		.uleb128 0x8
 1674 0545 AD000000 		.4byte	0xad
 1675 0549 0F       		.byte	0xf
 1676 054a 00       		.byte	0
 1677 054b 10       		.uleb128 0x10
 1678 054c 260D0000 		.4byte	.LASF98
 1679 0550 0A       		.byte	0xa
 1680 0551 0505     		.2byte	0x505
 1681 0553 6E040000 		.4byte	0x46e
 1682 0557 03       		.uleb128 0x3
 1683 0558 17040000 		.4byte	.LASF99
 1684 055c 0B       		.byte	0xb
 1685 055d 07       		.byte	0x7
 1686 055e 7E000000 		.4byte	0x7e
 1687 0562 03       		.uleb128 0x3
 1688 0563 F01E0000 		.4byte	.LASF100
 1689 0567 0C       		.byte	0xc
 1690 0568 2C       		.byte	0x2c
 1691 0569 57000000 		.4byte	0x57
 1692 056d 03       		.uleb128 0x3
 1693 056e 09020000 		.4byte	.LASF101
 1694 0572 0C       		.byte	0xc
 1695 0573 72       		.byte	0x72
 1696 0574 57000000 		.4byte	0x57
 1697 0578 10       		.uleb128 0x10
 1698 0579 AC1A0000 		.4byte	.LASF102
 1699 057d 0D       		.byte	0xd
 1700 057e 6501     		.2byte	0x165
 1701 0580 85000000 		.4byte	0x85
 1702 0584 1B       		.uleb128 0x1b
 1703 0585 04       		.byte	0x4
 1704 0586 0C       		.byte	0xc
 1705 0587 A6       		.byte	0xa6
 1706 0588 A3050000 		.4byte	0x5a3
 1707 058c 1C       		.uleb128 0x1c
 1708 058d 9C0F0000 		.4byte	.LASF103
 1709 0591 0C       		.byte	0xc
 1710 0592 A8       		.byte	0xa8
 1711 0593 78050000 		.4byte	0x578
 1712 0597 1C       		.uleb128 0x1c
 1713 0598 69180000 		.4byte	.LASF104
 1714 059c 0C       		.byte	0xc
 1715 059d A9       		.byte	0xa9
 1716 059e A3050000 		.4byte	0x5a3
 1717 05a2 00       		.byte	0
 1718 05a3 07       		.uleb128 0x7
 1719 05a4 2C000000 		.4byte	0x2c
 1720 05a8 B3050000 		.4byte	0x5b3
 1721 05ac 08       		.uleb128 0x8
ARM GAS  C:\Users\Brian\AppData\Local\Temp\ccBwD5Lv.s 			page 53


 1722 05ad AD000000 		.4byte	0xad
 1723 05b1 03       		.byte	0x3
 1724 05b2 00       		.byte	0
 1725 05b3 09       		.uleb128 0x9
 1726 05b4 08       		.byte	0x8
 1727 05b5 0C       		.byte	0xc
 1728 05b6 A3       		.byte	0xa3
 1729 05b7 D4050000 		.4byte	0x5d4
 1730 05bb 0B       		.uleb128 0xb
 1731 05bc 2C050000 		.4byte	.LASF105
 1732 05c0 0C       		.byte	0xc
 1733 05c1 A5       		.byte	0xa5
 1734 05c2 7E000000 		.4byte	0x7e
 1735 05c6 00       		.byte	0
 1736 05c7 0B       		.uleb128 0xb
 1737 05c8 6C0D0000 		.4byte	.LASF106
 1738 05cc 0C       		.byte	0xc
 1739 05cd AA       		.byte	0xaa
 1740 05ce 84050000 		.4byte	0x584
 1741 05d2 04       		.byte	0x4
 1742 05d3 00       		.byte	0
 1743 05d4 03       		.uleb128 0x3
 1744 05d5 77120000 		.4byte	.LASF107
 1745 05d9 0C       		.byte	0xc
 1746 05da AB       		.byte	0xab
 1747 05db B3050000 		.4byte	0x5b3
 1748 05df 03       		.uleb128 0x3
 1749 05e0 280F0000 		.4byte	.LASF108
 1750 05e4 0C       		.byte	0xc
 1751 05e5 AF       		.byte	0xaf
 1752 05e6 57050000 		.4byte	0x557
 1753 05ea 0E       		.uleb128 0xe
 1754 05eb 04       		.byte	0x4
 1755 05ec 87020000 		.4byte	0x287
 1756 05f0 03       		.uleb128 0x3
 1757 05f1 221A0000 		.4byte	.LASF109
 1758 05f5 0E       		.byte	0xe
 1759 05f6 16       		.byte	0x16
 1760 05f7 69000000 		.4byte	0x69
 1761 05fb 1D       		.uleb128 0x1d
 1762 05fc 0D060000 		.4byte	.LASF111
 1763 0600 18       		.byte	0x18
 1764 0601 0E       		.byte	0xe
 1765 0602 2D       		.byte	0x2d
 1766 0603 4E060000 		.4byte	0x64e
 1767 0607 0B       		.uleb128 0xb
 1768 0608 23200000 		.4byte	.LASF112
 1769 060c 0E       		.byte	0xe
 1770 060d 2F       		.byte	0x2f
 1771 060e 4E060000 		.4byte	0x64e
 1772 0612 00       		.byte	0
 1773 0613 0A       		.uleb128 0xa
 1774 0614 5F6B00   		.ascii	"_k\000"
 1775 0617 0E       		.byte	0xe
 1776 0618 30       		.byte	0x30
 1777 0619 7E000000 		.4byte	0x7e
 1778 061d 04       		.byte	0x4
ARM GAS  C:\Users\Brian\AppData\Local\Temp\ccBwD5Lv.s 			page 54


 1779 061e 0B       		.uleb128 0xb
 1780 061f 8B190000 		.4byte	.LASF113
 1781 0623 0E       		.byte	0xe
 1782 0624 30       		.byte	0x30
 1783 0625 7E000000 		.4byte	0x7e
 1784 0629 08       		.byte	0x8
 1785 062a 0B       		.uleb128 0xb
 1786 062b 21180000 		.4byte	.LASF114
 1787 062f 0E       		.byte	0xe
 1788 0630 30       		.byte	0x30
 1789 0631 7E000000 		.4byte	0x7e
 1790 0635 0C       		.byte	0xc
 1791 0636 0B       		.uleb128 0xb
 1792 0637 EA080000 		.4byte	.LASF115
 1793 063b 0E       		.byte	0xe
 1794 063c 30       		.byte	0x30
 1795 063d 7E000000 		.4byte	0x7e
 1796 0641 10       		.byte	0x10
 1797 0642 0A       		.uleb128 0xa
 1798 0643 5F7800   		.ascii	"_x\000"
 1799 0646 0E       		.byte	0xe
 1800 0647 31       		.byte	0x31
 1801 0648 54060000 		.4byte	0x654
 1802 064c 14       		.byte	0x14
 1803 064d 00       		.byte	0
 1804 064e 0E       		.uleb128 0xe
 1805 064f 04       		.byte	0x4
 1806 0650 FB050000 		.4byte	0x5fb
 1807 0654 07       		.uleb128 0x7
 1808 0655 F0050000 		.4byte	0x5f0
 1809 0659 64060000 		.4byte	0x664
 1810 065d 08       		.uleb128 0x8
 1811 065e AD000000 		.4byte	0xad
 1812 0662 00       		.byte	0
 1813 0663 00       		.byte	0
 1814 0664 1D       		.uleb128 0x1d
 1815 0665 401A0000 		.4byte	.LASF116
 1816 0669 24       		.byte	0x24
 1817 066a 0E       		.byte	0xe
 1818 066b 35       		.byte	0x35
 1819 066c DD060000 		.4byte	0x6dd
 1820 0670 0B       		.uleb128 0xb
 1821 0671 7F0B0000 		.4byte	.LASF117
 1822 0675 0E       		.byte	0xe
 1823 0676 37       		.byte	0x37
 1824 0677 7E000000 		.4byte	0x7e
 1825 067b 00       		.byte	0
 1826 067c 0B       		.uleb128 0xb
 1827 067d F3070000 		.4byte	.LASF118
 1828 0681 0E       		.byte	0xe
 1829 0682 38       		.byte	0x38
 1830 0683 7E000000 		.4byte	0x7e
 1831 0687 04       		.byte	0x4
 1832 0688 0B       		.uleb128 0xb
 1833 0689 600F0000 		.4byte	.LASF119
 1834 068d 0E       		.byte	0xe
 1835 068e 39       		.byte	0x39
ARM GAS  C:\Users\Brian\AppData\Local\Temp\ccBwD5Lv.s 			page 55


 1836 068f 7E000000 		.4byte	0x7e
 1837 0693 08       		.byte	0x8
 1838 0694 0B       		.uleb128 0xb
 1839 0695 740D0000 		.4byte	.LASF120
 1840 0699 0E       		.byte	0xe
 1841 069a 3A       		.byte	0x3a
 1842 069b 7E000000 		.4byte	0x7e
 1843 069f 0C       		.byte	0xc
 1844 06a0 0B       		.uleb128 0xb
 1845 06a1 DC140000 		.4byte	.LASF121
 1846 06a5 0E       		.byte	0xe
 1847 06a6 3B       		.byte	0x3b
 1848 06a7 7E000000 		.4byte	0x7e
 1849 06ab 10       		.byte	0x10
 1850 06ac 0B       		.uleb128 0xb
 1851 06ad 7E180000 		.4byte	.LASF122
 1852 06b1 0E       		.byte	0xe
 1853 06b2 3C       		.byte	0x3c
 1854 06b3 7E000000 		.4byte	0x7e
 1855 06b7 14       		.byte	0x14
 1856 06b8 0B       		.uleb128 0xb
 1857 06b9 24060000 		.4byte	.LASF123
 1858 06bd 0E       		.byte	0xe
 1859 06be 3D       		.byte	0x3d
 1860 06bf 7E000000 		.4byte	0x7e
 1861 06c3 18       		.byte	0x18
 1862 06c4 0B       		.uleb128 0xb
 1863 06c5 7C1C0000 		.4byte	.LASF124
 1864 06c9 0E       		.byte	0xe
 1865 06ca 3E       		.byte	0x3e
 1866 06cb 7E000000 		.4byte	0x7e
 1867 06cf 1C       		.byte	0x1c
 1868 06d0 0B       		.uleb128 0xb
 1869 06d1 FA120000 		.4byte	.LASF125
 1870 06d5 0E       		.byte	0xe
 1871 06d6 3F       		.byte	0x3f
 1872 06d7 7E000000 		.4byte	0x7e
 1873 06db 20       		.byte	0x20
 1874 06dc 00       		.byte	0
 1875 06dd 1E       		.uleb128 0x1e
 1876 06de 35010000 		.4byte	.LASF126
 1877 06e2 0801     		.2byte	0x108
 1878 06e4 0E       		.byte	0xe
 1879 06e5 48       		.byte	0x48
 1880 06e6 1D070000 		.4byte	0x71d
 1881 06ea 0B       		.uleb128 0xb
 1882 06eb AB1D0000 		.4byte	.LASF127
 1883 06ef 0E       		.byte	0xe
 1884 06f0 49       		.byte	0x49
 1885 06f1 1D070000 		.4byte	0x71d
 1886 06f5 00       		.byte	0
 1887 06f6 0B       		.uleb128 0xb
 1888 06f7 141B0000 		.4byte	.LASF128
 1889 06fb 0E       		.byte	0xe
 1890 06fc 4A       		.byte	0x4a
 1891 06fd 1D070000 		.4byte	0x71d
 1892 0701 80       		.byte	0x80
ARM GAS  C:\Users\Brian\AppData\Local\Temp\ccBwD5Lv.s 			page 56


 1893 0702 0D       		.uleb128 0xd
 1894 0703 961E0000 		.4byte	.LASF129
 1895 0707 0E       		.byte	0xe
 1896 0708 4C       		.byte	0x4c
 1897 0709 F0050000 		.4byte	0x5f0
 1898 070d 0001     		.2byte	0x100
 1899 070f 0D       		.uleb128 0xd
 1900 0710 CA1F0000 		.4byte	.LASF130
 1901 0714 0E       		.byte	0xe
 1902 0715 4F       		.byte	0x4f
 1903 0716 F0050000 		.4byte	0x5f0
 1904 071a 0401     		.2byte	0x104
 1905 071c 00       		.byte	0
 1906 071d 07       		.uleb128 0x7
 1907 071e B4020000 		.4byte	0x2b4
 1908 0722 2D070000 		.4byte	0x72d
 1909 0726 08       		.uleb128 0x8
 1910 0727 AD000000 		.4byte	0xad
 1911 072b 1F       		.byte	0x1f
 1912 072c 00       		.byte	0
 1913 072d 1E       		.uleb128 0x1e
 1914 072e ED150000 		.4byte	.LASF131
 1915 0732 9001     		.2byte	0x190
 1916 0734 0E       		.byte	0xe
 1917 0735 5B       		.byte	0x5b
 1918 0736 6B070000 		.4byte	0x76b
 1919 073a 0B       		.uleb128 0xb
 1920 073b 23200000 		.4byte	.LASF112
 1921 073f 0E       		.byte	0xe
 1922 0740 5C       		.byte	0x5c
 1923 0741 6B070000 		.4byte	0x76b
 1924 0745 00       		.byte	0
 1925 0746 0B       		.uleb128 0xb
 1926 0747 D00B0000 		.4byte	.LASF132
 1927 074b 0E       		.byte	0xe
 1928 074c 5D       		.byte	0x5d
 1929 074d 7E000000 		.4byte	0x7e
 1930 0751 04       		.byte	0x4
 1931 0752 0B       		.uleb128 0xb
 1932 0753 B8050000 		.4byte	.LASF133
 1933 0757 0E       		.byte	0xe
 1934 0758 5F       		.byte	0x5f
 1935 0759 71070000 		.4byte	0x771
 1936 075d 08       		.byte	0x8
 1937 075e 0B       		.uleb128 0xb
 1938 075f 35010000 		.4byte	.LASF126
 1939 0763 0E       		.byte	0xe
 1940 0764 60       		.byte	0x60
 1941 0765 DD060000 		.4byte	0x6dd
 1942 0769 88       		.byte	0x88
 1943 076a 00       		.byte	0
 1944 076b 0E       		.uleb128 0xe
 1945 076c 04       		.byte	0x4
 1946 076d 2D070000 		.4byte	0x72d
 1947 0771 07       		.uleb128 0x7
 1948 0772 74020000 		.4byte	0x274
 1949 0776 81070000 		.4byte	0x781
ARM GAS  C:\Users\Brian\AppData\Local\Temp\ccBwD5Lv.s 			page 57


 1950 077a 08       		.uleb128 0x8
 1951 077b AD000000 		.4byte	0xad
 1952 077f 1F       		.byte	0x1f
 1953 0780 00       		.byte	0
 1954 0781 1D       		.uleb128 0x1d
 1955 0782 BE1C0000 		.4byte	.LASF134
 1956 0786 08       		.byte	0x8
 1957 0787 0E       		.byte	0xe
 1958 0788 73       		.byte	0x73
 1959 0789 A6070000 		.4byte	0x7a6
 1960 078d 0B       		.uleb128 0xb
 1961 078e F5100000 		.4byte	.LASF135
 1962 0792 0E       		.byte	0xe
 1963 0793 74       		.byte	0x74
 1964 0794 A6070000 		.4byte	0x7a6
 1965 0798 00       		.byte	0
 1966 0799 0B       		.uleb128 0xb
 1967 079a CE1E0000 		.4byte	.LASF136
 1968 079e 0E       		.byte	0xe
 1969 079f 75       		.byte	0x75
 1970 07a0 7E000000 		.4byte	0x7e
 1971 07a4 04       		.byte	0x4
 1972 07a5 00       		.byte	0
 1973 07a6 0E       		.uleb128 0xe
 1974 07a7 04       		.byte	0x4
 1975 07a8 2C000000 		.4byte	0x2c
 1976 07ac 1D       		.uleb128 0x1d
 1977 07ad 9F1E0000 		.4byte	.LASF137
 1978 07b1 68       		.byte	0x68
 1979 07b2 0E       		.byte	0xe
 1980 07b3 B3       		.byte	0xb3
 1981 07b4 D6080000 		.4byte	0x8d6
 1982 07b8 0A       		.uleb128 0xa
 1983 07b9 5F7000   		.ascii	"_p\000"
 1984 07bc 0E       		.byte	0xe
 1985 07bd B4       		.byte	0xb4
 1986 07be A6070000 		.4byte	0x7a6
 1987 07c2 00       		.byte	0
 1988 07c3 0A       		.uleb128 0xa
 1989 07c4 5F7200   		.ascii	"_r\000"
 1990 07c7 0E       		.byte	0xe
 1991 07c8 B5       		.byte	0xb5
 1992 07c9 7E000000 		.4byte	0x7e
 1993 07cd 04       		.byte	0x4
 1994 07ce 0A       		.uleb128 0xa
 1995 07cf 5F7700   		.ascii	"_w\000"
 1996 07d2 0E       		.byte	0xe
 1997 07d3 B6       		.byte	0xb6
 1998 07d4 7E000000 		.4byte	0x7e
 1999 07d8 08       		.byte	0x8
 2000 07d9 0B       		.uleb128 0xb
 2001 07da EF080000 		.4byte	.LASF138
 2002 07de 0E       		.byte	0xe
 2003 07df B7       		.byte	0xb7
 2004 07e0 25000000 		.4byte	0x25
 2005 07e4 0C       		.byte	0xc
 2006 07e5 0B       		.uleb128 0xb
ARM GAS  C:\Users\Brian\AppData\Local\Temp\ccBwD5Lv.s 			page 58


 2007 07e6 DC110000 		.4byte	.LASF139
 2008 07ea 0E       		.byte	0xe
 2009 07eb B8       		.byte	0xb8
 2010 07ec 25000000 		.4byte	0x25
 2011 07f0 0E       		.byte	0xe
 2012 07f1 0A       		.uleb128 0xa
 2013 07f2 5F626600 		.ascii	"_bf\000"
 2014 07f6 0E       		.byte	0xe
 2015 07f7 B9       		.byte	0xb9
 2016 07f8 81070000 		.4byte	0x781
 2017 07fc 10       		.byte	0x10
 2018 07fd 0B       		.uleb128 0xb
 2019 07fe BA020000 		.4byte	.LASF140
 2020 0802 0E       		.byte	0xe
 2021 0803 BA       		.byte	0xba
 2022 0804 7E000000 		.4byte	0x7e
 2023 0808 18       		.byte	0x18
 2024 0809 0B       		.uleb128 0xb
 2025 080a BD050000 		.4byte	.LASF141
 2026 080e 0E       		.byte	0xe
 2027 080f C1       		.byte	0xc1
 2028 0810 B4020000 		.4byte	0x2b4
 2029 0814 1C       		.byte	0x1c
 2030 0815 0B       		.uleb128 0xb
 2031 0816 74040000 		.4byte	.LASF142
 2032 081a 0E       		.byte	0xe
 2033 081b C3       		.byte	0xc3
 2034 081c 2C0A0000 		.4byte	0xa2c
 2035 0820 20       		.byte	0x20
 2036 0821 0B       		.uleb128 0xb
 2037 0822 3F190000 		.4byte	.LASF143
 2038 0826 0E       		.byte	0xe
 2039 0827 C5       		.byte	0xc5
 2040 0828 5B0A0000 		.4byte	0xa5b
 2041 082c 24       		.byte	0x24
 2042 082d 0B       		.uleb128 0xb
 2043 082e 1D200000 		.4byte	.LASF144
 2044 0832 0E       		.byte	0xe
 2045 0833 C8       		.byte	0xc8
 2046 0834 7F0A0000 		.4byte	0xa7f
 2047 0838 28       		.byte	0x28
 2048 0839 0B       		.uleb128 0xb
 2049 083a EA0F0000 		.4byte	.LASF145
 2050 083e 0E       		.byte	0xe
 2051 083f C9       		.byte	0xc9
 2052 0840 990A0000 		.4byte	0xa99
 2053 0844 2C       		.byte	0x2c
 2054 0845 0A       		.uleb128 0xa
 2055 0846 5F756200 		.ascii	"_ub\000"
 2056 084a 0E       		.byte	0xe
 2057 084b CC       		.byte	0xcc
 2058 084c 81070000 		.4byte	0x781
 2059 0850 30       		.byte	0x30
 2060 0851 0A       		.uleb128 0xa
 2061 0852 5F757000 		.ascii	"_up\000"
 2062 0856 0E       		.byte	0xe
 2063 0857 CD       		.byte	0xcd
ARM GAS  C:\Users\Brian\AppData\Local\Temp\ccBwD5Lv.s 			page 59


 2064 0858 A6070000 		.4byte	0x7a6
 2065 085c 38       		.byte	0x38
 2066 085d 0A       		.uleb128 0xa
 2067 085e 5F757200 		.ascii	"_ur\000"
 2068 0862 0E       		.byte	0xe
 2069 0863 CE       		.byte	0xce
 2070 0864 7E000000 		.4byte	0x7e
 2071 0868 3C       		.byte	0x3c
 2072 0869 0B       		.uleb128 0xb
 2073 086a 5C200000 		.4byte	.LASF146
 2074 086e 0E       		.byte	0xe
 2075 086f D1       		.byte	0xd1
 2076 0870 9F0A0000 		.4byte	0xa9f
 2077 0874 40       		.byte	0x40
 2078 0875 0B       		.uleb128 0xb
 2079 0876 0F1F0000 		.4byte	.LASF147
 2080 087a 0E       		.byte	0xe
 2081 087b D2       		.byte	0xd2
 2082 087c AF0A0000 		.4byte	0xaaf
 2083 0880 43       		.byte	0x43
 2084 0881 0A       		.uleb128 0xa
 2085 0882 5F6C6200 		.ascii	"_lb\000"
 2086 0886 0E       		.byte	0xe
 2087 0887 D5       		.byte	0xd5
 2088 0888 81070000 		.4byte	0x781
 2089 088c 44       		.byte	0x44
 2090 088d 0B       		.uleb128 0xb
 2091 088e 2A1A0000 		.4byte	.LASF148
 2092 0892 0E       		.byte	0xe
 2093 0893 D8       		.byte	0xd8
 2094 0894 7E000000 		.4byte	0x7e
 2095 0898 4C       		.byte	0x4c
 2096 0899 0B       		.uleb128 0xb
 2097 089a 95090000 		.4byte	.LASF149
 2098 089e 0E       		.byte	0xe
 2099 089f D9       		.byte	0xd9
 2100 08a0 62050000 		.4byte	0x562
 2101 08a4 50       		.byte	0x50
 2102 08a5 0B       		.uleb128 0xb
 2103 08a6 63180000 		.4byte	.LASF150
 2104 08aa 0E       		.byte	0xe
 2105 08ab DC       		.byte	0xdc
 2106 08ac F4080000 		.4byte	0x8f4
 2107 08b0 54       		.byte	0x54
 2108 08b1 0B       		.uleb128 0xb
 2109 08b2 581A0000 		.4byte	.LASF151
 2110 08b6 0E       		.byte	0xe
 2111 08b7 E0       		.byte	0xe0
 2112 08b8 DF050000 		.4byte	0x5df
 2113 08bc 58       		.byte	0x58
 2114 08bd 0B       		.uleb128 0xb
 2115 08be 15060000 		.4byte	.LASF152
 2116 08c2 0E       		.byte	0xe
 2117 08c3 E2       		.byte	0xe2
 2118 08c4 D4050000 		.4byte	0x5d4
 2119 08c8 5C       		.byte	0x5c
 2120 08c9 0B       		.uleb128 0xb
ARM GAS  C:\Users\Brian\AppData\Local\Temp\ccBwD5Lv.s 			page 60


 2121 08ca 921F0000 		.4byte	.LASF153
 2122 08ce 0E       		.byte	0xe
 2123 08cf E3       		.byte	0xe3
 2124 08d0 7E000000 		.4byte	0x7e
 2125 08d4 64       		.byte	0x64
 2126 08d5 00       		.byte	0
 2127 08d6 1F       		.uleb128 0x1f
 2128 08d7 7E000000 		.4byte	0x7e
 2129 08db F4080000 		.4byte	0x8f4
 2130 08df 13       		.uleb128 0x13
 2131 08e0 F4080000 		.4byte	0x8f4
 2132 08e4 13       		.uleb128 0x13
 2133 08e5 B4020000 		.4byte	0x2b4
 2134 08e9 13       		.uleb128 0x13
 2135 08ea EA050000 		.4byte	0x5ea
 2136 08ee 13       		.uleb128 0x13
 2137 08ef 7E000000 		.4byte	0x7e
 2138 08f3 00       		.byte	0
 2139 08f4 0E       		.uleb128 0xe
 2140 08f5 04       		.byte	0x4
 2141 08f6 FA080000 		.4byte	0x8fa
 2142 08fa 20       		.uleb128 0x20
 2143 08fb D51D0000 		.4byte	.LASF154
 2144 08ff 2804     		.2byte	0x428
 2145 0901 0E       		.byte	0xe
 2146 0902 3802     		.2byte	0x238
 2147 0904 2C0A0000 		.4byte	0xa2c
 2148 0908 15       		.uleb128 0x15
 2149 0909 11020000 		.4byte	.LASF155
 2150 090d 0E       		.byte	0xe
 2151 090e 3A02     		.2byte	0x23a
 2152 0910 7E000000 		.4byte	0x7e
 2153 0914 00       		.byte	0
 2154 0915 15       		.uleb128 0x15
 2155 0916 AC100000 		.4byte	.LASF156
 2156 091a 0E       		.byte	0xe
 2157 091b 3F02     		.2byte	0x23f
 2158 091d 060B0000 		.4byte	0xb06
 2159 0921 04       		.byte	0x4
 2160 0922 15       		.uleb128 0x15
 2161 0923 34050000 		.4byte	.LASF157
 2162 0927 0E       		.byte	0xe
 2163 0928 3F02     		.2byte	0x23f
 2164 092a 060B0000 		.4byte	0xb06
 2165 092e 08       		.byte	0x8
 2166 092f 15       		.uleb128 0x15
 2167 0930 791B0000 		.4byte	.LASF158
 2168 0934 0E       		.byte	0xe
 2169 0935 3F02     		.2byte	0x23f
 2170 0937 060B0000 		.4byte	0xb06
 2171 093b 0C       		.byte	0xc
 2172 093c 15       		.uleb128 0x15
 2173 093d CB0B0000 		.4byte	.LASF159
 2174 0941 0E       		.byte	0xe
 2175 0942 4102     		.2byte	0x241
 2176 0944 7E000000 		.4byte	0x7e
 2177 0948 10       		.byte	0x10
ARM GAS  C:\Users\Brian\AppData\Local\Temp\ccBwD5Lv.s 			page 61


 2178 0949 15       		.uleb128 0x15
 2179 094a 620A0000 		.4byte	.LASF160
 2180 094e 0E       		.byte	0xe
 2181 094f 4202     		.2byte	0x242
 2182 0951 E80C0000 		.4byte	0xce8
 2183 0955 14       		.byte	0x14
 2184 0956 15       		.uleb128 0x15
 2185 0957 9D190000 		.4byte	.LASF161
 2186 095b 0E       		.byte	0xe
 2187 095c 4402     		.2byte	0x244
 2188 095e 7E000000 		.4byte	0x7e
 2189 0962 30       		.byte	0x30
 2190 0963 15       		.uleb128 0x15
 2191 0964 1A0B0000 		.4byte	.LASF162
 2192 0968 0E       		.byte	0xe
 2193 0969 4502     		.2byte	0x245
 2194 096b 500A0000 		.4byte	0xa50
 2195 096f 34       		.byte	0x34
 2196 0970 15       		.uleb128 0x15
 2197 0971 06100000 		.4byte	.LASF163
 2198 0975 0E       		.byte	0xe
 2199 0976 4702     		.2byte	0x247
 2200 0978 7E000000 		.4byte	0x7e
 2201 097c 38       		.byte	0x38
 2202 097d 15       		.uleb128 0x15
 2203 097e 36120000 		.4byte	.LASF164
 2204 0982 0E       		.byte	0xe
 2205 0983 4902     		.2byte	0x249
 2206 0985 030D0000 		.4byte	0xd03
 2207 0989 3C       		.byte	0x3c
 2208 098a 15       		.uleb128 0x15
 2209 098b 48060000 		.4byte	.LASF165
 2210 098f 0E       		.byte	0xe
 2211 0990 4C02     		.2byte	0x24c
 2212 0992 4E060000 		.4byte	0x64e
 2213 0996 40       		.byte	0x40
 2214 0997 15       		.uleb128 0x15
 2215 0998 87080000 		.4byte	.LASF166
 2216 099c 0E       		.byte	0xe
 2217 099d 4D02     		.2byte	0x24d
 2218 099f 7E000000 		.4byte	0x7e
 2219 09a3 44       		.byte	0x44
 2220 09a4 15       		.uleb128 0x15
 2221 09a5 7E0D0000 		.4byte	.LASF167
 2222 09a9 0E       		.byte	0xe
 2223 09aa 4E02     		.2byte	0x24e
 2224 09ac 4E060000 		.4byte	0x64e
 2225 09b0 48       		.byte	0x48
 2226 09b1 15       		.uleb128 0x15
 2227 09b2 FB100000 		.4byte	.LASF168
 2228 09b6 0E       		.byte	0xe
 2229 09b7 4F02     		.2byte	0x24f
 2230 09b9 090D0000 		.4byte	0xd09
 2231 09bd 4C       		.byte	0x4c
 2232 09be 15       		.uleb128 0x15
 2233 09bf 5E1A0000 		.4byte	.LASF169
 2234 09c3 0E       		.byte	0xe
ARM GAS  C:\Users\Brian\AppData\Local\Temp\ccBwD5Lv.s 			page 62


 2235 09c4 5202     		.2byte	0x252
 2236 09c6 7E000000 		.4byte	0x7e
 2237 09ca 50       		.byte	0x50
 2238 09cb 15       		.uleb128 0x15
 2239 09cc 631B0000 		.4byte	.LASF170
 2240 09d0 0E       		.byte	0xe
 2241 09d1 5302     		.2byte	0x253
 2242 09d3 EA050000 		.4byte	0x5ea
 2243 09d7 54       		.byte	0x54
 2244 09d8 15       		.uleb128 0x15
 2245 09d9 86190000 		.4byte	.LASF171
 2246 09dd 0E       		.byte	0xe
 2247 09de 7602     		.2byte	0x276
 2248 09e0 C60C0000 		.4byte	0xcc6
 2249 09e4 58       		.byte	0x58
 2250 09e5 21       		.uleb128 0x21
 2251 09e6 ED150000 		.4byte	.LASF131
 2252 09ea 0E       		.byte	0xe
 2253 09eb 7A02     		.2byte	0x27a
 2254 09ed 6B070000 		.4byte	0x76b
 2255 09f1 4801     		.2byte	0x148
 2256 09f3 21       		.uleb128 0x21
 2257 09f4 85150000 		.4byte	.LASF172
 2258 09f8 0E       		.byte	0xe
 2259 09f9 7B02     		.2byte	0x27b
 2260 09fb 2D070000 		.4byte	0x72d
 2261 09ff 4C01     		.2byte	0x14c
 2262 0a01 21       		.uleb128 0x21
 2263 0a02 A30E0000 		.4byte	.LASF173
 2264 0a06 0E       		.byte	0xe
 2265 0a07 7F02     		.2byte	0x27f
 2266 0a09 1A0D0000 		.4byte	0xd1a
 2267 0a0d DC02     		.2byte	0x2dc
 2268 0a0f 21       		.uleb128 0x21
 2269 0a10 571D0000 		.4byte	.LASF174
 2270 0a14 0E       		.byte	0xe
 2271 0a15 8402     		.2byte	0x284
 2272 0a17 CB0A0000 		.4byte	0xacb
 2273 0a1b E002     		.2byte	0x2e0
 2274 0a1d 21       		.uleb128 0x21
 2275 0a1e 1C180000 		.4byte	.LASF175
 2276 0a22 0E       		.byte	0xe
 2277 0a23 8502     		.2byte	0x285
 2278 0a25 260D0000 		.4byte	0xd26
 2279 0a29 EC02     		.2byte	0x2ec
 2280 0a2b 00       		.byte	0
 2281 0a2c 0E       		.uleb128 0xe
 2282 0a2d 04       		.byte	0x4
 2283 0a2e D6080000 		.4byte	0x8d6
 2284 0a32 1F       		.uleb128 0x1f
 2285 0a33 7E000000 		.4byte	0x7e
 2286 0a37 500A0000 		.4byte	0xa50
 2287 0a3b 13       		.uleb128 0x13
 2288 0a3c F4080000 		.4byte	0x8f4
 2289 0a40 13       		.uleb128 0x13
 2290 0a41 B4020000 		.4byte	0x2b4
 2291 0a45 13       		.uleb128 0x13
ARM GAS  C:\Users\Brian\AppData\Local\Temp\ccBwD5Lv.s 			page 63


 2292 0a46 500A0000 		.4byte	0xa50
 2293 0a4a 13       		.uleb128 0x13
 2294 0a4b 7E000000 		.4byte	0x7e
 2295 0a4f 00       		.byte	0
 2296 0a50 0E       		.uleb128 0xe
 2297 0a51 04       		.byte	0x4
 2298 0a52 560A0000 		.4byte	0xa56
 2299 0a56 06       		.uleb128 0x6
 2300 0a57 87020000 		.4byte	0x287
 2301 0a5b 0E       		.uleb128 0xe
 2302 0a5c 04       		.byte	0x4
 2303 0a5d 320A0000 		.4byte	0xa32
 2304 0a61 1F       		.uleb128 0x1f
 2305 0a62 6D050000 		.4byte	0x56d
 2306 0a66 7F0A0000 		.4byte	0xa7f
 2307 0a6a 13       		.uleb128 0x13
 2308 0a6b F4080000 		.4byte	0x8f4
 2309 0a6f 13       		.uleb128 0x13
 2310 0a70 B4020000 		.4byte	0x2b4
 2311 0a74 13       		.uleb128 0x13
 2312 0a75 6D050000 		.4byte	0x56d
 2313 0a79 13       		.uleb128 0x13
 2314 0a7a 7E000000 		.4byte	0x7e
 2315 0a7e 00       		.byte	0
 2316 0a7f 0E       		.uleb128 0xe
 2317 0a80 04       		.byte	0x4
 2318 0a81 610A0000 		.4byte	0xa61
 2319 0a85 1F       		.uleb128 0x1f
 2320 0a86 7E000000 		.4byte	0x7e
 2321 0a8a 990A0000 		.4byte	0xa99
 2322 0a8e 13       		.uleb128 0x13
 2323 0a8f F4080000 		.4byte	0x8f4
 2324 0a93 13       		.uleb128 0x13
 2325 0a94 B4020000 		.4byte	0x2b4
 2326 0a98 00       		.byte	0
 2327 0a99 0E       		.uleb128 0xe
 2328 0a9a 04       		.byte	0x4
 2329 0a9b 850A0000 		.4byte	0xa85
 2330 0a9f 07       		.uleb128 0x7
 2331 0aa0 2C000000 		.4byte	0x2c
 2332 0aa4 AF0A0000 		.4byte	0xaaf
 2333 0aa8 08       		.uleb128 0x8
 2334 0aa9 AD000000 		.4byte	0xad
 2335 0aad 02       		.byte	0x2
 2336 0aae 00       		.byte	0
 2337 0aaf 07       		.uleb128 0x7
 2338 0ab0 2C000000 		.4byte	0x2c
 2339 0ab4 BF0A0000 		.4byte	0xabf
 2340 0ab8 08       		.uleb128 0x8
 2341 0ab9 AD000000 		.4byte	0xad
 2342 0abd 00       		.byte	0
 2343 0abe 00       		.byte	0
 2344 0abf 10       		.uleb128 0x10
 2345 0ac0 33090000 		.4byte	.LASF176
 2346 0ac4 0E       		.byte	0xe
 2347 0ac5 1D01     		.2byte	0x11d
 2348 0ac7 AC070000 		.4byte	0x7ac
ARM GAS  C:\Users\Brian\AppData\Local\Temp\ccBwD5Lv.s 			page 64


 2349 0acb 14       		.uleb128 0x14
 2350 0acc 121D0000 		.4byte	.LASF177
 2351 0ad0 0C       		.byte	0xc
 2352 0ad1 0E       		.byte	0xe
 2353 0ad2 2101     		.2byte	0x121
 2354 0ad4 000B0000 		.4byte	0xb00
 2355 0ad8 15       		.uleb128 0x15
 2356 0ad9 23200000 		.4byte	.LASF112
 2357 0add 0E       		.byte	0xe
 2358 0ade 2301     		.2byte	0x123
 2359 0ae0 000B0000 		.4byte	0xb00
 2360 0ae4 00       		.byte	0
 2361 0ae5 15       		.uleb128 0x15
 2362 0ae6 A51A0000 		.4byte	.LASF178
 2363 0aea 0E       		.byte	0xe
 2364 0aeb 2401     		.2byte	0x124
 2365 0aed 7E000000 		.4byte	0x7e
 2366 0af1 04       		.byte	0x4
 2367 0af2 15       		.uleb128 0x15
 2368 0af3 A20F0000 		.4byte	.LASF179
 2369 0af7 0E       		.byte	0xe
 2370 0af8 2501     		.2byte	0x125
 2371 0afa 060B0000 		.4byte	0xb06
 2372 0afe 08       		.byte	0x8
 2373 0aff 00       		.byte	0
 2374 0b00 0E       		.uleb128 0xe
 2375 0b01 04       		.byte	0x4
 2376 0b02 CB0A0000 		.4byte	0xacb
 2377 0b06 0E       		.uleb128 0xe
 2378 0b07 04       		.byte	0x4
 2379 0b08 BF0A0000 		.4byte	0xabf
 2380 0b0c 14       		.uleb128 0x14
 2381 0b0d F6080000 		.4byte	.LASF180
 2382 0b11 0E       		.byte	0xe
 2383 0b12 0E       		.byte	0xe
 2384 0b13 3D01     		.2byte	0x13d
 2385 0b15 410B0000 		.4byte	0xb41
 2386 0b19 15       		.uleb128 0x15
 2387 0b1a D0030000 		.4byte	.LASF181
 2388 0b1e 0E       		.byte	0xe
 2389 0b1f 3E01     		.2byte	0x13e
 2390 0b21 410B0000 		.4byte	0xb41
 2391 0b25 00       		.byte	0
 2392 0b26 15       		.uleb128 0x15
 2393 0b27 C50B0000 		.4byte	.LASF182
 2394 0b2b 0E       		.byte	0xe
 2395 0b2c 3F01     		.2byte	0x13f
 2396 0b2e 410B0000 		.4byte	0xb41
 2397 0b32 06       		.byte	0x6
 2398 0b33 15       		.uleb128 0x15
 2399 0b34 1E110000 		.4byte	.LASF183
 2400 0b38 0E       		.byte	0xe
 2401 0b39 4001     		.2byte	0x140
 2402 0b3b 50000000 		.4byte	0x50
 2403 0b3f 0C       		.byte	0xc
 2404 0b40 00       		.byte	0
 2405 0b41 07       		.uleb128 0x7
ARM GAS  C:\Users\Brian\AppData\Local\Temp\ccBwD5Lv.s 			page 65


 2406 0b42 50000000 		.4byte	0x50
 2407 0b46 510B0000 		.4byte	0xb51
 2408 0b4a 08       		.uleb128 0x8
 2409 0b4b AD000000 		.4byte	0xad
 2410 0b4f 02       		.byte	0x2
 2411 0b50 00       		.byte	0
 2412 0b51 1A       		.uleb128 0x1a
 2413 0b52 D0       		.byte	0xd0
 2414 0b53 0E       		.byte	0xe
 2415 0b54 5702     		.2byte	0x257
 2416 0b56 520C0000 		.4byte	0xc52
 2417 0b5a 15       		.uleb128 0x15
 2418 0b5b 151F0000 		.4byte	.LASF184
 2419 0b5f 0E       		.byte	0xe
 2420 0b60 5902     		.2byte	0x259
 2421 0b62 85000000 		.4byte	0x85
 2422 0b66 00       		.byte	0
 2423 0b67 15       		.uleb128 0x15
 2424 0b68 6C1D0000 		.4byte	.LASF185
 2425 0b6c 0E       		.byte	0xe
 2426 0b6d 5A02     		.2byte	0x25a
 2427 0b6f EA050000 		.4byte	0x5ea
 2428 0b73 04       		.byte	0x4
 2429 0b74 15       		.uleb128 0x15
 2430 0b75 9C080000 		.4byte	.LASF186
 2431 0b79 0E       		.byte	0xe
 2432 0b7a 5B02     		.2byte	0x25b
 2433 0b7c 520C0000 		.4byte	0xc52
 2434 0b80 08       		.byte	0x8
 2435 0b81 15       		.uleb128 0x15
 2436 0b82 B2010000 		.4byte	.LASF187
 2437 0b86 0E       		.byte	0xe
 2438 0b87 5C02     		.2byte	0x25c
 2439 0b89 64060000 		.4byte	0x664
 2440 0b8d 24       		.byte	0x24
 2441 0b8e 15       		.uleb128 0x15
 2442 0b8f AD150000 		.4byte	.LASF188
 2443 0b93 0E       		.byte	0xe
 2444 0b94 5D02     		.2byte	0x25d
 2445 0b96 7E000000 		.4byte	0x7e
 2446 0b9a 48       		.byte	0x48
 2447 0b9b 15       		.uleb128 0x15
 2448 0b9c 12200000 		.4byte	.LASF189
 2449 0ba0 0E       		.byte	0xe
 2450 0ba1 5E02     		.2byte	0x25e
 2451 0ba3 77000000 		.4byte	0x77
 2452 0ba7 50       		.byte	0x50
 2453 0ba8 15       		.uleb128 0x15
 2454 0ba9 FC010000 		.4byte	.LASF190
 2455 0bad 0E       		.byte	0xe
 2456 0bae 5F02     		.2byte	0x25f
 2457 0bb0 0C0B0000 		.4byte	0xb0c
 2458 0bb4 58       		.byte	0x58
 2459 0bb5 15       		.uleb128 0x15
 2460 0bb6 45120000 		.4byte	.LASF191
 2461 0bba 0E       		.byte	0xe
 2462 0bbb 6002     		.2byte	0x260
ARM GAS  C:\Users\Brian\AppData\Local\Temp\ccBwD5Lv.s 			page 66


 2463 0bbd D4050000 		.4byte	0x5d4
 2464 0bc1 68       		.byte	0x68
 2465 0bc2 15       		.uleb128 0x15
 2466 0bc3 791D0000 		.4byte	.LASF192
 2467 0bc7 0E       		.byte	0xe
 2468 0bc8 6102     		.2byte	0x261
 2469 0bca D4050000 		.4byte	0x5d4
 2470 0bce 70       		.byte	0x70
 2471 0bcf 15       		.uleb128 0x15
 2472 0bd0 E21E0000 		.4byte	.LASF193
 2473 0bd4 0E       		.byte	0xe
 2474 0bd5 6202     		.2byte	0x262
 2475 0bd7 D4050000 		.4byte	0x5d4
 2476 0bdb 78       		.byte	0x78
 2477 0bdc 15       		.uleb128 0x15
 2478 0bdd 93190000 		.4byte	.LASF194
 2479 0be1 0E       		.byte	0xe
 2480 0be2 6302     		.2byte	0x263
 2481 0be4 620C0000 		.4byte	0xc62
 2482 0be8 80       		.byte	0x80
 2483 0be9 15       		.uleb128 0x15
 2484 0bea 32020000 		.4byte	.LASF195
 2485 0bee 0E       		.byte	0xe
 2486 0bef 6402     		.2byte	0x264
 2487 0bf1 720C0000 		.4byte	0xc72
 2488 0bf5 88       		.byte	0x88
 2489 0bf6 15       		.uleb128 0x15
 2490 0bf7 5F1D0000 		.4byte	.LASF196
 2491 0bfb 0E       		.byte	0xe
 2492 0bfc 6502     		.2byte	0x265
 2493 0bfe 7E000000 		.4byte	0x7e
 2494 0c02 A0       		.byte	0xa0
 2495 0c03 15       		.uleb128 0x15
 2496 0c04 9C040000 		.4byte	.LASF197
 2497 0c08 0E       		.byte	0xe
 2498 0c09 6602     		.2byte	0x266
 2499 0c0b D4050000 		.4byte	0x5d4
 2500 0c0f A4       		.byte	0xa4
 2501 0c10 15       		.uleb128 0x15
 2502 0c11 65040000 		.4byte	.LASF198
 2503 0c15 0E       		.byte	0xe
 2504 0c16 6702     		.2byte	0x267
 2505 0c18 D4050000 		.4byte	0x5d4
 2506 0c1c AC       		.byte	0xac
 2507 0c1d 15       		.uleb128 0x15
 2508 0c1e 5B0C0000 		.4byte	.LASF199
 2509 0c22 0E       		.byte	0xe
 2510 0c23 6802     		.2byte	0x268
 2511 0c25 D4050000 		.4byte	0x5d4
 2512 0c29 B4       		.byte	0xb4
 2513 0c2a 15       		.uleb128 0x15
 2514 0c2b B5110000 		.4byte	.LASF200
 2515 0c2f 0E       		.byte	0xe
 2516 0c30 6902     		.2byte	0x269
 2517 0c32 D4050000 		.4byte	0x5d4
 2518 0c36 BC       		.byte	0xbc
 2519 0c37 15       		.uleb128 0x15
ARM GAS  C:\Users\Brian\AppData\Local\Temp\ccBwD5Lv.s 			page 67


 2520 0c38 F80D0000 		.4byte	.LASF201
 2521 0c3c 0E       		.byte	0xe
 2522 0c3d 6A02     		.2byte	0x26a
 2523 0c3f D4050000 		.4byte	0x5d4
 2524 0c43 C4       		.byte	0xc4
 2525 0c44 15       		.uleb128 0x15
 2526 0c45 3F1F0000 		.4byte	.LASF202
 2527 0c49 0E       		.byte	0xe
 2528 0c4a 6B02     		.2byte	0x26b
 2529 0c4c 7E000000 		.4byte	0x7e
 2530 0c50 CC       		.byte	0xcc
 2531 0c51 00       		.byte	0
 2532 0c52 07       		.uleb128 0x7
 2533 0c53 87020000 		.4byte	0x287
 2534 0c57 620C0000 		.4byte	0xc62
 2535 0c5b 08       		.uleb128 0x8
 2536 0c5c AD000000 		.4byte	0xad
 2537 0c60 19       		.byte	0x19
 2538 0c61 00       		.byte	0
 2539 0c62 07       		.uleb128 0x7
 2540 0c63 87020000 		.4byte	0x287
 2541 0c67 720C0000 		.4byte	0xc72
 2542 0c6b 08       		.uleb128 0x8
 2543 0c6c AD000000 		.4byte	0xad
 2544 0c70 07       		.byte	0x7
 2545 0c71 00       		.byte	0
 2546 0c72 07       		.uleb128 0x7
 2547 0c73 87020000 		.4byte	0x287
 2548 0c77 820C0000 		.4byte	0xc82
 2549 0c7b 08       		.uleb128 0x8
 2550 0c7c AD000000 		.4byte	0xad
 2551 0c80 17       		.byte	0x17
 2552 0c81 00       		.byte	0
 2553 0c82 1A       		.uleb128 0x1a
 2554 0c83 F0       		.byte	0xf0
 2555 0c84 0E       		.byte	0xe
 2556 0c85 7002     		.2byte	0x270
 2557 0c87 A60C0000 		.4byte	0xca6
 2558 0c8b 15       		.uleb128 0x15
 2559 0c8c 1B080000 		.4byte	.LASF203
 2560 0c90 0E       		.byte	0xe
 2561 0c91 7302     		.2byte	0x273
 2562 0c93 A60C0000 		.4byte	0xca6
 2563 0c97 00       		.byte	0
 2564 0c98 15       		.uleb128 0x15
 2565 0c99 53200000 		.4byte	.LASF204
 2566 0c9d 0E       		.byte	0xe
 2567 0c9e 7402     		.2byte	0x274
 2568 0ca0 B60C0000 		.4byte	0xcb6
 2569 0ca4 78       		.byte	0x78
 2570 0ca5 00       		.byte	0
 2571 0ca6 07       		.uleb128 0x7
 2572 0ca7 A6070000 		.4byte	0x7a6
 2573 0cab B60C0000 		.4byte	0xcb6
 2574 0caf 08       		.uleb128 0x8
 2575 0cb0 AD000000 		.4byte	0xad
 2576 0cb4 1D       		.byte	0x1d
ARM GAS  C:\Users\Brian\AppData\Local\Temp\ccBwD5Lv.s 			page 68


 2577 0cb5 00       		.byte	0
 2578 0cb6 07       		.uleb128 0x7
 2579 0cb7 85000000 		.4byte	0x85
 2580 0cbb C60C0000 		.4byte	0xcc6
 2581 0cbf 08       		.uleb128 0x8
 2582 0cc0 AD000000 		.4byte	0xad
 2583 0cc4 1D       		.byte	0x1d
 2584 0cc5 00       		.byte	0
 2585 0cc6 22       		.uleb128 0x22
 2586 0cc7 F0       		.byte	0xf0
 2587 0cc8 0E       		.byte	0xe
 2588 0cc9 5502     		.2byte	0x255
 2589 0ccb E80C0000 		.4byte	0xce8
 2590 0ccf 23       		.uleb128 0x23
 2591 0cd0 D51D0000 		.4byte	.LASF154
 2592 0cd4 0E       		.byte	0xe
 2593 0cd5 6C02     		.2byte	0x26c
 2594 0cd7 510B0000 		.4byte	0xb51
 2595 0cdb 23       		.uleb128 0x23
 2596 0cdc 74190000 		.4byte	.LASF205
 2597 0ce0 0E       		.byte	0xe
 2598 0ce1 7502     		.2byte	0x275
 2599 0ce3 820C0000 		.4byte	0xc82
 2600 0ce7 00       		.byte	0
 2601 0ce8 07       		.uleb128 0x7
 2602 0ce9 87020000 		.4byte	0x287
 2603 0ced F80C0000 		.4byte	0xcf8
 2604 0cf1 08       		.uleb128 0x8
 2605 0cf2 AD000000 		.4byte	0xad
 2606 0cf6 18       		.byte	0x18
 2607 0cf7 00       		.byte	0
 2608 0cf8 12       		.uleb128 0x12
 2609 0cf9 030D0000 		.4byte	0xd03
 2610 0cfd 13       		.uleb128 0x13
 2611 0cfe F4080000 		.4byte	0x8f4
 2612 0d02 00       		.byte	0
 2613 0d03 0E       		.uleb128 0xe
 2614 0d04 04       		.byte	0x4
 2615 0d05 F80C0000 		.4byte	0xcf8
 2616 0d09 0E       		.uleb128 0xe
 2617 0d0a 04       		.byte	0x4
 2618 0d0b 4E060000 		.4byte	0x64e
 2619 0d0f 12       		.uleb128 0x12
 2620 0d10 1A0D0000 		.4byte	0xd1a
 2621 0d14 13       		.uleb128 0x13
 2622 0d15 7E000000 		.4byte	0x7e
 2623 0d19 00       		.byte	0
 2624 0d1a 0E       		.uleb128 0xe
 2625 0d1b 04       		.byte	0x4
 2626 0d1c 200D0000 		.4byte	0xd20
 2627 0d20 0E       		.uleb128 0xe
 2628 0d21 04       		.byte	0x4
 2629 0d22 0F0D0000 		.4byte	0xd0f
 2630 0d26 07       		.uleb128 0x7
 2631 0d27 BF0A0000 		.4byte	0xabf
 2632 0d2b 360D0000 		.4byte	0xd36
 2633 0d2f 08       		.uleb128 0x8
ARM GAS  C:\Users\Brian\AppData\Local\Temp\ccBwD5Lv.s 			page 69


 2634 0d30 AD000000 		.4byte	0xad
 2635 0d34 02       		.byte	0x2
 2636 0d35 00       		.byte	0
 2637 0d36 19       		.uleb128 0x19
 2638 0d37 02       		.byte	0x2
 2639 0d38 50000000 		.4byte	0x50
 2640 0d3c 0F       		.byte	0xf
 2641 0d3d 4201     		.2byte	0x142
 2642 0d3f 6F100000 		.4byte	0x106f
 2643 0d43 17       		.uleb128 0x17
 2644 0d44 51170000 		.4byte	.LASF206
 2645 0d48 00       		.byte	0
 2646 0d49 24       		.uleb128 0x24
 2647 0d4a DA060000 		.4byte	.LASF207
 2648 0d4e 0010     		.2byte	0x1000
 2649 0d50 24       		.uleb128 0x24
 2650 0d51 451A0000 		.4byte	.LASF208
 2651 0d55 0110     		.2byte	0x1001
 2652 0d57 24       		.uleb128 0x24
 2653 0d58 090D0000 		.4byte	.LASF209
 2654 0d5c 0210     		.2byte	0x1002
 2655 0d5e 24       		.uleb128 0x24
 2656 0d5f 830D0000 		.4byte	.LASF210
 2657 0d63 0310     		.2byte	0x1003
 2658 0d65 24       		.uleb128 0x24
 2659 0d66 C9000000 		.4byte	.LASF211
 2660 0d6a 0410     		.2byte	0x1004
 2661 0d6c 24       		.uleb128 0x24
 2662 0d6d E6020000 		.4byte	.LASF212
 2663 0d71 0510     		.2byte	0x1005
 2664 0d73 24       		.uleb128 0x24
 2665 0d74 C9150000 		.4byte	.LASF213
 2666 0d78 0020     		.2byte	0x2000
 2667 0d7a 24       		.uleb128 0x24
 2668 0d7b F6180000 		.4byte	.LASF214
 2669 0d7f 0120     		.2byte	0x2001
 2670 0d81 24       		.uleb128 0x24
 2671 0d82 1B150000 		.4byte	.LASF215
 2672 0d86 0220     		.2byte	0x2002
 2673 0d88 24       		.uleb128 0x24
 2674 0d89 480D0000 		.4byte	.LASF216
 2675 0d8d 0320     		.2byte	0x2003
 2676 0d8f 24       		.uleb128 0x24
 2677 0d90 310F0000 		.4byte	.LASF217
 2678 0d94 0420     		.2byte	0x2004
 2679 0d96 24       		.uleb128 0x24
 2680 0d97 71110000 		.4byte	.LASF218
 2681 0d9b 0520     		.2byte	0x2005
 2682 0d9d 24       		.uleb128 0x24
 2683 0d9e 940C0000 		.4byte	.LASF219
 2684 0da2 0620     		.2byte	0x2006
 2685 0da4 24       		.uleb128 0x24
 2686 0da5 AF190000 		.4byte	.LASF220
 2687 0da9 0720     		.2byte	0x2007
 2688 0dab 24       		.uleb128 0x24
 2689 0dac 361C0000 		.4byte	.LASF221
 2690 0db0 0820     		.2byte	0x2008
ARM GAS  C:\Users\Brian\AppData\Local\Temp\ccBwD5Lv.s 			page 70


 2691 0db2 24       		.uleb128 0x24
 2692 0db3 A8090000 		.4byte	.LASF222
 2693 0db7 0920     		.2byte	0x2009
 2694 0db9 24       		.uleb128 0x24
 2695 0dba 40070000 		.4byte	.LASF223
 2696 0dbe 0A20     		.2byte	0x200a
 2697 0dc0 24       		.uleb128 0x24
 2698 0dc1 4E030000 		.4byte	.LASF224
 2699 0dc5 0B20     		.2byte	0x200b
 2700 0dc7 24       		.uleb128 0x24
 2701 0dc8 8E150000 		.4byte	.LASF225
 2702 0dcc 0C20     		.2byte	0x200c
 2703 0dce 24       		.uleb128 0x24
 2704 0dcf B7060000 		.4byte	.LASF226
 2705 0dd3 0D20     		.2byte	0x200d
 2706 0dd5 24       		.uleb128 0x24
 2707 0dd6 030F0000 		.4byte	.LASF227
 2708 0dda 0E20     		.2byte	0x200e
 2709 0ddc 24       		.uleb128 0x24
 2710 0ddd 4E160000 		.4byte	.LASF228
 2711 0de1 0F20     		.2byte	0x200f
 2712 0de3 24       		.uleb128 0x24
 2713 0de4 41110000 		.4byte	.LASF229
 2714 0de8 1020     		.2byte	0x2010
 2715 0dea 24       		.uleb128 0x24
 2716 0deb BC120000 		.4byte	.LASF230
 2717 0def 1120     		.2byte	0x2011
 2718 0df1 24       		.uleb128 0x24
 2719 0df2 041C0000 		.4byte	.LASF231
 2720 0df6 1220     		.2byte	0x2012
 2721 0df8 24       		.uleb128 0x24
 2722 0df9 E0010000 		.4byte	.LASF232
 2723 0dfd 1320     		.2byte	0x2013
 2724 0dff 24       		.uleb128 0x24
 2725 0e00 3F100000 		.4byte	.LASF233
 2726 0e04 1420     		.2byte	0x2014
 2727 0e06 24       		.uleb128 0x24
 2728 0e07 E6040000 		.4byte	.LASF234
 2729 0e0b 1520     		.2byte	0x2015
 2730 0e0d 24       		.uleb128 0x24
 2731 0e0e F31F0000 		.4byte	.LASF235
 2732 0e12 1620     		.2byte	0x2016
 2733 0e14 24       		.uleb128 0x24
 2734 0e15 8F030000 		.4byte	.LASF236
 2735 0e19 1720     		.2byte	0x2017
 2736 0e1b 24       		.uleb128 0x24
 2737 0e1c EE060000 		.4byte	.LASF237
 2738 0e20 0030     		.2byte	0x3000
 2739 0e22 24       		.uleb128 0x24
 2740 0e23 FB0A0000 		.4byte	.LASF238
 2741 0e27 0130     		.2byte	0x3001
 2742 0e29 24       		.uleb128 0x24
 2743 0e2a 71090000 		.4byte	.LASF239
 2744 0e2e 0230     		.2byte	0x3002
 2745 0e30 24       		.uleb128 0x24
 2746 0e31 52130000 		.4byte	.LASF240
 2747 0e35 0330     		.2byte	0x3003
ARM GAS  C:\Users\Brian\AppData\Local\Temp\ccBwD5Lv.s 			page 71


 2748 0e37 24       		.uleb128 0x24
 2749 0e38 CD080000 		.4byte	.LASF241
 2750 0e3c 0430     		.2byte	0x3004
 2751 0e3e 24       		.uleb128 0x24
 2752 0e3f 031A0000 		.4byte	.LASF242
 2753 0e43 0530     		.2byte	0x3005
 2754 0e45 24       		.uleb128 0x24
 2755 0e46 C1010000 		.4byte	.LASF243
 2756 0e4a 0630     		.2byte	0x3006
 2757 0e4c 24       		.uleb128 0x24
 2758 0e4d 451E0000 		.4byte	.LASF244
 2759 0e51 0730     		.2byte	0x3007
 2760 0e53 24       		.uleb128 0x24
 2761 0e54 EF110000 		.4byte	.LASF245
 2762 0e58 0830     		.2byte	0x3008
 2763 0e5a 24       		.uleb128 0x24
 2764 0e5b 1B0C0000 		.4byte	.LASF246
 2765 0e5f 0930     		.2byte	0x3009
 2766 0e61 24       		.uleb128 0x24
 2767 0e62 E3190000 		.4byte	.LASF247
 2768 0e66 0A30     		.2byte	0x300a
 2769 0e68 24       		.uleb128 0x24
 2770 0e69 5F0E0000 		.4byte	.LASF248
 2771 0e6d 0B30     		.2byte	0x300b
 2772 0e6f 24       		.uleb128 0x24
 2773 0e70 91110000 		.4byte	.LASF249
 2774 0e74 0C30     		.2byte	0x300c
 2775 0e76 24       		.uleb128 0x24
 2776 0e77 BF0F0000 		.4byte	.LASF250
 2777 0e7b 1130     		.2byte	0x3011
 2778 0e7d 24       		.uleb128 0x24
 2779 0e7e 94160000 		.4byte	.LASF251
 2780 0e82 1230     		.2byte	0x3012
 2781 0e84 24       		.uleb128 0x24
 2782 0e85 D31A0000 		.4byte	.LASF252
 2783 0e89 1330     		.2byte	0x3013
 2784 0e8b 24       		.uleb128 0x24
 2785 0e8c 20190000 		.4byte	.LASF253
 2786 0e90 1430     		.2byte	0x3014
 2787 0e92 24       		.uleb128 0x24
 2788 0e93 D6170000 		.4byte	.LASF254
 2789 0e97 1530     		.2byte	0x3015
 2790 0e99 24       		.uleb128 0x24
 2791 0e9a 731E0000 		.4byte	.LASF255
 2792 0e9e 1630     		.2byte	0x3016
 2793 0ea0 24       		.uleb128 0x24
 2794 0ea1 83130000 		.4byte	.LASF256
 2795 0ea5 1730     		.2byte	0x3017
 2796 0ea7 24       		.uleb128 0x24
 2797 0ea8 A90D0000 		.4byte	.LASF257
 2798 0eac 1830     		.2byte	0x3018
 2799 0eae 24       		.uleb128 0x24
 2800 0eaf A5130000 		.4byte	.LASF258
 2801 0eb3 0040     		.2byte	0x4000
 2802 0eb5 24       		.uleb128 0x24
 2803 0eb6 0E1E0000 		.4byte	.LASF259
 2804 0eba 0140     		.2byte	0x4001
ARM GAS  C:\Users\Brian\AppData\Local\Temp\ccBwD5Lv.s 			page 72


 2805 0ebc 24       		.uleb128 0x24
 2806 0ebd 52120000 		.4byte	.LASF260
 2807 0ec1 0240     		.2byte	0x4002
 2808 0ec3 24       		.uleb128 0x24
 2809 0ec4 6B1F0000 		.4byte	.LASF261
 2810 0ec8 0340     		.2byte	0x4003
 2811 0eca 24       		.uleb128 0x24
 2812 0ecb 22100000 		.4byte	.LASF262
 2813 0ecf 0440     		.2byte	0x4004
 2814 0ed1 24       		.uleb128 0x24
 2815 0ed2 D21F0000 		.4byte	.LASF263
 2816 0ed6 0540     		.2byte	0x4005
 2817 0ed8 24       		.uleb128 0x24
 2818 0ed9 58000000 		.4byte	.LASF264
 2819 0edd 0640     		.2byte	0x4006
 2820 0edf 24       		.uleb128 0x24
 2821 0ee0 BE0A0000 		.4byte	.LASF265
 2822 0ee4 0740     		.2byte	0x4007
 2823 0ee6 24       		.uleb128 0x24
 2824 0ee7 64170000 		.4byte	.LASF266
 2825 0eeb 0840     		.2byte	0x4008
 2826 0eed 24       		.uleb128 0x24
 2827 0eee 53090000 		.4byte	.LASF267
 2828 0ef2 0940     		.2byte	0x4009
 2829 0ef4 24       		.uleb128 0x24
 2830 0ef5 85200000 		.4byte	.LASF268
 2831 0ef9 0A40     		.2byte	0x400a
 2832 0efb 24       		.uleb128 0x24
 2833 0efc 830E0000 		.4byte	.LASF269
 2834 0f00 0B40     		.2byte	0x400b
 2835 0f02 24       		.uleb128 0x24
 2836 0f03 97120000 		.4byte	.LASF270
 2837 0f07 0C40     		.2byte	0x400c
 2838 0f09 24       		.uleb128 0x24
 2839 0f0a 6A0F0000 		.4byte	.LASF271
 2840 0f0e 0D40     		.2byte	0x400d
 2841 0f10 24       		.uleb128 0x24
 2842 0f11 16140000 		.4byte	.LASF272
 2843 0f15 0E40     		.2byte	0x400e
 2844 0f17 24       		.uleb128 0x24
 2845 0f18 210A0000 		.4byte	.LASF273
 2846 0f1c 0F40     		.2byte	0x400f
 2847 0f1e 24       		.uleb128 0x24
 2848 0f1f 62080000 		.4byte	.LASF274
 2849 0f23 1040     		.2byte	0x4010
 2850 0f25 24       		.uleb128 0x24
 2851 0f26 5A1C0000 		.4byte	.LASF275
 2852 0f2a 1140     		.2byte	0x4011
 2853 0f2c 24       		.uleb128 0x24
 2854 0f2d 6C0C0000 		.4byte	.LASF276
 2855 0f31 1240     		.2byte	0x4012
 2856 0f33 24       		.uleb128 0x24
 2857 0f34 34180000 		.4byte	.LASF277
 2858 0f38 1340     		.2byte	0x4013
 2859 0f3a 24       		.uleb128 0x24
 2860 0f3b E9130000 		.4byte	.LASF278
 2861 0f3f 1440     		.2byte	0x4014
ARM GAS  C:\Users\Brian\AppData\Local\Temp\ccBwD5Lv.s 			page 73


 2862 0f41 24       		.uleb128 0x24
 2863 0f42 3C050000 		.4byte	.LASF279
 2864 0f46 1540     		.2byte	0x4015
 2865 0f48 24       		.uleb128 0x24
 2866 0f49 9A1F0000 		.4byte	.LASF280
 2867 0f4d 1640     		.2byte	0x4016
 2868 0f4f 24       		.uleb128 0x24
 2869 0f50 5D020000 		.4byte	.LASF281
 2870 0f54 1740     		.2byte	0x4017
 2871 0f56 24       		.uleb128 0x24
 2872 0f57 05110000 		.4byte	.LASF282
 2873 0f5b 1840     		.2byte	0x4018
 2874 0f5d 24       		.uleb128 0x24
 2875 0f5e 0A170000 		.4byte	.LASF283
 2876 0f62 1940     		.2byte	0x4019
 2877 0f64 24       		.uleb128 0x24
 2878 0f65 05130000 		.4byte	.LASF284
 2879 0f69 1A40     		.2byte	0x401a
 2880 0f6b 24       		.uleb128 0x24
 2881 0f6c F5150000 		.4byte	.LASF285
 2882 0f70 0050     		.2byte	0x5000
 2883 0f72 24       		.uleb128 0x24
 2884 0f73 49040000 		.4byte	.LASF286
 2885 0f77 0150     		.2byte	0x5001
 2886 0f79 24       		.uleb128 0x24
 2887 0f7a D21C0000 		.4byte	.LASF287
 2888 0f7e 0250     		.2byte	0x5002
 2889 0f80 24       		.uleb128 0x24
 2890 0f81 381D0000 		.4byte	.LASF288
 2891 0f85 0350     		.2byte	0x5003
 2892 0f87 24       		.uleb128 0x24
 2893 0f88 C5050000 		.4byte	.LASF289
 2894 0f8c 0450     		.2byte	0x5004
 2895 0f8e 24       		.uleb128 0x24
 2896 0f8f 26160000 		.4byte	.LASF290
 2897 0f93 0550     		.2byte	0x5005
 2898 0f95 24       		.uleb128 0x24
 2899 0f96 E10E0000 		.4byte	.LASF291
 2900 0f9a 0650     		.2byte	0x5006
 2901 0f9c 24       		.uleb128 0x24
 2902 0f9d 70030000 		.4byte	.LASF292
 2903 0fa1 0750     		.2byte	0x5007
 2904 0fa3 24       		.uleb128 0x24
 2905 0fa4 BE040000 		.4byte	.LASF293
 2906 0fa8 0850     		.2byte	0x5008
 2907 0faa 24       		.uleb128 0x24
 2908 0fab 2E060000 		.4byte	.LASF294
 2909 0faf 0950     		.2byte	0x5009
 2910 0fb1 24       		.uleb128 0x24
 2911 0fb2 50060000 		.4byte	.LASF295
 2912 0fb6 0A50     		.2byte	0x500a
 2913 0fb8 24       		.uleb128 0x24
 2914 0fb9 29040000 		.4byte	.LASF296
 2915 0fbd 0B50     		.2byte	0x500b
 2916 0fbf 24       		.uleb128 0x24
 2917 0fc0 79160000 		.4byte	.LASF297
 2918 0fc4 0C50     		.2byte	0x500c
ARM GAS  C:\Users\Brian\AppData\Local\Temp\ccBwD5Lv.s 			page 74


 2919 0fc6 24       		.uleb128 0x24
 2920 0fc7 B80C0000 		.4byte	.LASF298
 2921 0fcb 0D50     		.2byte	0x500d
 2922 0fcd 24       		.uleb128 0x24
 2923 0fce 261E0000 		.4byte	.LASF299
 2924 0fd2 0E50     		.2byte	0x500e
 2925 0fd4 24       		.uleb128 0x24
 2926 0fd5 2A0B0000 		.4byte	.LASF300
 2927 0fd9 0F50     		.2byte	0x500f
 2928 0fdb 24       		.uleb128 0x24
 2929 0fdc C6090000 		.4byte	.LASF301
 2930 0fe0 1050     		.2byte	0x5010
 2931 0fe2 24       		.uleb128 0x24
 2932 0fe3 181D0000 		.4byte	.LASF302
 2933 0fe7 1150     		.2byte	0x5011
 2934 0fe9 24       		.uleb128 0x24
 2935 0fea F1000000 		.4byte	.LASF303
 2936 0fee 1250     		.2byte	0x5012
 2937 0ff0 24       		.uleb128 0x24
 2938 0ff1 880B0000 		.4byte	.LASF304
 2939 0ff5 1350     		.2byte	0x5013
 2940 0ff7 24       		.uleb128 0x24
 2941 0ff8 E4050000 		.4byte	.LASF305
 2942 0ffc 1450     		.2byte	0x5014
 2943 0ffe 24       		.uleb128 0x24
 2944 0fff 811B0000 		.4byte	.LASF306
 2945 1003 1550     		.2byte	0x5015
 2946 1005 24       		.uleb128 0x24
 2947 1006 201B0000 		.4byte	.LASF307
 2948 100a 1650     		.2byte	0x5016
 2949 100c 24       		.uleb128 0x24
 2950 100d 02050000 		.4byte	.LASF308
 2951 1011 1750     		.2byte	0x5017
 2952 1013 24       		.uleb128 0x24
 2953 1014 12120000 		.4byte	.LASF309
 2954 1018 1850     		.2byte	0x5018
 2955 101a 24       		.uleb128 0x24
 2956 101b A71E0000 		.4byte	.LASF310
 2957 101f 0060     		.2byte	0x6000
 2958 1021 24       		.uleb128 0x24
 2959 1022 861C0000 		.4byte	.LASF311
 2960 1026 0160     		.2byte	0x6001
 2961 1028 24       		.uleb128 0x24
 2962 1029 F71A0000 		.4byte	.LASF312
 2963 102d 0260     		.2byte	0x6002
 2964 102f 24       		.uleb128 0x24
 2965 1030 CA130000 		.4byte	.LASF313
 2966 1034 0360     		.2byte	0x6003
 2967 1036 24       		.uleb128 0x24
 2968 1037 D6100000 		.4byte	.LASF314
 2969 103b 0460     		.2byte	0x6004
 2970 103d 24       		.uleb128 0x24
 2971 103e 88180000 		.4byte	.LASF315
 2972 1042 0560     		.2byte	0x6005
 2973 1044 24       		.uleb128 0x24
 2974 1045 F00B0000 		.4byte	.LASF316
 2975 1049 0660     		.2byte	0x6006
ARM GAS  C:\Users\Brian\AppData\Local\Temp\ccBwD5Lv.s 			page 75


 2976 104b 24       		.uleb128 0x24
 2977 104c 2C000000 		.4byte	.LASF317
 2978 1050 0760     		.2byte	0x6007
 2979 1052 24       		.uleb128 0x24
 2980 1053 81000000 		.4byte	.LASF318
 2981 1057 0860     		.2byte	0x6008
 2982 1059 24       		.uleb128 0x24
 2983 105a A5000000 		.4byte	.LASF319
 2984 105e 0960     		.2byte	0x6009
 2985 1060 24       		.uleb128 0x24
 2986 1061 1B130000 		.4byte	.LASF320
 2987 1065 0A60     		.2byte	0x600a
 2988 1067 24       		.uleb128 0x24
 2989 1068 E10B0000 		.4byte	.LASF321
 2990 106c FFFF     		.2byte	0xffff
 2991 106e 00       		.byte	0
 2992 106f 0E       		.uleb128 0xe
 2993 1070 04       		.byte	0x4
 2994 1071 75100000 		.4byte	0x1075
 2995 1075 06       		.uleb128 0x6
 2996 1076 8C000000 		.4byte	0x8c
 2997 107a 1A       		.uleb128 0x1a
 2998 107b 02       		.byte	0x2
 2999 107c 10       		.byte	0x10
 3000 107d 5B01     		.2byte	0x15b
 3001 107f 9E100000 		.4byte	0x109e
 3002 1083 15       		.uleb128 0x15
 3003 1084 871D0000 		.4byte	.LASF322
 3004 1088 10       		.byte	0x10
 3005 1089 6501     		.2byte	0x165
 3006 108b 8C000000 		.4byte	0x8c
 3007 108f 00       		.byte	0
 3008 1090 15       		.uleb128 0x15
 3009 1091 9D090000 		.4byte	.LASF323
 3010 1095 10       		.byte	0x10
 3011 1096 6901     		.2byte	0x169
 3012 1098 8C000000 		.4byte	0x8c
 3013 109c 01       		.byte	0x1
 3014 109d 00       		.byte	0
 3015 109e 10       		.uleb128 0x10
 3016 109f C5160000 		.4byte	.LASF324
 3017 10a3 10       		.byte	0x10
 3018 10a4 6B01     		.2byte	0x16b
 3019 10a6 7A100000 		.4byte	0x107a
 3020 10aa 10       		.uleb128 0x10
 3021 10ab DE0A0000 		.4byte	.LASF325
 3022 10af 11       		.byte	0x11
 3023 10b0 7F01     		.2byte	0x17f
 3024 10b2 97000000 		.4byte	0x97
 3025 10b6 1A       		.uleb128 0x1a
 3026 10b7 08       		.byte	0x8
 3027 10b8 11       		.byte	0x11
 3028 10b9 9401     		.2byte	0x194
 3029 10bb E7100000 		.4byte	0x10e7
 3030 10bf 25       		.uleb128 0x25
 3031 10c0 76616C00 		.ascii	"val\000"
 3032 10c4 11       		.byte	0x11
ARM GAS  C:\Users\Brian\AppData\Local\Temp\ccBwD5Lv.s 			page 76


 3033 10c5 9701     		.2byte	0x197
 3034 10c7 CE020000 		.4byte	0x2ce
 3035 10cb 00       		.byte	0
 3036 10cc 25       		.uleb128 0x25
 3037 10cd 6C656E00 		.ascii	"len\000"
 3038 10d1 11       		.byte	0x11
 3039 10d2 9A01     		.2byte	0x19a
 3040 10d4 97000000 		.4byte	0x97
 3041 10d8 04       		.byte	0x4
 3042 10d9 15       		.uleb128 0x15
 3043 10da EC180000 		.4byte	.LASF326
 3044 10de 11       		.byte	0x11
 3045 10df A101     		.2byte	0x1a1
 3046 10e1 97000000 		.4byte	0x97
 3047 10e5 06       		.byte	0x6
 3048 10e6 00       		.byte	0
 3049 10e7 10       		.uleb128 0x10
 3050 10e8 EC1B0000 		.4byte	.LASF327
 3051 10ec 11       		.byte	0x11
 3052 10ed A301     		.2byte	0x1a3
 3053 10ef B6100000 		.4byte	0x10b6
 3054 10f3 1A       		.uleb128 0x1a
 3055 10f4 0C       		.byte	0xc
 3056 10f5 11       		.byte	0x11
 3057 10f6 A601     		.2byte	0x1a6
 3058 10f8 17110000 		.4byte	0x1117
 3059 10fc 15       		.uleb128 0x15
 3060 10fd 4B0A0000 		.4byte	.LASF328
 3061 1101 11       		.byte	0x11
 3062 1102 A901     		.2byte	0x1a9
 3063 1104 E7100000 		.4byte	0x10e7
 3064 1108 00       		.byte	0
 3065 1109 15       		.uleb128 0x15
 3066 110a E6090000 		.4byte	.LASF329
 3067 110e 11       		.byte	0x11
 3068 110f AC01     		.2byte	0x1ac
 3069 1111 AA100000 		.4byte	0x10aa
 3070 1115 08       		.byte	0x8
 3071 1116 00       		.byte	0
 3072 1117 10       		.uleb128 0x10
 3073 1118 811A0000 		.4byte	.LASF330
 3074 111c 11       		.byte	0x11
 3075 111d AE01     		.2byte	0x1ae
 3076 111f F3100000 		.4byte	0x10f3
 3077 1123 1A       		.uleb128 0x1a
 3078 1124 10       		.byte	0x10
 3079 1125 11       		.byte	0x11
 3080 1126 D201     		.2byte	0x1d2
 3081 1128 47110000 		.4byte	0x1147
 3082 112c 15       		.uleb128 0x15
 3083 112d B8180000 		.4byte	.LASF331
 3084 1131 11       		.byte	0x11
 3085 1132 D501     		.2byte	0x1d5
 3086 1134 17110000 		.4byte	0x1117
 3087 1138 00       		.byte	0
 3088 1139 15       		.uleb128 0x15
 3089 113a C4110000 		.4byte	.LASF332
ARM GAS  C:\Users\Brian\AppData\Local\Temp\ccBwD5Lv.s 			page 77


 3090 113e 11       		.byte	0x11
 3091 113f D801     		.2byte	0x1d8
 3092 1141 9E100000 		.4byte	0x109e
 3093 1145 0C       		.byte	0xc
 3094 1146 00       		.byte	0
 3095 1147 10       		.uleb128 0x10
 3096 1148 23110000 		.4byte	.LASF333
 3097 114c 11       		.byte	0x11
 3098 114d DA01     		.2byte	0x1da
 3099 114f 23110000 		.4byte	0x1123
 3100 1153 26       		.uleb128 0x26
 3101 1154 01       		.byte	0x1
 3102 1155 2C000000 		.4byte	0x2c
 3103 1159 12       		.byte	0x12
 3104 115a 69       		.byte	0x69
 3105 115b 72110000 		.4byte	0x1172
 3106 115f 17       		.uleb128 0x17
 3107 1160 D7180000 		.4byte	.LASF334
 3108 1164 00       		.byte	0
 3109 1165 17       		.uleb128 0x17
 3110 1166 67010000 		.4byte	.LASF335
 3111 116a 01       		.byte	0x1
 3112 116b 17       		.uleb128 0x17
 3113 116c 431B0000 		.4byte	.LASF336
 3114 1170 02       		.byte	0x2
 3115 1171 00       		.byte	0
 3116 1172 03       		.uleb128 0x3
 3117 1173 73150000 		.4byte	.LASF337
 3118 1177 12       		.byte	0x12
 3119 1178 70       		.byte	0x70
 3120 1179 53110000 		.4byte	0x1153
 3121 117d 26       		.uleb128 0x26
 3122 117e 01       		.byte	0x1
 3123 117f 2C000000 		.4byte	0x2c
 3124 1183 12       		.byte	0x12
 3125 1184 7E       		.byte	0x7e
 3126 1185 A2110000 		.4byte	0x11a2
 3127 1189 17       		.uleb128 0x17
 3128 118a 83040000 		.4byte	.LASF338
 3129 118e 00       		.byte	0
 3130 118f 17       		.uleb128 0x17
 3131 1190 09090000 		.4byte	.LASF339
 3132 1194 01       		.byte	0x1
 3133 1195 17       		.uleb128 0x17
 3134 1196 3E0C0000 		.4byte	.LASF340
 3135 119a 02       		.byte	0x2
 3136 119b 17       		.uleb128 0x17
 3137 119c D80D0000 		.4byte	.LASF341
 3138 11a0 03       		.byte	0x3
 3139 11a1 00       		.byte	0
 3140 11a2 03       		.uleb128 0x3
 3141 11a3 B7080000 		.4byte	.LASF342
 3142 11a7 12       		.byte	0x12
 3143 11a8 83       		.byte	0x83
 3144 11a9 7D110000 		.4byte	0x117d
 3145 11ad 26       		.uleb128 0x26
 3146 11ae 01       		.byte	0x1
ARM GAS  C:\Users\Brian\AppData\Local\Temp\ccBwD5Lv.s 			page 78


 3147 11af 2C000000 		.4byte	0x2c
 3148 11b3 12       		.byte	0x12
 3149 11b4 87       		.byte	0x87
 3150 11b5 EA110000 		.4byte	0x11ea
 3151 11b9 17       		.uleb128 0x17
 3152 11ba C20E0000 		.4byte	.LASF343
 3153 11be 00       		.byte	0
 3154 11bf 17       		.uleb128 0x17
 3155 11c0 7B050000 		.4byte	.LASF344
 3156 11c4 01       		.byte	0x1
 3157 11c5 17       		.uleb128 0x17
 3158 11c6 66140000 		.4byte	.LASF345
 3159 11ca 02       		.byte	0x2
 3160 11cb 17       		.uleb128 0x17
 3161 11cc 29200000 		.4byte	.LASF346
 3162 11d0 03       		.byte	0x3
 3163 11d1 17       		.uleb128 0x17
 3164 11d2 98140000 		.4byte	.LASF347
 3165 11d6 04       		.byte	0x4
 3166 11d7 17       		.uleb128 0x17
 3167 11d8 090E0000 		.4byte	.LASF348
 3168 11dc 05       		.byte	0x5
 3169 11dd 17       		.uleb128 0x17
 3170 11de 3B140000 		.4byte	.LASF349
 3171 11e2 06       		.byte	0x6
 3172 11e3 17       		.uleb128 0x17
 3173 11e4 43010000 		.4byte	.LASF350
 3174 11e8 07       		.byte	0x7
 3175 11e9 00       		.byte	0
 3176 11ea 03       		.uleb128 0x3
 3177 11eb 37030000 		.4byte	.LASF351
 3178 11ef 12       		.byte	0x12
 3179 11f0 90       		.byte	0x90
 3180 11f1 AD110000 		.4byte	0x11ad
 3181 11f5 03       		.uleb128 0x3
 3182 11f6 EF030000 		.4byte	.LASF352
 3183 11fa 13       		.byte	0x13
 3184 11fb A0       		.byte	0xa0
 3185 11fc 47110000 		.4byte	0x1147
 3186 1200 03       		.uleb128 0x3
 3187 1201 4A0B0000 		.4byte	.LASF353
 3188 1205 13       		.byte	0x13
 3189 1206 C2       		.byte	0xc2
 3190 1207 F5110000 		.4byte	0x11f5
 3191 120b 09       		.uleb128 0x9
 3192 120c 14       		.byte	0x14
 3193 120d 14       		.byte	0x14
 3194 120e 3B       		.byte	0x3b
 3195 120f 50120000 		.4byte	0x1250
 3196 1213 0B       		.uleb128 0xb
 3197 1214 2B030000 		.4byte	.LASF354
 3198 1218 14       		.byte	0x14
 3199 1219 3D       		.byte	0x3d
 3200 121a A2000000 		.4byte	0xa2
 3201 121e 00       		.byte	0
 3202 121f 0B       		.uleb128 0xb
 3203 1220 22080000 		.4byte	.LASF355
ARM GAS  C:\Users\Brian\AppData\Local\Temp\ccBwD5Lv.s 			page 79


 3204 1224 14       		.byte	0x14
 3205 1225 3E       		.byte	0x3e
 3206 1226 A2000000 		.4byte	0xa2
 3207 122a 04       		.byte	0x4
 3208 122b 0B       		.uleb128 0xb
 3209 122c C71A0000 		.4byte	.LASF356
 3210 1230 14       		.byte	0x14
 3211 1231 3F       		.byte	0x3f
 3212 1232 50120000 		.4byte	0x1250
 3213 1236 08       		.byte	0x8
 3214 1237 0B       		.uleb128 0xb
 3215 1238 681E0000 		.4byte	.LASF357
 3216 123c 14       		.byte	0x14
 3217 123d 40       		.byte	0x40
 3218 123e A2000000 		.4byte	0xa2
 3219 1242 0C       		.byte	0xc
 3220 1243 0B       		.uleb128 0xb
 3221 1244 B31C0000 		.4byte	.LASF358
 3222 1248 14       		.byte	0x14
 3223 1249 45       		.byte	0x45
 3224 124a A2000000 		.4byte	0xa2
 3225 124e 10       		.byte	0x10
 3226 124f 00       		.byte	0
 3227 1250 0E       		.uleb128 0xe
 3228 1251 04       		.byte	0x4
 3229 1252 56120000 		.4byte	0x1256
 3230 1256 06       		.uleb128 0x6
 3231 1257 4B050000 		.4byte	0x54b
 3232 125b 03       		.uleb128 0x3
 3233 125c 40130000 		.4byte	.LASF359
 3234 1260 14       		.byte	0x14
 3235 1261 48       		.byte	0x48
 3236 1262 0B120000 		.4byte	0x120b
 3237 1266 0C       		.uleb128 0xc
 3238 1267 2801     		.2byte	0x128
 3239 1269 15       		.byte	0x15
 3240 126a 1E       		.byte	0x1e
 3241 126b AC120000 		.4byte	0x12ac
 3242 126f 0B       		.uleb128 0xb
 3243 1270 78060000 		.4byte	.LASF360
 3244 1274 15       		.byte	0x15
 3245 1275 20       		.byte	0x20
 3246 1276 8C000000 		.4byte	0x8c
 3247 127a 00       		.byte	0
 3248 127b 0B       		.uleb128 0xb
 3249 127c E31B0000 		.4byte	.LASF361
 3250 1280 15       		.byte	0x15
 3251 1281 21       		.byte	0x21
 3252 1282 8C000000 		.4byte	0x8c
 3253 1286 01       		.byte	0x1
 3254 1287 0B       		.uleb128 0xb
 3255 1288 E8000000 		.4byte	.LASF91
 3256 128c 15       		.byte	0x15
 3257 128d 22       		.byte	0x22
 3258 128e 97000000 		.4byte	0x97
 3259 1292 02       		.byte	0x2
 3260 1293 0B       		.uleb128 0xb
ARM GAS  C:\Users\Brian\AppData\Local\Temp\ccBwD5Lv.s 			page 80


 3261 1294 5E1B0000 		.4byte	.LASF362
 3262 1298 15       		.byte	0x15
 3263 1299 23       		.byte	0x23
 3264 129a A2000000 		.4byte	0xa2
 3265 129e 04       		.byte	0x4
 3266 129f 0B       		.uleb128 0xb
 3267 12a0 D7140000 		.4byte	.LASF363
 3268 12a4 15       		.byte	0x15
 3269 12a5 24       		.byte	0x24
 3270 12a6 AC120000 		.4byte	0x12ac
 3271 12aa 08       		.byte	0x8
 3272 12ab 00       		.byte	0
 3273 12ac 07       		.uleb128 0x7
 3274 12ad 8C000000 		.4byte	0x8c
 3275 12b1 BD120000 		.4byte	0x12bd
 3276 12b5 27       		.uleb128 0x27
 3277 12b6 AD000000 		.4byte	0xad
 3278 12ba 1F01     		.2byte	0x11f
 3279 12bc 00       		.byte	0
 3280 12bd 03       		.uleb128 0x3
 3281 12be 88020000 		.4byte	.LASF364
 3282 12c2 15       		.byte	0x15
 3283 12c3 25       		.byte	0x25
 3284 12c4 66120000 		.4byte	0x1266
 3285 12c8 28       		.uleb128 0x28
 3286 12c9 F7170000 		.4byte	.LASF420
 3287 12cd 02       		.byte	0x2
 3288 12ce 53       		.byte	0x53
 3289 12cf 03       		.byte	0x3
 3290 12d0 29       		.uleb128 0x29
 3291 12d1 A9080000 		.4byte	.LASF421
 3292 12d5 03       		.byte	0x3
 3293 12d6 E502     		.2byte	0x2e5
 3294 12d8 03       		.byte	0x3
 3295 12d9 02130000 		.4byte	0x1302
 3296 12dd 2A       		.uleb128 0x2a
 3297 12de 16080000 		.4byte	.LASF365
 3298 12e2 03       		.byte	0x3
 3299 12e3 E502     		.2byte	0x2e5
 3300 12e5 02130000 		.4byte	0x1302
 3301 12e9 2A       		.uleb128 0x2a
 3302 12ea F01A0000 		.4byte	.LASF366
 3303 12ee 03       		.byte	0x3
 3304 12ef E502     		.2byte	0x2e5
 3305 12f1 A2000000 		.4byte	0xa2
 3306 12f5 2A       		.uleb128 0x2a
 3307 12f6 4B0A0000 		.4byte	.LASF328
 3308 12fa 03       		.byte	0x3
 3309 12fb E502     		.2byte	0x2e5
 3310 12fd A2000000 		.4byte	0xa2
 3311 1301 00       		.byte	0
 3312 1302 0E       		.uleb128 0xe
 3313 1303 04       		.byte	0x4
 3314 1304 BC010000 		.4byte	0x1bc
 3315 1308 2B       		.uleb128 0x2b
 3316 1309 10160000 		.4byte	.LASF367
 3317 130d 01       		.byte	0x1
ARM GAS  C:\Users\Brian\AppData\Local\Temp\ccBwD5Lv.s 			page 81


 3318 130e BB       		.byte	0xbb
 3319 130f 00000000 		.4byte	.LFB445
 3320 1313 FC000000 		.4byte	.LFE445-.LFB445
 3321 1317 01       		.uleb128 0x1
 3322 1318 9C       		.byte	0x9c
 3323 1319 63140000 		.4byte	0x1463
 3324 131d 2C       		.uleb128 0x2c
 3325 131e 031D0000 		.4byte	.LASF369
 3326 1322 01       		.byte	0x1
 3327 1323 BB       		.byte	0xbb
 3328 1324 CE020000 		.4byte	0x2ce
 3329 1328 00000000 		.4byte	.LLST0
 3330 132c 2D       		.uleb128 0x2d
 3331 132d D50B0000 		.4byte	.LASF371
 3332 1331 01       		.byte	0x1
 3333 1332 BD       		.byte	0xbd
 3334 1333 17110000 		.4byte	0x1117
 3335 1337 02       		.uleb128 0x2
 3336 1338 91       		.byte	0x91
 3337 1339 64       		.sleb128 -28
 3338 133a 2E       		.uleb128 0x2e
 3339 133b 18000000 		.4byte	.LVL2
 3340 133f 0B1B0000 		.4byte	0x1b0b
 3341 1343 4E130000 		.4byte	0x134e
 3342 1347 2F       		.uleb128 0x2f
 3343 1348 01       		.uleb128 0x1
 3344 1349 50       		.byte	0x50
 3345 134a 02       		.uleb128 0x2
 3346 134b 74       		.byte	0x74
 3347 134c 00       		.sleb128 0
 3348 134d 00       		.byte	0
 3349 134e 2E       		.uleb128 0x2e
 3350 134f 28000000 		.4byte	.LVL3
 3351 1353 0B1B0000 		.4byte	0x1b0b
 3352 1357 62130000 		.4byte	0x1362
 3353 135b 2F       		.uleb128 0x2f
 3354 135c 01       		.uleb128 0x1
 3355 135d 50       		.byte	0x50
 3356 135e 02       		.uleb128 0x2
 3357 135f 74       		.byte	0x74
 3358 1360 00       		.sleb128 0
 3359 1361 00       		.byte	0
 3360 1362 2E       		.uleb128 0x2e
 3361 1363 38000000 		.4byte	.LVL4
 3362 1367 0B1B0000 		.4byte	0x1b0b
 3363 136b 76130000 		.4byte	0x1376
 3364 136f 2F       		.uleb128 0x2f
 3365 1370 01       		.uleb128 0x1
 3366 1371 50       		.byte	0x50
 3367 1372 02       		.uleb128 0x2
 3368 1373 74       		.byte	0x74
 3369 1374 00       		.sleb128 0
 3370 1375 00       		.byte	0
 3371 1376 2E       		.uleb128 0x2e
 3372 1377 48000000 		.4byte	.LVL5
 3373 137b 0B1B0000 		.4byte	0x1b0b
 3374 137f 8A130000 		.4byte	0x138a
ARM GAS  C:\Users\Brian\AppData\Local\Temp\ccBwD5Lv.s 			page 82


 3375 1383 2F       		.uleb128 0x2f
 3376 1384 01       		.uleb128 0x1
 3377 1385 50       		.byte	0x50
 3378 1386 02       		.uleb128 0x2
 3379 1387 74       		.byte	0x74
 3380 1388 00       		.sleb128 0
 3381 1389 00       		.byte	0
 3382 138a 2E       		.uleb128 0x2e
 3383 138b 58000000 		.4byte	.LVL6
 3384 138f 0B1B0000 		.4byte	0x1b0b
 3385 1393 9E130000 		.4byte	0x139e
 3386 1397 2F       		.uleb128 0x2f
 3387 1398 01       		.uleb128 0x1
 3388 1399 50       		.byte	0x50
 3389 139a 02       		.uleb128 0x2
 3390 139b 74       		.byte	0x74
 3391 139c 00       		.sleb128 0
 3392 139d 00       		.byte	0
 3393 139e 2E       		.uleb128 0x2e
 3394 139f 68000000 		.4byte	.LVL7
 3395 13a3 0B1B0000 		.4byte	0x1b0b
 3396 13a7 B2130000 		.4byte	0x13b2
 3397 13ab 2F       		.uleb128 0x2f
 3398 13ac 01       		.uleb128 0x1
 3399 13ad 50       		.byte	0x50
 3400 13ae 02       		.uleb128 0x2
 3401 13af 74       		.byte	0x74
 3402 13b0 00       		.sleb128 0
 3403 13b1 00       		.byte	0
 3404 13b2 2E       		.uleb128 0x2e
 3405 13b3 78000000 		.4byte	.LVL8
 3406 13b7 0B1B0000 		.4byte	0x1b0b
 3407 13bb C6130000 		.4byte	0x13c6
 3408 13bf 2F       		.uleb128 0x2f
 3409 13c0 01       		.uleb128 0x1
 3410 13c1 50       		.byte	0x50
 3411 13c2 02       		.uleb128 0x2
 3412 13c3 74       		.byte	0x74
 3413 13c4 00       		.sleb128 0
 3414 13c5 00       		.byte	0
 3415 13c6 2E       		.uleb128 0x2e
 3416 13c7 88000000 		.4byte	.LVL9
 3417 13cb 0B1B0000 		.4byte	0x1b0b
 3418 13cf DA130000 		.4byte	0x13da
 3419 13d3 2F       		.uleb128 0x2f
 3420 13d4 01       		.uleb128 0x1
 3421 13d5 50       		.byte	0x50
 3422 13d6 02       		.uleb128 0x2
 3423 13d7 74       		.byte	0x74
 3424 13d8 00       		.sleb128 0
 3425 13d9 00       		.byte	0
 3426 13da 2E       		.uleb128 0x2e
 3427 13db 98000000 		.4byte	.LVL10
 3428 13df 0B1B0000 		.4byte	0x1b0b
 3429 13e3 EE130000 		.4byte	0x13ee
 3430 13e7 2F       		.uleb128 0x2f
 3431 13e8 01       		.uleb128 0x1
ARM GAS  C:\Users\Brian\AppData\Local\Temp\ccBwD5Lv.s 			page 83


 3432 13e9 50       		.byte	0x50
 3433 13ea 02       		.uleb128 0x2
 3434 13eb 74       		.byte	0x74
 3435 13ec 00       		.sleb128 0
 3436 13ed 00       		.byte	0
 3437 13ee 2E       		.uleb128 0x2e
 3438 13ef A8000000 		.4byte	.LVL11
 3439 13f3 0B1B0000 		.4byte	0x1b0b
 3440 13f7 02140000 		.4byte	0x1402
 3441 13fb 2F       		.uleb128 0x2f
 3442 13fc 01       		.uleb128 0x1
 3443 13fd 50       		.byte	0x50
 3444 13fe 02       		.uleb128 0x2
 3445 13ff 74       		.byte	0x74
 3446 1400 00       		.sleb128 0
 3447 1401 00       		.byte	0
 3448 1402 2E       		.uleb128 0x2e
 3449 1403 B8000000 		.4byte	.LVL12
 3450 1407 0B1B0000 		.4byte	0x1b0b
 3451 140b 16140000 		.4byte	0x1416
 3452 140f 2F       		.uleb128 0x2f
 3453 1410 01       		.uleb128 0x1
 3454 1411 50       		.byte	0x50
 3455 1412 02       		.uleb128 0x2
 3456 1413 74       		.byte	0x74
 3457 1414 00       		.sleb128 0
 3458 1415 00       		.byte	0
 3459 1416 2E       		.uleb128 0x2e
 3460 1417 C8000000 		.4byte	.LVL13
 3461 141b 0B1B0000 		.4byte	0x1b0b
 3462 141f 2A140000 		.4byte	0x142a
 3463 1423 2F       		.uleb128 0x2f
 3464 1424 01       		.uleb128 0x1
 3465 1425 50       		.byte	0x50
 3466 1426 02       		.uleb128 0x2
 3467 1427 74       		.byte	0x74
 3468 1428 00       		.sleb128 0
 3469 1429 00       		.byte	0
 3470 142a 2E       		.uleb128 0x2e
 3471 142b D8000000 		.4byte	.LVL14
 3472 142f 0B1B0000 		.4byte	0x1b0b
 3473 1433 3E140000 		.4byte	0x143e
 3474 1437 2F       		.uleb128 0x2f
 3475 1438 01       		.uleb128 0x1
 3476 1439 50       		.byte	0x50
 3477 143a 02       		.uleb128 0x2
 3478 143b 74       		.byte	0x74
 3479 143c 00       		.sleb128 0
 3480 143d 00       		.byte	0
 3481 143e 2E       		.uleb128 0x2e
 3482 143f E8000000 		.4byte	.LVL15
 3483 1443 0B1B0000 		.4byte	0x1b0b
 3484 1447 52140000 		.4byte	0x1452
 3485 144b 2F       		.uleb128 0x2f
 3486 144c 01       		.uleb128 0x1
 3487 144d 50       		.byte	0x50
 3488 144e 02       		.uleb128 0x2
ARM GAS  C:\Users\Brian\AppData\Local\Temp\ccBwD5Lv.s 			page 84


 3489 144f 74       		.byte	0x74
 3490 1450 00       		.sleb128 0
 3491 1451 00       		.byte	0
 3492 1452 30       		.uleb128 0x30
 3493 1453 F8000000 		.4byte	.LVL18
 3494 1457 0B1B0000 		.4byte	0x1b0b
 3495 145b 2F       		.uleb128 0x2f
 3496 145c 01       		.uleb128 0x1
 3497 145d 50       		.byte	0x50
 3498 145e 02       		.uleb128 0x2
 3499 145f 74       		.byte	0x74
 3500 1460 00       		.sleb128 0
 3501 1461 00       		.byte	0
 3502 1462 00       		.byte	0
 3503 1463 2B       		.uleb128 0x2b
 3504 1464 CB020000 		.4byte	.LASF368
 3505 1468 01       		.byte	0x1
 3506 1469 FD       		.byte	0xfd
 3507 146a 00000000 		.4byte	.LFB446
 3508 146e 1A000000 		.4byte	.LFE446-.LFB446
 3509 1472 01       		.uleb128 0x1
 3510 1473 9C       		.byte	0x9c
 3511 1474 A6140000 		.4byte	0x14a6
 3512 1478 2C       		.uleb128 0x2c
 3513 1479 700B0000 		.4byte	.LASF370
 3514 147d 01       		.byte	0x1
 3515 147e FD       		.byte	0xfd
 3516 147f CE020000 		.4byte	0x2ce
 3517 1483 47000000 		.4byte	.LLST1
 3518 1487 2D       		.uleb128 0x2d
 3519 1488 D50B0000 		.4byte	.LASF371
 3520 148c 01       		.byte	0x1
 3521 148d FF       		.byte	0xff
 3522 148e 17110000 		.4byte	0x1117
 3523 1492 02       		.uleb128 0x2
 3524 1493 91       		.byte	0x91
 3525 1494 6C       		.sleb128 -20
 3526 1495 30       		.uleb128 0x30
 3527 1496 16000000 		.4byte	.LVL22
 3528 149a 0B1B0000 		.4byte	0x1b0b
 3529 149e 2F       		.uleb128 0x2f
 3530 149f 01       		.uleb128 0x1
 3531 14a0 50       		.byte	0x50
 3532 14a1 02       		.uleb128 0x2
 3533 14a2 91       		.byte	0x91
 3534 14a3 6C       		.sleb128 -20
 3535 14a4 00       		.byte	0
 3536 14a5 00       		.byte	0
 3537 14a6 31       		.uleb128 0x31
 3538 14a7 04180000 		.4byte	.LASF372
 3539 14ab 01       		.byte	0x1
 3540 14ac 0601     		.2byte	0x106
 3541 14ae 00000000 		.4byte	.LFB447
 3542 14b2 1A000000 		.4byte	.LFE447-.LFB447
 3543 14b6 01       		.uleb128 0x1
 3544 14b7 9C       		.byte	0x9c
 3545 14b8 EC140000 		.4byte	0x14ec
ARM GAS  C:\Users\Brian\AppData\Local\Temp\ccBwD5Lv.s 			page 85


 3546 14bc 32       		.uleb128 0x32
 3547 14bd 13010000 		.4byte	.LASF373
 3548 14c1 01       		.byte	0x1
 3549 14c2 0601     		.2byte	0x106
 3550 14c4 CE020000 		.4byte	0x2ce
 3551 14c8 74000000 		.4byte	.LLST2
 3552 14cc 33       		.uleb128 0x33
 3553 14cd D50B0000 		.4byte	.LASF371
 3554 14d1 01       		.byte	0x1
 3555 14d2 0801     		.2byte	0x108
 3556 14d4 17110000 		.4byte	0x1117
 3557 14d8 02       		.uleb128 0x2
 3558 14d9 91       		.byte	0x91
 3559 14da 6C       		.sleb128 -20
 3560 14db 30       		.uleb128 0x30
 3561 14dc 16000000 		.4byte	.LVL25
 3562 14e0 0B1B0000 		.4byte	0x1b0b
 3563 14e4 2F       		.uleb128 0x2f
 3564 14e5 01       		.uleb128 0x1
 3565 14e6 50       		.byte	0x50
 3566 14e7 02       		.uleb128 0x2
 3567 14e8 91       		.byte	0x91
 3568 14e9 6C       		.sleb128 -20
 3569 14ea 00       		.byte	0
 3570 14eb 00       		.byte	0
 3571 14ec 31       		.uleb128 0x31
 3572 14ed 18020000 		.4byte	.LASF374
 3573 14f1 01       		.byte	0x1
 3574 14f2 0F01     		.2byte	0x10f
 3575 14f4 00000000 		.4byte	.LFB448
 3576 14f8 28000000 		.4byte	.LFE448-.LFB448
 3577 14fc 01       		.uleb128 0x1
 3578 14fd 9C       		.byte	0x9c
 3579 14fe 42150000 		.4byte	0x1542
 3580 1502 32       		.uleb128 0x32
 3581 1503 AC020000 		.4byte	.LASF375
 3582 1507 01       		.byte	0x1
 3583 1508 0F01     		.2byte	0x10f
 3584 150a CE020000 		.4byte	0x2ce
 3585 150e A1000000 		.4byte	.LLST3
 3586 1512 32       		.uleb128 0x32
 3587 1513 500E0000 		.4byte	.LASF376
 3588 1517 01       		.byte	0x1
 3589 1518 0F01     		.2byte	0x10f
 3590 151a 8C000000 		.4byte	0x8c
 3591 151e CE000000 		.4byte	.LLST4
 3592 1522 33       		.uleb128 0x33
 3593 1523 D50B0000 		.4byte	.LASF371
 3594 1527 01       		.byte	0x1
 3595 1528 1101     		.2byte	0x111
 3596 152a 17110000 		.4byte	0x1117
 3597 152e 02       		.uleb128 0x2
 3598 152f 91       		.byte	0x91
 3599 1530 6C       		.sleb128 -20
 3600 1531 30       		.uleb128 0x30
 3601 1532 24000000 		.4byte	.LVL28
 3602 1536 0B1B0000 		.4byte	0x1b0b
ARM GAS  C:\Users\Brian\AppData\Local\Temp\ccBwD5Lv.s 			page 86


 3603 153a 2F       		.uleb128 0x2f
 3604 153b 01       		.uleb128 0x1
 3605 153c 50       		.byte	0x50
 3606 153d 02       		.uleb128 0x2
 3607 153e 91       		.byte	0x91
 3608 153f 6C       		.sleb128 -20
 3609 1540 00       		.byte	0
 3610 1541 00       		.byte	0
 3611 1542 31       		.uleb128 0x31
 3612 1543 B31A0000 		.4byte	.LASF377
 3613 1547 01       		.byte	0x1
 3614 1548 1F01     		.2byte	0x11f
 3615 154a 00000000 		.4byte	.LFB449
 3616 154e 70000000 		.4byte	.LFE449-.LFB449
 3617 1552 01       		.uleb128 0x1
 3618 1553 9C       		.byte	0x9c
 3619 1554 BC150000 		.4byte	0x15bc
 3620 1558 33       		.uleb128 0x33
 3621 1559 B6040000 		.4byte	.LASF378
 3622 155d 01       		.byte	0x1
 3623 155e 2101     		.2byte	0x121
 3624 1560 BC150000 		.4byte	0x15bc
 3625 1564 03       		.uleb128 0x3
 3626 1565 91       		.byte	0x91
 3627 1566 F87B     		.sleb128 -520
 3628 1568 34       		.uleb128 0x34
 3629 1569 5B080000 		.4byte	.LASF379
 3630 156d 01       		.byte	0x1
 3631 156e 2D01     		.2byte	0x12d
 3632 1570 30040000 		.4byte	0x430
 3633 1574 EF000000 		.4byte	.LLST5
 3634 1578 35       		.uleb128 0x35
 3635 1579 04000000 		.4byte	.LBB15
 3636 157d 14000000 		.4byte	.LBE15-.LBB15
 3637 1581 94150000 		.4byte	0x1594
 3638 1585 36       		.uleb128 0x36
 3639 1586 6900     		.ascii	"i\000"
 3640 1588 01       		.byte	0x1
 3641 1589 2201     		.2byte	0x122
 3642 158b 97000000 		.4byte	0x97
 3643 158f 02010000 		.4byte	.LLST6
 3644 1593 00       		.byte	0
 3645 1594 2E       		.uleb128 0x2e
 3646 1595 48000000 		.4byte	.LVL34
 3647 1599 161B0000 		.4byte	0x1b16
 3648 159d A8150000 		.4byte	0x15a8
 3649 15a1 2F       		.uleb128 0x2f
 3650 15a2 01       		.uleb128 0x1
 3651 15a3 51       		.byte	0x51
 3652 15a4 02       		.uleb128 0x2
 3653 15a5 7D       		.byte	0x7d
 3654 15a6 00       		.sleb128 0
 3655 15a7 00       		.byte	0
 3656 15a8 30       		.uleb128 0x30
 3657 15a9 52000000 		.4byte	.LVL36
 3658 15ad 221B0000 		.4byte	0x1b22
 3659 15b1 2F       		.uleb128 0x2f
ARM GAS  C:\Users\Brian\AppData\Local\Temp\ccBwD5Lv.s 			page 87


 3660 15b2 01       		.uleb128 0x1
 3661 15b3 50       		.byte	0x50
 3662 15b4 05       		.uleb128 0x5
 3663 15b5 03       		.byte	0x3
 3664 15b6 00000000 		.4byte	.LC4
 3665 15ba 00       		.byte	0
 3666 15bb 00       		.byte	0
 3667 15bc 07       		.uleb128 0x7
 3668 15bd 8C000000 		.4byte	0x8c
 3669 15c1 CD150000 		.4byte	0x15cd
 3670 15c5 27       		.uleb128 0x27
 3671 15c6 AD000000 		.4byte	0xad
 3672 15ca FF01     		.2byte	0x1ff
 3673 15cc 00       		.byte	0
 3674 15cd 2B       		.uleb128 0x2b
 3675 15ce B3100000 		.4byte	.LASF380
 3676 15d2 01       		.byte	0x1
 3677 15d3 10       		.byte	0x10
 3678 15d4 00000000 		.4byte	.LFB443
 3679 15d8 B4010000 		.4byte	.LFE443-.LFB443
 3680 15dc 01       		.uleb128 0x1
 3681 15dd 9C       		.byte	0x9c
 3682 15de 3F180000 		.4byte	0x183f
 3683 15e2 2C       		.uleb128 0x2c
 3684 15e3 6B0B0000 		.4byte	.LASF381
 3685 15e7 01       		.byte	0x1
 3686 15e8 10       		.byte	0x10
 3687 15e9 3F180000 		.4byte	0x183f
 3688 15ed 2C010000 		.4byte	.LLST7
 3689 15f1 37       		.uleb128 0x37
 3690 15f2 C8120000 		.4byte	0x12c8
 3691 15f6 0A000000 		.4byte	.LBB16
 3692 15fa 02000000 		.4byte	.LBE16-.LBB16
 3693 15fe 01       		.byte	0x1
 3694 15ff 16       		.byte	0x16
 3695 1600 35       		.uleb128 0x35
 3696 1601 82000000 		.4byte	.LBB18
 3697 1605 3C000000 		.4byte	.LBE18-.LBB18
 3698 1609 2E160000 		.4byte	0x162e
 3699 160d 38       		.uleb128 0x38
 3700 160e 6900     		.ascii	"i\000"
 3701 1610 01       		.byte	0x1
 3702 1611 35       		.byte	0x35
 3703 1612 8C000000 		.4byte	0x8c
 3704 1616 5C010000 		.4byte	.LLST8
 3705 161a 39       		.uleb128 0x39
 3706 161b 00000000 		.4byte	.Ldebug_ranges0+0
 3707 161f 38       		.uleb128 0x38
 3708 1620 6A00     		.ascii	"j\000"
 3709 1622 01       		.byte	0x1
 3710 1623 37       		.byte	0x37
 3711 1624 97000000 		.4byte	0x97
 3712 1628 86010000 		.4byte	.LLST9
 3713 162c 00       		.byte	0
 3714 162d 00       		.byte	0
 3715 162e 35       		.uleb128 0x35
 3716 162f BE000000 		.4byte	.LBB21
ARM GAS  C:\Users\Brian\AppData\Local\Temp\ccBwD5Lv.s 			page 88


 3717 1633 86000000 		.4byte	.LBE21-.LBB21
 3718 1637 18170000 		.4byte	0x1718
 3719 163b 2D       		.uleb128 0x2d
 3720 163c B6040000 		.4byte	.LASF378
 3721 1640 01       		.byte	0x1
 3722 1641 55       		.byte	0x55
 3723 1642 BC150000 		.4byte	0x15bc
 3724 1646 03       		.uleb128 0x3
 3725 1647 91       		.byte	0x91
 3726 1648 F07B     		.sleb128 -528
 3727 164a 35       		.uleb128 0x35
 3728 164b EA000000 		.4byte	.LBB22
 3729 164f 28000000 		.4byte	.LBE22-.LBB22
 3730 1653 78160000 		.4byte	0x1678
 3731 1657 38       		.uleb128 0x38
 3732 1658 6900     		.ascii	"i\000"
 3733 165a 01       		.byte	0x1
 3734 165b 4B       		.byte	0x4b
 3735 165c 8C000000 		.4byte	0x8c
 3736 1660 AF010000 		.4byte	.LLST10
 3737 1664 39       		.uleb128 0x39
 3738 1665 18000000 		.4byte	.Ldebug_ranges0+0x18
 3739 1669 38       		.uleb128 0x38
 3740 166a 6A00     		.ascii	"j\000"
 3741 166c 01       		.byte	0x1
 3742 166d 4D       		.byte	0x4d
 3743 166e 97000000 		.4byte	0x97
 3744 1672 D9010000 		.4byte	.LLST11
 3745 1676 00       		.byte	0
 3746 1677 00       		.byte	0
 3747 1678 35       		.uleb128 0x35
 3748 1679 16010000 		.4byte	.LBB25
 3749 167d 18000000 		.4byte	.LBE25-.LBB25
 3750 1681 93160000 		.4byte	0x1693
 3751 1685 38       		.uleb128 0x38
 3752 1686 6900     		.ascii	"i\000"
 3753 1688 01       		.byte	0x1
 3754 1689 56       		.byte	0x56
 3755 168a 97000000 		.4byte	0x97
 3756 168e 02020000 		.4byte	.LLST12
 3757 1692 00       		.byte	0
 3758 1693 35       		.uleb128 0x35
 3759 1694 2E010000 		.4byte	.LBB26
 3760 1698 16000000 		.4byte	.LBE26-.LBB26
 3761 169c BF160000 		.4byte	0x16bf
 3762 16a0 38       		.uleb128 0x38
 3763 16a1 6900     		.ascii	"i\000"
 3764 16a3 01       		.byte	0x1
 3765 16a4 5A       		.byte	0x5a
 3766 16a5 8C000000 		.4byte	0x8c
 3767 16a9 2C020000 		.4byte	.LLST13
 3768 16ad 30       		.uleb128 0x30
 3769 16ae 3C010000 		.4byte	.LVL70
 3770 16b2 161B0000 		.4byte	0x1b16
 3771 16b6 2F       		.uleb128 0x2f
 3772 16b7 01       		.uleb128 0x1
 3773 16b8 51       		.byte	0x51
ARM GAS  C:\Users\Brian\AppData\Local\Temp\ccBwD5Lv.s 			page 89


 3774 16b9 03       		.uleb128 0x3
 3775 16ba 91       		.byte	0x91
 3776 16bb F07B     		.sleb128 -528
 3777 16bd 00       		.byte	0
 3778 16be 00       		.byte	0
 3779 16bf 2E       		.uleb128 0x2e
 3780 16c0 C4000000 		.4byte	.LVL55
 3781 16c4 221B0000 		.4byte	0x1b22
 3782 16c8 D6160000 		.4byte	0x16d6
 3783 16cc 2F       		.uleb128 0x2f
 3784 16cd 01       		.uleb128 0x1
 3785 16ce 50       		.byte	0x50
 3786 16cf 05       		.uleb128 0x5
 3787 16d0 03       		.byte	0x3
 3788 16d1 40000000 		.4byte	.LC17
 3789 16d5 00       		.byte	0
 3790 16d6 2E       		.uleb128 0x2e
 3791 16d7 DA000000 		.4byte	.LVL56
 3792 16db 311B0000 		.4byte	0x1b31
 3793 16df F2160000 		.4byte	0x16f2
 3794 16e3 2F       		.uleb128 0x2f
 3795 16e4 01       		.uleb128 0x1
 3796 16e5 50       		.byte	0x50
 3797 16e6 05       		.uleb128 0x5
 3798 16e7 03       		.byte	0x3
 3799 16e8 00000000 		.4byte	upper_thresh
 3800 16ec 2F       		.uleb128 0x2f
 3801 16ed 01       		.uleb128 0x1
 3802 16ee 51       		.byte	0x51
 3803 16ef 01       		.uleb128 0x1
 3804 16f0 32       		.byte	0x32
 3805 16f1 00       		.byte	0
 3806 16f2 2E       		.uleb128 0x2e
 3807 16f3 EA000000 		.4byte	.LVL57
 3808 16f7 311B0000 		.4byte	0x1b31
 3809 16fb 0E170000 		.4byte	0x170e
 3810 16ff 2F       		.uleb128 0x2f
 3811 1700 01       		.uleb128 0x1
 3812 1701 50       		.byte	0x50
 3813 1702 05       		.uleb128 0x5
 3814 1703 03       		.byte	0x3
 3815 1704 00000000 		.4byte	lower_thresh
 3816 1708 2F       		.uleb128 0x2f
 3817 1709 01       		.uleb128 0x1
 3818 170a 51       		.byte	0x51
 3819 170b 01       		.uleb128 0x1
 3820 170c 33       		.byte	0x33
 3821 170d 00       		.byte	0
 3822 170e 3A       		.uleb128 0x3a
 3823 170f 16010000 		.4byte	.LVL65
 3824 1713 42150000 		.4byte	0x1542
 3825 1717 00       		.byte	0
 3826 1718 2E       		.uleb128 0x2e
 3827 1719 12000000 		.4byte	.LVL39
 3828 171d 3C1B0000 		.4byte	0x1b3c
 3829 1721 2F170000 		.4byte	0x172f
 3830 1725 2F       		.uleb128 0x2f
ARM GAS  C:\Users\Brian\AppData\Local\Temp\ccBwD5Lv.s 			page 90


 3831 1726 01       		.uleb128 0x1
 3832 1727 50       		.byte	0x50
 3833 1728 05       		.uleb128 0x5
 3834 1729 0C       		.byte	0xc
 3835 172a 00000810 		.4byte	0x10080000
 3836 172e 00       		.byte	0
 3837 172f 3A       		.uleb128 0x3a
 3838 1730 16000000 		.4byte	.LVL40
 3839 1734 481B0000 		.4byte	0x1b48
 3840 1738 2E       		.uleb128 0x2e
 3841 1739 26000000 		.4byte	.LVL41
 3842 173d 531B0000 		.4byte	0x1b53
 3843 1741 55170000 		.4byte	0x1755
 3844 1745 2F       		.uleb128 0x2f
 3845 1746 01       		.uleb128 0x1
 3846 1747 51       		.byte	0x51
 3847 1748 01       		.uleb128 0x1
 3848 1749 30       		.byte	0x30
 3849 174a 2F       		.uleb128 0x2f
 3850 174b 01       		.uleb128 0x1
 3851 174c 52       		.byte	0x52
 3852 174d 01       		.uleb128 0x1
 3853 174e 32       		.byte	0x32
 3854 174f 2F       		.uleb128 0x2f
 3855 1750 01       		.uleb128 0x1
 3856 1751 53       		.byte	0x53
 3857 1752 01       		.uleb128 0x1
 3858 1753 30       		.byte	0x30
 3859 1754 00       		.byte	0
 3860 1755 2E       		.uleb128 0x2e
 3861 1756 2C000000 		.4byte	.LVL42
 3862 175a 221B0000 		.4byte	0x1b22
 3863 175e 6C170000 		.4byte	0x176c
 3864 1762 2F       		.uleb128 0x2f
 3865 1763 01       		.uleb128 0x1
 3866 1764 50       		.byte	0x50
 3867 1765 05       		.uleb128 0x5
 3868 1766 03       		.byte	0x3
 3869 1767 1C000000 		.4byte	.LC8
 3870 176b 00       		.byte	0
 3871 176c 2E       		.uleb128 0x2e
 3872 176d 36000000 		.4byte	.LVL43
 3873 1771 5E1B0000 		.4byte	0x1b5e
 3874 1775 84170000 		.4byte	0x1784
 3875 1779 2F       		.uleb128 0x2f
 3876 177a 01       		.uleb128 0x1
 3877 177b 50       		.byte	0x50
 3878 177c 01       		.uleb128 0x1
 3879 177d 30       		.byte	0x30
 3880 177e 2F       		.uleb128 0x2f
 3881 177f 01       		.uleb128 0x1
 3882 1780 52       		.byte	0x52
 3883 1781 01       		.uleb128 0x1
 3884 1782 31       		.byte	0x31
 3885 1783 00       		.byte	0
 3886 1784 2E       		.uleb128 0x2e
 3887 1785 4C000000 		.4byte	.LVL44
ARM GAS  C:\Users\Brian\AppData\Local\Temp\ccBwD5Lv.s 			page 91


 3888 1789 221B0000 		.4byte	0x1b22
 3889 178d 9B170000 		.4byte	0x179b
 3890 1791 2F       		.uleb128 0x2f
 3891 1792 01       		.uleb128 0x1
 3892 1793 50       		.byte	0x50
 3893 1794 05       		.uleb128 0x5
 3894 1795 03       		.byte	0x3
 3895 1796 2C000000 		.4byte	.LC11
 3896 179a 00       		.byte	0
 3897 179b 2E       		.uleb128 0x2e
 3898 179c 6C000000 		.4byte	.LVL45
 3899 17a0 311B0000 		.4byte	0x1b31
 3900 17a4 B7170000 		.4byte	0x17b7
 3901 17a8 2F       		.uleb128 0x2f
 3902 17a9 01       		.uleb128 0x1
 3903 17aa 50       		.byte	0x50
 3904 17ab 05       		.uleb128 0x5
 3905 17ac 03       		.byte	0x3
 3906 17ad 00000000 		.4byte	upper_thresh
 3907 17b1 2F       		.uleb128 0x2f
 3908 17b2 01       		.uleb128 0x1
 3909 17b3 51       		.byte	0x51
 3910 17b4 01       		.uleb128 0x1
 3911 17b5 32       		.byte	0x32
 3912 17b6 00       		.byte	0
 3913 17b7 2E       		.uleb128 0x2e
 3914 17b8 82000000 		.4byte	.LVL46
 3915 17bc 311B0000 		.4byte	0x1b31
 3916 17c0 D3170000 		.4byte	0x17d3
 3917 17c4 2F       		.uleb128 0x2f
 3918 17c5 01       		.uleb128 0x1
 3919 17c6 50       		.byte	0x50
 3920 17c7 05       		.uleb128 0x5
 3921 17c8 03       		.byte	0x3
 3922 17c9 00000000 		.4byte	lower_thresh
 3923 17cd 2F       		.uleb128 0x2f
 3924 17ce 01       		.uleb128 0x1
 3925 17cf 51       		.byte	0x51
 3926 17d0 01       		.uleb128 0x1
 3927 17d1 33       		.byte	0x33
 3928 17d2 00       		.byte	0
 3929 17d3 2E       		.uleb128 0x2e
 3930 17d4 4A010000 		.4byte	.LVL74
 3931 17d8 691B0000 		.4byte	0x1b69
 3932 17dc EA170000 		.4byte	0x17ea
 3933 17e0 2F       		.uleb128 0x2f
 3934 17e1 01       		.uleb128 0x1
 3935 17e2 50       		.byte	0x50
 3936 17e3 05       		.uleb128 0x5
 3937 17e4 03       		.byte	0x3
 3938 17e5 00000000 		.4byte	GenericEventHandler
 3939 17e9 00       		.byte	0
 3940 17ea 3A       		.uleb128 0x3a
 3941 17eb 50010000 		.4byte	.LVL75
 3942 17ef 741B0000 		.4byte	0x1b74
 3943 17f3 2E       		.uleb128 0x2e
 3944 17f4 5E010000 		.4byte	.LVL76
ARM GAS  C:\Users\Brian\AppData\Local\Temp\ccBwD5Lv.s 			page 92


 3945 17f8 63140000 		.4byte	0x1463
 3946 17fc 0A180000 		.4byte	0x180a
 3947 1800 2F       		.uleb128 0x2f
 3948 1801 01       		.uleb128 0x1
 3949 1802 50       		.byte	0x50
 3950 1803 05       		.uleb128 0x5
 3951 1804 03       		.byte	0x3
 3952 1805 00000000 		.4byte	num_events
 3953 1809 00       		.byte	0
 3954 180a 2E       		.uleb128 0x2e
 3955 180b 66010000 		.4byte	.LVL77
 3956 180f EC140000 		.4byte	0x14ec
 3957 1813 26180000 		.4byte	0x1826
 3958 1817 2F       		.uleb128 0x2f
 3959 1818 01       		.uleb128 0x1
 3960 1819 50       		.byte	0x50
 3961 181a 05       		.uleb128 0x5
 3962 181b 03       		.byte	0x3
 3963 181c 00000000 		.4byte	upper_thresh
 3964 1820 2F       		.uleb128 0x2f
 3965 1821 01       		.uleb128 0x1
 3966 1822 51       		.byte	0x51
 3967 1823 01       		.uleb128 0x1
 3968 1824 32       		.byte	0x32
 3969 1825 00       		.byte	0
 3970 1826 30       		.uleb128 0x30
 3971 1827 6E010000 		.4byte	.LVL78
 3972 182b EC140000 		.4byte	0x14ec
 3973 182f 2F       		.uleb128 0x2f
 3974 1830 01       		.uleb128 0x1
 3975 1831 50       		.byte	0x50
 3976 1832 05       		.uleb128 0x5
 3977 1833 03       		.byte	0x3
 3978 1834 00000000 		.4byte	lower_thresh
 3979 1838 2F       		.uleb128 0x2f
 3980 1839 01       		.uleb128 0x1
 3981 183a 51       		.byte	0x51
 3982 183b 01       		.uleb128 0x1
 3983 183c 33       		.byte	0x33
 3984 183d 00       		.byte	0
 3985 183e 00       		.byte	0
 3986 183f 0E       		.uleb128 0xe
 3987 1840 04       		.byte	0x4
 3988 1841 45180000 		.4byte	0x1845
 3989 1845 0E       		.uleb128 0xe
 3990 1846 04       		.byte	0x4
 3991 1847 4B180000 		.4byte	0x184b
 3992 184b 06       		.uleb128 0x6
 3993 184c 9C020000 		.4byte	0x29c
 3994 1850 2B       		.uleb128 0x2b
 3995 1851 B10B0000 		.4byte	.LASF382
 3996 1855 01       		.byte	0x1
 3997 1856 6E       		.byte	0x6e
 3998 1857 00000000 		.4byte	.LFB444
 3999 185b 0C010000 		.4byte	.LFE444-.LFB444
 4000 185f 01       		.uleb128 0x1
 4001 1860 9C       		.byte	0x9c
ARM GAS  C:\Users\Brian\AppData\Local\Temp\ccBwD5Lv.s 			page 93


 4002 1861 CD190000 		.4byte	0x19cd
 4003 1865 2C       		.uleb128 0x2c
 4004 1866 DD190000 		.4byte	.LASF383
 4005 186a 01       		.byte	0x1
 4006 186b 6E       		.byte	0x6e
 4007 186c A8020000 		.4byte	0x2a8
 4008 1870 4A020000 		.4byte	.LLST14
 4009 1874 2C       		.uleb128 0x2c
 4010 1875 A7010000 		.4byte	.LASF384
 4011 1879 01       		.byte	0x1
 4012 187a 6E       		.byte	0x6e
 4013 187b B4020000 		.4byte	0x2b4
 4014 187f 84020000 		.4byte	.LLST15
 4015 1883 3B       		.uleb128 0x3b
 4016 1884 AA180000 		.4byte	.LASF385
 4017 1888 01       		.byte	0x1
 4018 1889 70       		.byte	0x70
 4019 188a CD190000 		.4byte	0x19cd
 4020 188e C6020000 		.4byte	.LLST16
 4021 1892 3C       		.uleb128 0x3c
 4022 1893 D0120000 		.4byte	0x12d0
 4023 1897 24000000 		.4byte	.LBB27
 4024 189b 06000000 		.4byte	.LBE27-.LBB27
 4025 189f 01       		.byte	0x1
 4026 18a0 76       		.byte	0x76
 4027 18a1 C1180000 		.4byte	0x18c1
 4028 18a5 3D       		.uleb128 0x3d
 4029 18a6 F5120000 		.4byte	0x12f5
 4030 18aa E4020000 		.4byte	.LLST17
 4031 18ae 3D       		.uleb128 0x3d
 4032 18af E9120000 		.4byte	0x12e9
 4033 18b3 F8020000 		.4byte	.LLST18
 4034 18b7 3D       		.uleb128 0x3d
 4035 18b8 DD120000 		.4byte	0x12dd
 4036 18bc 0C030000 		.4byte	.LLST19
 4037 18c0 00       		.byte	0
 4038 18c1 3C       		.uleb128 0x3c
 4039 18c2 D0120000 		.4byte	0x12d0
 4040 18c6 34000000 		.4byte	.LBB29
 4041 18ca 08000000 		.4byte	.LBE29-.LBB29
 4042 18ce 01       		.byte	0x1
 4043 18cf 7D       		.byte	0x7d
 4044 18d0 F0180000 		.4byte	0x18f0
 4045 18d4 3D       		.uleb128 0x3d
 4046 18d5 F5120000 		.4byte	0x12f5
 4047 18d9 24030000 		.4byte	.LLST20
 4048 18dd 3D       		.uleb128 0x3d
 4049 18de E9120000 		.4byte	0x12e9
 4050 18e2 38030000 		.4byte	.LLST21
 4051 18e6 3D       		.uleb128 0x3d
 4052 18e7 DD120000 		.4byte	0x12dd
 4053 18eb 4C030000 		.4byte	.LLST22
 4054 18ef 00       		.byte	0
 4055 18f0 2E       		.uleb128 0x2e
 4056 18f1 32000000 		.4byte	.LVL84
 4057 18f5 801B0000 		.4byte	0x1b80
 4058 18f9 08190000 		.4byte	0x1908
ARM GAS  C:\Users\Brian\AppData\Local\Temp\ccBwD5Lv.s 			page 94


 4059 18fd 2F       		.uleb128 0x2f
 4060 18fe 01       		.uleb128 0x1
 4061 18ff 50       		.byte	0x50
 4062 1900 01       		.uleb128 0x1
 4063 1901 30       		.byte	0x30
 4064 1902 2F       		.uleb128 0x2f
 4065 1903 01       		.uleb128 0x1
 4066 1904 51       		.byte	0x51
 4067 1905 01       		.uleb128 0x1
 4068 1906 30       		.byte	0x30
 4069 1907 00       		.byte	0
 4070 1908 3A       		.uleb128 0x3a
 4071 1909 4E000000 		.4byte	.LVL88
 4072 190d 8C1B0000 		.4byte	0x1b8c
 4073 1911 2E       		.uleb128 0x2e
 4074 1912 58000000 		.4byte	.LVL89
 4075 1916 971B0000 		.4byte	0x1b97
 4076 191a 2B190000 		.4byte	0x192b
 4077 191e 2F       		.uleb128 0x2f
 4078 191f 01       		.uleb128 0x1
 4079 1920 50       		.byte	0x50
 4080 1921 02       		.uleb128 0x2
 4081 1922 74       		.byte	0x74
 4082 1923 0C       		.sleb128 12
 4083 1924 2F       		.uleb128 0x2f
 4084 1925 01       		.uleb128 0x1
 4085 1926 51       		.byte	0x51
 4086 1927 02       		.uleb128 0x2
 4087 1928 74       		.byte	0x74
 4088 1929 00       		.sleb128 0
 4089 192a 00       		.byte	0
 4090 192b 3A       		.uleb128 0x3a
 4091 192c 7A000000 		.4byte	.LVL90
 4092 1930 08130000 		.4byte	0x1308
 4093 1934 2E       		.uleb128 0x2e
 4094 1935 84000000 		.4byte	.LVL91
 4095 1939 971B0000 		.4byte	0x1b97
 4096 193d 4E190000 		.4byte	0x194e
 4097 1941 2F       		.uleb128 0x2f
 4098 1942 01       		.uleb128 0x1
 4099 1943 50       		.byte	0x50
 4100 1944 02       		.uleb128 0x2
 4101 1945 74       		.byte	0x74
 4102 1946 0C       		.sleb128 12
 4103 1947 2F       		.uleb128 0x2f
 4104 1948 01       		.uleb128 0x1
 4105 1949 51       		.byte	0x51
 4106 194a 02       		.uleb128 0x2
 4107 194b 74       		.byte	0x74
 4108 194c 00       		.sleb128 0
 4109 194d 00       		.byte	0
 4110 194e 2E       		.uleb128 0x2e
 4111 194f 92000000 		.4byte	.LVL92
 4112 1953 311B0000 		.4byte	0x1b31
 4113 1957 61190000 		.4byte	0x1961
 4114 195b 2F       		.uleb128 0x2f
 4115 195c 01       		.uleb128 0x1
ARM GAS  C:\Users\Brian\AppData\Local\Temp\ccBwD5Lv.s 			page 95


 4116 195d 51       		.byte	0x51
 4117 195e 01       		.uleb128 0x1
 4118 195f 32       		.byte	0x32
 4119 1960 00       		.byte	0
 4120 1961 3A       		.uleb128 0x3a
 4121 1962 A4000000 		.4byte	.LVL93
 4122 1966 42150000 		.4byte	0x1542
 4123 196a 2E       		.uleb128 0x2e
 4124 196b AE000000 		.4byte	.LVL94
 4125 196f 971B0000 		.4byte	0x1b97
 4126 1973 84190000 		.4byte	0x1984
 4127 1977 2F       		.uleb128 0x2f
 4128 1978 01       		.uleb128 0x1
 4129 1979 50       		.byte	0x50
 4130 197a 02       		.uleb128 0x2
 4131 197b 74       		.byte	0x74
 4132 197c 0C       		.sleb128 12
 4133 197d 2F       		.uleb128 0x2f
 4134 197e 01       		.uleb128 0x1
 4135 197f 51       		.byte	0x51
 4136 1980 02       		.uleb128 0x2
 4137 1981 74       		.byte	0x74
 4138 1982 00       		.sleb128 0
 4139 1983 00       		.byte	0
 4140 1984 2E       		.uleb128 0x2e
 4141 1985 BC000000 		.4byte	.LVL95
 4142 1989 311B0000 		.4byte	0x1b31
 4143 198d 97190000 		.4byte	0x1997
 4144 1991 2F       		.uleb128 0x2f
 4145 1992 01       		.uleb128 0x1
 4146 1993 51       		.byte	0x51
 4147 1994 01       		.uleb128 0x1
 4148 1995 33       		.byte	0x33
 4149 1996 00       		.byte	0
 4150 1997 3A       		.uleb128 0x3a
 4151 1998 CE000000 		.4byte	.LVL96
 4152 199c 42150000 		.4byte	0x1542
 4153 19a0 2E       		.uleb128 0x2e
 4154 19a1 D8000000 		.4byte	.LVL97
 4155 19a5 971B0000 		.4byte	0x1b97
 4156 19a9 BA190000 		.4byte	0x19ba
 4157 19ad 2F       		.uleb128 0x2f
 4158 19ae 01       		.uleb128 0x1
 4159 19af 50       		.byte	0x50
 4160 19b0 02       		.uleb128 0x2
 4161 19b1 74       		.byte	0x74
 4162 19b2 0C       		.sleb128 12
 4163 19b3 2F       		.uleb128 0x2f
 4164 19b4 01       		.uleb128 0x1
 4165 19b5 51       		.byte	0x51
 4166 19b6 02       		.uleb128 0x2
 4167 19b7 74       		.byte	0x74
 4168 19b8 00       		.sleb128 0
 4169 19b9 00       		.byte	0
 4170 19ba 3A       		.uleb128 0x3a
 4171 19bb E2000000 		.4byte	.LVL98
 4172 19bf A21B0000 		.4byte	0x1ba2
ARM GAS  C:\Users\Brian\AppData\Local\Temp\ccBwD5Lv.s 			page 96


 4173 19c3 3A       		.uleb128 0x3a
 4174 19c4 E8000000 		.4byte	.LVL99
 4175 19c8 AD1B0000 		.4byte	0x1bad
 4176 19cc 00       		.byte	0
 4177 19cd 0E       		.uleb128 0xe
 4178 19ce 04       		.byte	0x4
 4179 19cf 00120000 		.4byte	0x1200
 4180 19d3 3E       		.uleb128 0x3e
 4181 19d4 AC050000 		.4byte	.LASF386
 4182 19d8 0E       		.byte	0xe
 4183 19d9 FD02     		.2byte	0x2fd
 4184 19db F4080000 		.4byte	0x8f4
 4185 19df 3E       		.uleb128 0x3e
 4186 19e0 27180000 		.4byte	.LASF387
 4187 19e4 12       		.byte	0x12
 4188 19e5 1B02     		.2byte	0x21b
 4189 19e7 72110000 		.4byte	0x1172
 4190 19eb 3E       		.uleb128 0x3e
 4191 19ec 73100000 		.4byte	.LASF388
 4192 19f0 12       		.byte	0x12
 4193 19f1 2202     		.2byte	0x222
 4194 19f3 A2110000 		.4byte	0x11a2
 4195 19f7 07       		.uleb128 0x7
 4196 19f8 9E100000 		.4byte	0x109e
 4197 19fc 071A0000 		.4byte	0x1a07
 4198 1a00 08       		.uleb128 0x8
 4199 1a01 AD000000 		.4byte	0xad
 4200 1a05 00       		.byte	0
 4201 1a06 00       		.byte	0
 4202 1a07 3E       		.uleb128 0x3e
 4203 1a08 4B020000 		.4byte	.LASF389
 4204 1a0c 12       		.byte	0x12
 4205 1a0d 2C02     		.2byte	0x22c
 4206 1a0f F7190000 		.4byte	0x19f7
 4207 1a13 07       		.uleb128 0x7
 4208 1a14 EA110000 		.4byte	0x11ea
 4209 1a18 231A0000 		.4byte	0x1a23
 4210 1a1c 08       		.uleb128 0x8
 4211 1a1d AD000000 		.4byte	0xad
 4212 1a21 00       		.byte	0
 4213 1a22 00       		.byte	0
 4214 1a23 3E       		.uleb128 0x3e
 4215 1a24 DE030000 		.4byte	.LASF390
 4216 1a28 12       		.byte	0x12
 4217 1a29 2D02     		.2byte	0x22d
 4218 1a2b 131A0000 		.4byte	0x1a13
 4219 1a2f 3E       		.uleb128 0x3e
 4220 1a30 6C200000 		.4byte	.LASF391
 4221 1a34 12       		.byte	0x12
 4222 1a35 5202     		.2byte	0x252
 4223 1a37 8C000000 		.4byte	0x8c
 4224 1a3b 3F       		.uleb128 0x3f
 4225 1a3c 901D0000 		.4byte	.LASF392
 4226 1a40 16       		.byte	0x16
 4227 1a41 87       		.byte	0x87
 4228 1a42 A9030000 		.4byte	0x3a9
 4229 1a46 3E       		.uleb128 0x3e
ARM GAS  C:\Users\Brian\AppData\Local\Temp\ccBwD5Lv.s 			page 97


 4230 1a47 F11C0000 		.4byte	.LASF393
 4231 1a4b 14       		.byte	0x14
 4232 1a4c 6001     		.2byte	0x160
 4233 1a4e A2000000 		.4byte	0xa2
 4234 1a52 07       		.uleb128 0x7
 4235 1a53 621A0000 		.4byte	0x1a62
 4236 1a57 621A0000 		.4byte	0x1a62
 4237 1a5b 08       		.uleb128 0x8
 4238 1a5c AD000000 		.4byte	0xad
 4239 1a60 00       		.byte	0
 4240 1a61 00       		.byte	0
 4241 1a62 06       		.uleb128 0x6
 4242 1a63 5B120000 		.4byte	0x125b
 4243 1a67 3E       		.uleb128 0x3e
 4244 1a68 42170000 		.4byte	.LASF394
 4245 1a6c 14       		.byte	0x14
 4246 1a6d 6401     		.2byte	0x164
 4247 1a6f 731A0000 		.4byte	0x1a73
 4248 1a73 06       		.uleb128 0x6
 4249 1a74 521A0000 		.4byte	0x1a52
 4250 1a78 40       		.uleb128 0x40
 4251 1a79 E2110000 		.4byte	.LASF395
 4252 1a7d 17       		.byte	0x17
 4253 1a7e 14       		.byte	0x14
 4254 1a7f D4020000 		.4byte	0x2d4
 4255 1a83 05       		.uleb128 0x5
 4256 1a84 03       		.byte	0x3
 4257 1a85 00000000 		.4byte	rdyToRecvMsg
 4258 1a89 40       		.uleb128 0x40
 4259 1a8a CF110000 		.4byte	.LASF396
 4260 1a8e 17       		.byte	0x17
 4261 1a8f 15       		.byte	0x15
 4262 1a90 BD120000 		.4byte	0x12bd
 4263 1a94 05       		.uleb128 0x5
 4264 1a95 03       		.byte	0x3
 4265 1a96 00000000 		.4byte	ipcMsgForCM4
 4266 1a9a 07       		.uleb128 0x7
 4267 1a9b 97000000 		.4byte	0x97
 4268 1a9f B01A0000 		.4byte	0x1ab0
 4269 1aa3 08       		.uleb128 0x8
 4270 1aa4 AD000000 		.4byte	0xad
 4271 1aa8 09       		.byte	0x9
 4272 1aa9 08       		.uleb128 0x8
 4273 1aaa AD000000 		.4byte	0xad
 4274 1aae 9F       		.byte	0x9f
 4275 1aaf 00       		.byte	0
 4276 1ab0 40       		.uleb128 0x40
 4277 1ab1 FF020000 		.4byte	.LASF397
 4278 1ab5 18       		.byte	0x18
 4279 1ab6 1F       		.byte	0x1f
 4280 1ab7 9A1A0000 		.4byte	0x1a9a
 4281 1abb 05       		.uleb128 0x5
 4282 1abc 03       		.byte	0x3
 4283 1abd 00000000 		.4byte	events
 4284 1ac1 40       		.uleb128 0x40
 4285 1ac2 0C040000 		.4byte	.LASF398
 4286 1ac6 18       		.byte	0x18
ARM GAS  C:\Users\Brian\AppData\Local\Temp\ccBwD5Lv.s 			page 98


 4287 1ac7 20       		.byte	0x20
 4288 1ac8 8C000000 		.4byte	0x8c
 4289 1acc 05       		.uleb128 0x5
 4290 1acd 03       		.byte	0x3
 4291 1ace 00000000 		.4byte	num_events
 4292 1ad2 40       		.uleb128 0x40
 4293 1ad3 18070000 		.4byte	.LASF399
 4294 1ad7 18       		.byte	0x18
 4295 1ad8 21       		.byte	0x21
 4296 1ad9 CE000000 		.4byte	0xce
 4297 1add 05       		.uleb128 0x5
 4298 1ade 03       		.byte	0x3
 4299 1adf 00000000 		.4byte	upper_thresh
 4300 1ae3 40       		.uleb128 0x40
 4301 1ae4 C51C0000 		.4byte	.LASF400
 4302 1ae8 18       		.byte	0x18
 4303 1ae9 22       		.byte	0x22
 4304 1aea CE000000 		.4byte	0xce
 4305 1aee 05       		.uleb128 0x5
 4306 1aef 03       		.byte	0x3
 4307 1af0 00000000 		.4byte	lower_thresh
 4308 1af4 40       		.uleb128 0x40
 4309 1af5 87170000 		.4byte	.LASF401
 4310 1af9 18       		.byte	0x18
 4311 1afa 24       		.byte	0x24
 4312 1afb 051B0000 		.4byte	0x1b05
 4313 1aff 05       		.uleb128 0x5
 4314 1b00 03       		.byte	0x3
 4315 1b01 00000000 		.4byte	flashPtrs
 4316 1b05 0E       		.uleb128 0xe
 4317 1b06 04       		.byte	0x4
 4318 1b07 6F100000 		.4byte	0x106f
 4319 1b0b 41       		.uleb128 0x41
 4320 1b0c B0170000 		.4byte	.LASF402
 4321 1b10 B0170000 		.4byte	.LASF402
 4322 1b14 19       		.byte	0x19
 4323 1b15 D5       		.byte	0xd5
 4324 1b16 42       		.uleb128 0x42
 4325 1b17 D30C0000 		.4byte	.LASF403
 4326 1b1b D30C0000 		.4byte	.LASF403
 4327 1b1f 09       		.byte	0x9
 4328 1b20 8D01     		.2byte	0x18d
 4329 1b22 43       		.uleb128 0x43
 4330 1b23 1D100000 		.4byte	.LASF422
 4331 1b27 B00F0000 		.4byte	.LASF423
 4332 1b2b 1F       		.byte	0x1f
 4333 1b2c 00       		.byte	0
 4334 1b2d 1D100000 		.4byte	.LASF422
 4335 1b31 41       		.uleb128 0x41
 4336 1b32 221F0000 		.4byte	.LASF404
 4337 1b36 221F0000 		.4byte	.LASF404
 4338 1b3a 17       		.byte	0x17
 4339 1b3b 1A       		.byte	0x1a
 4340 1b3c 42       		.uleb128 0x42
 4341 1b3d E50C0000 		.4byte	.LASF405
 4342 1b41 E50C0000 		.4byte	.LASF405
 4343 1b45 1A       		.byte	0x1a
ARM GAS  C:\Users\Brian\AppData\Local\Temp\ccBwD5Lv.s 			page 99


 4344 1b46 FE01     		.2byte	0x1fe
 4345 1b48 41       		.uleb128 0x41
 4346 1b49 91080000 		.4byte	.LASF406
 4347 1b4d 91080000 		.4byte	.LASF406
 4348 1b51 16       		.byte	0x16
 4349 1b52 31       		.byte	0x31
 4350 1b53 41       		.uleb128 0x41
 4351 1b54 01020000 		.4byte	.LASF407
 4352 1b58 01020000 		.4byte	.LASF407
 4353 1b5c 1B       		.byte	0x1b
 4354 1b5d B6       		.byte	0xb6
 4355 1b5e 41       		.uleb128 0x41
 4356 1b5f 8A010000 		.4byte	.LASF408
 4357 1b63 8A010000 		.4byte	.LASF408
 4358 1b67 1C       		.byte	0x1c
 4359 1b68 FE       		.byte	0xfe
 4360 1b69 41       		.uleb128 0x41
 4361 1b6a 76130000 		.4byte	.LASF409
 4362 1b6e 76130000 		.4byte	.LASF409
 4363 1b72 1D       		.byte	0x1d
 4364 1b73 24       		.byte	0x24
 4365 1b74 42       		.uleb128 0x42
 4366 1b75 F10F0000 		.4byte	.LASF410
 4367 1b79 F10F0000 		.4byte	.LASF410
 4368 1b7d 0F       		.byte	0xf
 4369 1b7e B107     		.2byte	0x7b1
 4370 1b80 42       		.uleb128 0x42
 4371 1b81 BB1B0000 		.4byte	.LASF411
 4372 1b85 BB1B0000 		.4byte	.LASF411
 4373 1b89 12       		.byte	0x12
 4374 1b8a F901     		.2byte	0x1f9
 4375 1b8c 41       		.uleb128 0x41
 4376 1b8d BC100000 		.4byte	.LASF412
 4377 1b91 BC100000 		.4byte	.LASF412
 4378 1b95 17       		.byte	0x17
 4379 1b96 1C       		.byte	0x1c
 4380 1b97 41       		.uleb128 0x41
 4381 1b98 06030000 		.4byte	.LASF413
 4382 1b9c 06030000 		.4byte	.LASF413
 4383 1ba0 19       		.byte	0x19
 4384 1ba1 D3       		.byte	0xd3
 4385 1ba2 41       		.uleb128 0x41
 4386 1ba3 4E080000 		.4byte	.LASF414
 4387 1ba7 4E080000 		.4byte	.LASF414
 4388 1bab 17       		.byte	0x17
 4389 1bac 1B       		.byte	0x1b
 4390 1bad 42       		.uleb128 0x42
 4391 1bae 9A170000 		.4byte	.LASF415
 4392 1bb2 9A170000 		.4byte	.LASF415
 4393 1bb6 1E       		.byte	0x1e
 4394 1bb7 5F01     		.2byte	0x15f
 4395 1bb9 00       		.byte	0
 4396              		.section	.debug_abbrev,"",%progbits
 4397              	.Ldebug_abbrev0:
 4398 0000 01       		.uleb128 0x1
 4399 0001 11       		.uleb128 0x11
 4400 0002 01       		.byte	0x1
ARM GAS  C:\Users\Brian\AppData\Local\Temp\ccBwD5Lv.s 			page 100


 4401 0003 25       		.uleb128 0x25
 4402 0004 0E       		.uleb128 0xe
 4403 0005 13       		.uleb128 0x13
 4404 0006 0B       		.uleb128 0xb
 4405 0007 03       		.uleb128 0x3
 4406 0008 0E       		.uleb128 0xe
 4407 0009 1B       		.uleb128 0x1b
 4408 000a 0E       		.uleb128 0xe
 4409 000b 55       		.uleb128 0x55
 4410 000c 17       		.uleb128 0x17
 4411 000d 11       		.uleb128 0x11
 4412 000e 01       		.uleb128 0x1
 4413 000f 10       		.uleb128 0x10
 4414 0010 17       		.uleb128 0x17
 4415 0011 00       		.byte	0
 4416 0012 00       		.byte	0
 4417 0013 02       		.uleb128 0x2
 4418 0014 24       		.uleb128 0x24
 4419 0015 00       		.byte	0
 4420 0016 0B       		.uleb128 0xb
 4421 0017 0B       		.uleb128 0xb
 4422 0018 3E       		.uleb128 0x3e
 4423 0019 0B       		.uleb128 0xb
 4424 001a 03       		.uleb128 0x3
 4425 001b 0E       		.uleb128 0xe
 4426 001c 00       		.byte	0
 4427 001d 00       		.byte	0
 4428 001e 03       		.uleb128 0x3
 4429 001f 16       		.uleb128 0x16
 4430 0020 00       		.byte	0
 4431 0021 03       		.uleb128 0x3
 4432 0022 0E       		.uleb128 0xe
 4433 0023 3A       		.uleb128 0x3a
 4434 0024 0B       		.uleb128 0xb
 4435 0025 3B       		.uleb128 0x3b
 4436 0026 0B       		.uleb128 0xb
 4437 0027 49       		.uleb128 0x49
 4438 0028 13       		.uleb128 0x13
 4439 0029 00       		.byte	0
 4440 002a 00       		.byte	0
 4441 002b 04       		.uleb128 0x4
 4442 002c 24       		.uleb128 0x24
 4443 002d 00       		.byte	0
 4444 002e 0B       		.uleb128 0xb
 4445 002f 0B       		.uleb128 0xb
 4446 0030 3E       		.uleb128 0x3e
 4447 0031 0B       		.uleb128 0xb
 4448 0032 03       		.uleb128 0x3
 4449 0033 08       		.uleb128 0x8
 4450 0034 00       		.byte	0
 4451 0035 00       		.byte	0
 4452 0036 05       		.uleb128 0x5
 4453 0037 35       		.uleb128 0x35
 4454 0038 00       		.byte	0
 4455 0039 49       		.uleb128 0x49
 4456 003a 13       		.uleb128 0x13
 4457 003b 00       		.byte	0
ARM GAS  C:\Users\Brian\AppData\Local\Temp\ccBwD5Lv.s 			page 101


 4458 003c 00       		.byte	0
 4459 003d 06       		.uleb128 0x6
 4460 003e 26       		.uleb128 0x26
 4461 003f 00       		.byte	0
 4462 0040 49       		.uleb128 0x49
 4463 0041 13       		.uleb128 0x13
 4464 0042 00       		.byte	0
 4465 0043 00       		.byte	0
 4466 0044 07       		.uleb128 0x7
 4467 0045 01       		.uleb128 0x1
 4468 0046 01       		.byte	0x1
 4469 0047 49       		.uleb128 0x49
 4470 0048 13       		.uleb128 0x13
 4471 0049 01       		.uleb128 0x1
 4472 004a 13       		.uleb128 0x13
 4473 004b 00       		.byte	0
 4474 004c 00       		.byte	0
 4475 004d 08       		.uleb128 0x8
 4476 004e 21       		.uleb128 0x21
 4477 004f 00       		.byte	0
 4478 0050 49       		.uleb128 0x49
 4479 0051 13       		.uleb128 0x13
 4480 0052 2F       		.uleb128 0x2f
 4481 0053 0B       		.uleb128 0xb
 4482 0054 00       		.byte	0
 4483 0055 00       		.byte	0
 4484 0056 09       		.uleb128 0x9
 4485 0057 13       		.uleb128 0x13
 4486 0058 01       		.byte	0x1
 4487 0059 0B       		.uleb128 0xb
 4488 005a 0B       		.uleb128 0xb
 4489 005b 3A       		.uleb128 0x3a
 4490 005c 0B       		.uleb128 0xb
 4491 005d 3B       		.uleb128 0x3b
 4492 005e 0B       		.uleb128 0xb
 4493 005f 01       		.uleb128 0x1
 4494 0060 13       		.uleb128 0x13
 4495 0061 00       		.byte	0
 4496 0062 00       		.byte	0
 4497 0063 0A       		.uleb128 0xa
 4498 0064 0D       		.uleb128 0xd
 4499 0065 00       		.byte	0
 4500 0066 03       		.uleb128 0x3
 4501 0067 08       		.uleb128 0x8
 4502 0068 3A       		.uleb128 0x3a
 4503 0069 0B       		.uleb128 0xb
 4504 006a 3B       		.uleb128 0x3b
 4505 006b 0B       		.uleb128 0xb
 4506 006c 49       		.uleb128 0x49
 4507 006d 13       		.uleb128 0x13
 4508 006e 38       		.uleb128 0x38
 4509 006f 0B       		.uleb128 0xb
 4510 0070 00       		.byte	0
 4511 0071 00       		.byte	0
 4512 0072 0B       		.uleb128 0xb
 4513 0073 0D       		.uleb128 0xd
 4514 0074 00       		.byte	0
ARM GAS  C:\Users\Brian\AppData\Local\Temp\ccBwD5Lv.s 			page 102


 4515 0075 03       		.uleb128 0x3
 4516 0076 0E       		.uleb128 0xe
 4517 0077 3A       		.uleb128 0x3a
 4518 0078 0B       		.uleb128 0xb
 4519 0079 3B       		.uleb128 0x3b
 4520 007a 0B       		.uleb128 0xb
 4521 007b 49       		.uleb128 0x49
 4522 007c 13       		.uleb128 0x13
 4523 007d 38       		.uleb128 0x38
 4524 007e 0B       		.uleb128 0xb
 4525 007f 00       		.byte	0
 4526 0080 00       		.byte	0
 4527 0081 0C       		.uleb128 0xc
 4528 0082 13       		.uleb128 0x13
 4529 0083 01       		.byte	0x1
 4530 0084 0B       		.uleb128 0xb
 4531 0085 05       		.uleb128 0x5
 4532 0086 3A       		.uleb128 0x3a
 4533 0087 0B       		.uleb128 0xb
 4534 0088 3B       		.uleb128 0x3b
 4535 0089 0B       		.uleb128 0xb
 4536 008a 01       		.uleb128 0x1
 4537 008b 13       		.uleb128 0x13
 4538 008c 00       		.byte	0
 4539 008d 00       		.byte	0
 4540 008e 0D       		.uleb128 0xd
 4541 008f 0D       		.uleb128 0xd
 4542 0090 00       		.byte	0
 4543 0091 03       		.uleb128 0x3
 4544 0092 0E       		.uleb128 0xe
 4545 0093 3A       		.uleb128 0x3a
 4546 0094 0B       		.uleb128 0xb
 4547 0095 3B       		.uleb128 0x3b
 4548 0096 0B       		.uleb128 0xb
 4549 0097 49       		.uleb128 0x49
 4550 0098 13       		.uleb128 0x13
 4551 0099 38       		.uleb128 0x38
 4552 009a 05       		.uleb128 0x5
 4553 009b 00       		.byte	0
 4554 009c 00       		.byte	0
 4555 009d 0E       		.uleb128 0xe
 4556 009e 0F       		.uleb128 0xf
 4557 009f 00       		.byte	0
 4558 00a0 0B       		.uleb128 0xb
 4559 00a1 0B       		.uleb128 0xb
 4560 00a2 49       		.uleb128 0x49
 4561 00a3 13       		.uleb128 0x13
 4562 00a4 00       		.byte	0
 4563 00a5 00       		.byte	0
 4564 00a6 0F       		.uleb128 0xf
 4565 00a7 15       		.uleb128 0x15
 4566 00a8 00       		.byte	0
 4567 00a9 27       		.uleb128 0x27
 4568 00aa 19       		.uleb128 0x19
 4569 00ab 00       		.byte	0
 4570 00ac 00       		.byte	0
 4571 00ad 10       		.uleb128 0x10
ARM GAS  C:\Users\Brian\AppData\Local\Temp\ccBwD5Lv.s 			page 103


 4572 00ae 16       		.uleb128 0x16
 4573 00af 00       		.byte	0
 4574 00b0 03       		.uleb128 0x3
 4575 00b1 0E       		.uleb128 0xe
 4576 00b2 3A       		.uleb128 0x3a
 4577 00b3 0B       		.uleb128 0xb
 4578 00b4 3B       		.uleb128 0x3b
 4579 00b5 05       		.uleb128 0x5
 4580 00b6 49       		.uleb128 0x49
 4581 00b7 13       		.uleb128 0x13
 4582 00b8 00       		.byte	0
 4583 00b9 00       		.byte	0
 4584 00ba 11       		.uleb128 0x11
 4585 00bb 0F       		.uleb128 0xf
 4586 00bc 00       		.byte	0
 4587 00bd 0B       		.uleb128 0xb
 4588 00be 0B       		.uleb128 0xb
 4589 00bf 00       		.byte	0
 4590 00c0 00       		.byte	0
 4591 00c1 12       		.uleb128 0x12
 4592 00c2 15       		.uleb128 0x15
 4593 00c3 01       		.byte	0x1
 4594 00c4 27       		.uleb128 0x27
 4595 00c5 19       		.uleb128 0x19
 4596 00c6 01       		.uleb128 0x1
 4597 00c7 13       		.uleb128 0x13
 4598 00c8 00       		.byte	0
 4599 00c9 00       		.byte	0
 4600 00ca 13       		.uleb128 0x13
 4601 00cb 05       		.uleb128 0x5
 4602 00cc 00       		.byte	0
 4603 00cd 49       		.uleb128 0x49
 4604 00ce 13       		.uleb128 0x13
 4605 00cf 00       		.byte	0
 4606 00d0 00       		.byte	0
 4607 00d1 14       		.uleb128 0x14
 4608 00d2 13       		.uleb128 0x13
 4609 00d3 01       		.byte	0x1
 4610 00d4 03       		.uleb128 0x3
 4611 00d5 0E       		.uleb128 0xe
 4612 00d6 0B       		.uleb128 0xb
 4613 00d7 0B       		.uleb128 0xb
 4614 00d8 3A       		.uleb128 0x3a
 4615 00d9 0B       		.uleb128 0xb
 4616 00da 3B       		.uleb128 0x3b
 4617 00db 05       		.uleb128 0x5
 4618 00dc 01       		.uleb128 0x1
 4619 00dd 13       		.uleb128 0x13
 4620 00de 00       		.byte	0
 4621 00df 00       		.byte	0
 4622 00e0 15       		.uleb128 0x15
 4623 00e1 0D       		.uleb128 0xd
 4624 00e2 00       		.byte	0
 4625 00e3 03       		.uleb128 0x3
 4626 00e4 0E       		.uleb128 0xe
 4627 00e5 3A       		.uleb128 0x3a
 4628 00e6 0B       		.uleb128 0xb
ARM GAS  C:\Users\Brian\AppData\Local\Temp\ccBwD5Lv.s 			page 104


 4629 00e7 3B       		.uleb128 0x3b
 4630 00e8 05       		.uleb128 0x5
 4631 00e9 49       		.uleb128 0x49
 4632 00ea 13       		.uleb128 0x13
 4633 00eb 38       		.uleb128 0x38
 4634 00ec 0B       		.uleb128 0xb
 4635 00ed 00       		.byte	0
 4636 00ee 00       		.byte	0
 4637 00ef 16       		.uleb128 0x16
 4638 00f0 04       		.uleb128 0x4
 4639 00f1 01       		.byte	0x1
 4640 00f2 03       		.uleb128 0x3
 4641 00f3 0E       		.uleb128 0xe
 4642 00f4 0B       		.uleb128 0xb
 4643 00f5 0B       		.uleb128 0xb
 4644 00f6 49       		.uleb128 0x49
 4645 00f7 13       		.uleb128 0x13
 4646 00f8 3A       		.uleb128 0x3a
 4647 00f9 0B       		.uleb128 0xb
 4648 00fa 3B       		.uleb128 0x3b
 4649 00fb 05       		.uleb128 0x5
 4650 00fc 01       		.uleb128 0x1
 4651 00fd 13       		.uleb128 0x13
 4652 00fe 00       		.byte	0
 4653 00ff 00       		.byte	0
 4654 0100 17       		.uleb128 0x17
 4655 0101 28       		.uleb128 0x28
 4656 0102 00       		.byte	0
 4657 0103 03       		.uleb128 0x3
 4658 0104 0E       		.uleb128 0xe
 4659 0105 1C       		.uleb128 0x1c
 4660 0106 0B       		.uleb128 0xb
 4661 0107 00       		.byte	0
 4662 0108 00       		.byte	0
 4663 0109 18       		.uleb128 0x18
 4664 010a 28       		.uleb128 0x28
 4665 010b 00       		.byte	0
 4666 010c 03       		.uleb128 0x3
 4667 010d 0E       		.uleb128 0xe
 4668 010e 1C       		.uleb128 0x1c
 4669 010f 06       		.uleb128 0x6
 4670 0110 00       		.byte	0
 4671 0111 00       		.byte	0
 4672 0112 19       		.uleb128 0x19
 4673 0113 04       		.uleb128 0x4
 4674 0114 01       		.byte	0x1
 4675 0115 0B       		.uleb128 0xb
 4676 0116 0B       		.uleb128 0xb
 4677 0117 49       		.uleb128 0x49
 4678 0118 13       		.uleb128 0x13
 4679 0119 3A       		.uleb128 0x3a
 4680 011a 0B       		.uleb128 0xb
 4681 011b 3B       		.uleb128 0x3b
 4682 011c 05       		.uleb128 0x5
 4683 011d 01       		.uleb128 0x1
 4684 011e 13       		.uleb128 0x13
 4685 011f 00       		.byte	0
ARM GAS  C:\Users\Brian\AppData\Local\Temp\ccBwD5Lv.s 			page 105


 4686 0120 00       		.byte	0
 4687 0121 1A       		.uleb128 0x1a
 4688 0122 13       		.uleb128 0x13
 4689 0123 01       		.byte	0x1
 4690 0124 0B       		.uleb128 0xb
 4691 0125 0B       		.uleb128 0xb
 4692 0126 3A       		.uleb128 0x3a
 4693 0127 0B       		.uleb128 0xb
 4694 0128 3B       		.uleb128 0x3b
 4695 0129 05       		.uleb128 0x5
 4696 012a 01       		.uleb128 0x1
 4697 012b 13       		.uleb128 0x13
 4698 012c 00       		.byte	0
 4699 012d 00       		.byte	0
 4700 012e 1B       		.uleb128 0x1b
 4701 012f 17       		.uleb128 0x17
 4702 0130 01       		.byte	0x1
 4703 0131 0B       		.uleb128 0xb
 4704 0132 0B       		.uleb128 0xb
 4705 0133 3A       		.uleb128 0x3a
 4706 0134 0B       		.uleb128 0xb
 4707 0135 3B       		.uleb128 0x3b
 4708 0136 0B       		.uleb128 0xb
 4709 0137 01       		.uleb128 0x1
 4710 0138 13       		.uleb128 0x13
 4711 0139 00       		.byte	0
 4712 013a 00       		.byte	0
 4713 013b 1C       		.uleb128 0x1c
 4714 013c 0D       		.uleb128 0xd
 4715 013d 00       		.byte	0
 4716 013e 03       		.uleb128 0x3
 4717 013f 0E       		.uleb128 0xe
 4718 0140 3A       		.uleb128 0x3a
 4719 0141 0B       		.uleb128 0xb
 4720 0142 3B       		.uleb128 0x3b
 4721 0143 0B       		.uleb128 0xb
 4722 0144 49       		.uleb128 0x49
 4723 0145 13       		.uleb128 0x13
 4724 0146 00       		.byte	0
 4725 0147 00       		.byte	0
 4726 0148 1D       		.uleb128 0x1d
 4727 0149 13       		.uleb128 0x13
 4728 014a 01       		.byte	0x1
 4729 014b 03       		.uleb128 0x3
 4730 014c 0E       		.uleb128 0xe
 4731 014d 0B       		.uleb128 0xb
 4732 014e 0B       		.uleb128 0xb
 4733 014f 3A       		.uleb128 0x3a
 4734 0150 0B       		.uleb128 0xb
 4735 0151 3B       		.uleb128 0x3b
 4736 0152 0B       		.uleb128 0xb
 4737 0153 01       		.uleb128 0x1
 4738 0154 13       		.uleb128 0x13
 4739 0155 00       		.byte	0
 4740 0156 00       		.byte	0
 4741 0157 1E       		.uleb128 0x1e
 4742 0158 13       		.uleb128 0x13
ARM GAS  C:\Users\Brian\AppData\Local\Temp\ccBwD5Lv.s 			page 106


 4743 0159 01       		.byte	0x1
 4744 015a 03       		.uleb128 0x3
 4745 015b 0E       		.uleb128 0xe
 4746 015c 0B       		.uleb128 0xb
 4747 015d 05       		.uleb128 0x5
 4748 015e 3A       		.uleb128 0x3a
 4749 015f 0B       		.uleb128 0xb
 4750 0160 3B       		.uleb128 0x3b
 4751 0161 0B       		.uleb128 0xb
 4752 0162 01       		.uleb128 0x1
 4753 0163 13       		.uleb128 0x13
 4754 0164 00       		.byte	0
 4755 0165 00       		.byte	0
 4756 0166 1F       		.uleb128 0x1f
 4757 0167 15       		.uleb128 0x15
 4758 0168 01       		.byte	0x1
 4759 0169 27       		.uleb128 0x27
 4760 016a 19       		.uleb128 0x19
 4761 016b 49       		.uleb128 0x49
 4762 016c 13       		.uleb128 0x13
 4763 016d 01       		.uleb128 0x1
 4764 016e 13       		.uleb128 0x13
 4765 016f 00       		.byte	0
 4766 0170 00       		.byte	0
 4767 0171 20       		.uleb128 0x20
 4768 0172 13       		.uleb128 0x13
 4769 0173 01       		.byte	0x1
 4770 0174 03       		.uleb128 0x3
 4771 0175 0E       		.uleb128 0xe
 4772 0176 0B       		.uleb128 0xb
 4773 0177 05       		.uleb128 0x5
 4774 0178 3A       		.uleb128 0x3a
 4775 0179 0B       		.uleb128 0xb
 4776 017a 3B       		.uleb128 0x3b
 4777 017b 05       		.uleb128 0x5
 4778 017c 01       		.uleb128 0x1
 4779 017d 13       		.uleb128 0x13
 4780 017e 00       		.byte	0
 4781 017f 00       		.byte	0
 4782 0180 21       		.uleb128 0x21
 4783 0181 0D       		.uleb128 0xd
 4784 0182 00       		.byte	0
 4785 0183 03       		.uleb128 0x3
 4786 0184 0E       		.uleb128 0xe
 4787 0185 3A       		.uleb128 0x3a
 4788 0186 0B       		.uleb128 0xb
 4789 0187 3B       		.uleb128 0x3b
 4790 0188 05       		.uleb128 0x5
 4791 0189 49       		.uleb128 0x49
 4792 018a 13       		.uleb128 0x13
 4793 018b 38       		.uleb128 0x38
 4794 018c 05       		.uleb128 0x5
 4795 018d 00       		.byte	0
 4796 018e 00       		.byte	0
 4797 018f 22       		.uleb128 0x22
 4798 0190 17       		.uleb128 0x17
 4799 0191 01       		.byte	0x1
ARM GAS  C:\Users\Brian\AppData\Local\Temp\ccBwD5Lv.s 			page 107


 4800 0192 0B       		.uleb128 0xb
 4801 0193 0B       		.uleb128 0xb
 4802 0194 3A       		.uleb128 0x3a
 4803 0195 0B       		.uleb128 0xb
 4804 0196 3B       		.uleb128 0x3b
 4805 0197 05       		.uleb128 0x5
 4806 0198 01       		.uleb128 0x1
 4807 0199 13       		.uleb128 0x13
 4808 019a 00       		.byte	0
 4809 019b 00       		.byte	0
 4810 019c 23       		.uleb128 0x23
 4811 019d 0D       		.uleb128 0xd
 4812 019e 00       		.byte	0
 4813 019f 03       		.uleb128 0x3
 4814 01a0 0E       		.uleb128 0xe
 4815 01a1 3A       		.uleb128 0x3a
 4816 01a2 0B       		.uleb128 0xb
 4817 01a3 3B       		.uleb128 0x3b
 4818 01a4 05       		.uleb128 0x5
 4819 01a5 49       		.uleb128 0x49
 4820 01a6 13       		.uleb128 0x13
 4821 01a7 00       		.byte	0
 4822 01a8 00       		.byte	0
 4823 01a9 24       		.uleb128 0x24
 4824 01aa 28       		.uleb128 0x28
 4825 01ab 00       		.byte	0
 4826 01ac 03       		.uleb128 0x3
 4827 01ad 0E       		.uleb128 0xe
 4828 01ae 1C       		.uleb128 0x1c
 4829 01af 05       		.uleb128 0x5
 4830 01b0 00       		.byte	0
 4831 01b1 00       		.byte	0
 4832 01b2 25       		.uleb128 0x25
 4833 01b3 0D       		.uleb128 0xd
 4834 01b4 00       		.byte	0
 4835 01b5 03       		.uleb128 0x3
 4836 01b6 08       		.uleb128 0x8
 4837 01b7 3A       		.uleb128 0x3a
 4838 01b8 0B       		.uleb128 0xb
 4839 01b9 3B       		.uleb128 0x3b
 4840 01ba 05       		.uleb128 0x5
 4841 01bb 49       		.uleb128 0x49
 4842 01bc 13       		.uleb128 0x13
 4843 01bd 38       		.uleb128 0x38
 4844 01be 0B       		.uleb128 0xb
 4845 01bf 00       		.byte	0
 4846 01c0 00       		.byte	0
 4847 01c1 26       		.uleb128 0x26
 4848 01c2 04       		.uleb128 0x4
 4849 01c3 01       		.byte	0x1
 4850 01c4 0B       		.uleb128 0xb
 4851 01c5 0B       		.uleb128 0xb
 4852 01c6 49       		.uleb128 0x49
 4853 01c7 13       		.uleb128 0x13
 4854 01c8 3A       		.uleb128 0x3a
 4855 01c9 0B       		.uleb128 0xb
 4856 01ca 3B       		.uleb128 0x3b
ARM GAS  C:\Users\Brian\AppData\Local\Temp\ccBwD5Lv.s 			page 108


 4857 01cb 0B       		.uleb128 0xb
 4858 01cc 01       		.uleb128 0x1
 4859 01cd 13       		.uleb128 0x13
 4860 01ce 00       		.byte	0
 4861 01cf 00       		.byte	0
 4862 01d0 27       		.uleb128 0x27
 4863 01d1 21       		.uleb128 0x21
 4864 01d2 00       		.byte	0
 4865 01d3 49       		.uleb128 0x49
 4866 01d4 13       		.uleb128 0x13
 4867 01d5 2F       		.uleb128 0x2f
 4868 01d6 05       		.uleb128 0x5
 4869 01d7 00       		.byte	0
 4870 01d8 00       		.byte	0
 4871 01d9 28       		.uleb128 0x28
 4872 01da 2E       		.uleb128 0x2e
 4873 01db 00       		.byte	0
 4874 01dc 03       		.uleb128 0x3
 4875 01dd 0E       		.uleb128 0xe
 4876 01de 3A       		.uleb128 0x3a
 4877 01df 0B       		.uleb128 0xb
 4878 01e0 3B       		.uleb128 0x3b
 4879 01e1 0B       		.uleb128 0xb
 4880 01e2 27       		.uleb128 0x27
 4881 01e3 19       		.uleb128 0x19
 4882 01e4 20       		.uleb128 0x20
 4883 01e5 0B       		.uleb128 0xb
 4884 01e6 00       		.byte	0
 4885 01e7 00       		.byte	0
 4886 01e8 29       		.uleb128 0x29
 4887 01e9 2E       		.uleb128 0x2e
 4888 01ea 01       		.byte	0x1
 4889 01eb 03       		.uleb128 0x3
 4890 01ec 0E       		.uleb128 0xe
 4891 01ed 3A       		.uleb128 0x3a
 4892 01ee 0B       		.uleb128 0xb
 4893 01ef 3B       		.uleb128 0x3b
 4894 01f0 05       		.uleb128 0x5
 4895 01f1 27       		.uleb128 0x27
 4896 01f2 19       		.uleb128 0x19
 4897 01f3 20       		.uleb128 0x20
 4898 01f4 0B       		.uleb128 0xb
 4899 01f5 01       		.uleb128 0x1
 4900 01f6 13       		.uleb128 0x13
 4901 01f7 00       		.byte	0
 4902 01f8 00       		.byte	0
 4903 01f9 2A       		.uleb128 0x2a
 4904 01fa 05       		.uleb128 0x5
 4905 01fb 00       		.byte	0
 4906 01fc 03       		.uleb128 0x3
 4907 01fd 0E       		.uleb128 0xe
 4908 01fe 3A       		.uleb128 0x3a
 4909 01ff 0B       		.uleb128 0xb
 4910 0200 3B       		.uleb128 0x3b
 4911 0201 05       		.uleb128 0x5
 4912 0202 49       		.uleb128 0x49
 4913 0203 13       		.uleb128 0x13
ARM GAS  C:\Users\Brian\AppData\Local\Temp\ccBwD5Lv.s 			page 109


 4914 0204 00       		.byte	0
 4915 0205 00       		.byte	0
 4916 0206 2B       		.uleb128 0x2b
 4917 0207 2E       		.uleb128 0x2e
 4918 0208 01       		.byte	0x1
 4919 0209 3F       		.uleb128 0x3f
 4920 020a 19       		.uleb128 0x19
 4921 020b 03       		.uleb128 0x3
 4922 020c 0E       		.uleb128 0xe
 4923 020d 3A       		.uleb128 0x3a
 4924 020e 0B       		.uleb128 0xb
 4925 020f 3B       		.uleb128 0x3b
 4926 0210 0B       		.uleb128 0xb
 4927 0211 27       		.uleb128 0x27
 4928 0212 19       		.uleb128 0x19
 4929 0213 11       		.uleb128 0x11
 4930 0214 01       		.uleb128 0x1
 4931 0215 12       		.uleb128 0x12
 4932 0216 06       		.uleb128 0x6
 4933 0217 40       		.uleb128 0x40
 4934 0218 18       		.uleb128 0x18
 4935 0219 9742     		.uleb128 0x2117
 4936 021b 19       		.uleb128 0x19
 4937 021c 01       		.uleb128 0x1
 4938 021d 13       		.uleb128 0x13
 4939 021e 00       		.byte	0
 4940 021f 00       		.byte	0
 4941 0220 2C       		.uleb128 0x2c
 4942 0221 05       		.uleb128 0x5
 4943 0222 00       		.byte	0
 4944 0223 03       		.uleb128 0x3
 4945 0224 0E       		.uleb128 0xe
 4946 0225 3A       		.uleb128 0x3a
 4947 0226 0B       		.uleb128 0xb
 4948 0227 3B       		.uleb128 0x3b
 4949 0228 0B       		.uleb128 0xb
 4950 0229 49       		.uleb128 0x49
 4951 022a 13       		.uleb128 0x13
 4952 022b 02       		.uleb128 0x2
 4953 022c 17       		.uleb128 0x17
 4954 022d 00       		.byte	0
 4955 022e 00       		.byte	0
 4956 022f 2D       		.uleb128 0x2d
 4957 0230 34       		.uleb128 0x34
 4958 0231 00       		.byte	0
 4959 0232 03       		.uleb128 0x3
 4960 0233 0E       		.uleb128 0xe
 4961 0234 3A       		.uleb128 0x3a
 4962 0235 0B       		.uleb128 0xb
 4963 0236 3B       		.uleb128 0x3b
 4964 0237 0B       		.uleb128 0xb
 4965 0238 49       		.uleb128 0x49
 4966 0239 13       		.uleb128 0x13
 4967 023a 02       		.uleb128 0x2
 4968 023b 18       		.uleb128 0x18
 4969 023c 00       		.byte	0
 4970 023d 00       		.byte	0
ARM GAS  C:\Users\Brian\AppData\Local\Temp\ccBwD5Lv.s 			page 110


 4971 023e 2E       		.uleb128 0x2e
 4972 023f 898201   		.uleb128 0x4109
 4973 0242 01       		.byte	0x1
 4974 0243 11       		.uleb128 0x11
 4975 0244 01       		.uleb128 0x1
 4976 0245 31       		.uleb128 0x31
 4977 0246 13       		.uleb128 0x13
 4978 0247 01       		.uleb128 0x1
 4979 0248 13       		.uleb128 0x13
 4980 0249 00       		.byte	0
 4981 024a 00       		.byte	0
 4982 024b 2F       		.uleb128 0x2f
 4983 024c 8A8201   		.uleb128 0x410a
 4984 024f 00       		.byte	0
 4985 0250 02       		.uleb128 0x2
 4986 0251 18       		.uleb128 0x18
 4987 0252 9142     		.uleb128 0x2111
 4988 0254 18       		.uleb128 0x18
 4989 0255 00       		.byte	0
 4990 0256 00       		.byte	0
 4991 0257 30       		.uleb128 0x30
 4992 0258 898201   		.uleb128 0x4109
 4993 025b 01       		.byte	0x1
 4994 025c 11       		.uleb128 0x11
 4995 025d 01       		.uleb128 0x1
 4996 025e 31       		.uleb128 0x31
 4997 025f 13       		.uleb128 0x13
 4998 0260 00       		.byte	0
 4999 0261 00       		.byte	0
 5000 0262 31       		.uleb128 0x31
 5001 0263 2E       		.uleb128 0x2e
 5002 0264 01       		.byte	0x1
 5003 0265 3F       		.uleb128 0x3f
 5004 0266 19       		.uleb128 0x19
 5005 0267 03       		.uleb128 0x3
 5006 0268 0E       		.uleb128 0xe
 5007 0269 3A       		.uleb128 0x3a
 5008 026a 0B       		.uleb128 0xb
 5009 026b 3B       		.uleb128 0x3b
 5010 026c 05       		.uleb128 0x5
 5011 026d 27       		.uleb128 0x27
 5012 026e 19       		.uleb128 0x19
 5013 026f 11       		.uleb128 0x11
 5014 0270 01       		.uleb128 0x1
 5015 0271 12       		.uleb128 0x12
 5016 0272 06       		.uleb128 0x6
 5017 0273 40       		.uleb128 0x40
 5018 0274 18       		.uleb128 0x18
 5019 0275 9742     		.uleb128 0x2117
 5020 0277 19       		.uleb128 0x19
 5021 0278 01       		.uleb128 0x1
 5022 0279 13       		.uleb128 0x13
 5023 027a 00       		.byte	0
 5024 027b 00       		.byte	0
 5025 027c 32       		.uleb128 0x32
 5026 027d 05       		.uleb128 0x5
 5027 027e 00       		.byte	0
ARM GAS  C:\Users\Brian\AppData\Local\Temp\ccBwD5Lv.s 			page 111


 5028 027f 03       		.uleb128 0x3
 5029 0280 0E       		.uleb128 0xe
 5030 0281 3A       		.uleb128 0x3a
 5031 0282 0B       		.uleb128 0xb
 5032 0283 3B       		.uleb128 0x3b
 5033 0284 05       		.uleb128 0x5
 5034 0285 49       		.uleb128 0x49
 5035 0286 13       		.uleb128 0x13
 5036 0287 02       		.uleb128 0x2
 5037 0288 17       		.uleb128 0x17
 5038 0289 00       		.byte	0
 5039 028a 00       		.byte	0
 5040 028b 33       		.uleb128 0x33
 5041 028c 34       		.uleb128 0x34
 5042 028d 00       		.byte	0
 5043 028e 03       		.uleb128 0x3
 5044 028f 0E       		.uleb128 0xe
 5045 0290 3A       		.uleb128 0x3a
 5046 0291 0B       		.uleb128 0xb
 5047 0292 3B       		.uleb128 0x3b
 5048 0293 05       		.uleb128 0x5
 5049 0294 49       		.uleb128 0x49
 5050 0295 13       		.uleb128 0x13
 5051 0296 02       		.uleb128 0x2
 5052 0297 18       		.uleb128 0x18
 5053 0298 00       		.byte	0
 5054 0299 00       		.byte	0
 5055 029a 34       		.uleb128 0x34
 5056 029b 34       		.uleb128 0x34
 5057 029c 00       		.byte	0
 5058 029d 03       		.uleb128 0x3
 5059 029e 0E       		.uleb128 0xe
 5060 029f 3A       		.uleb128 0x3a
 5061 02a0 0B       		.uleb128 0xb
 5062 02a1 3B       		.uleb128 0x3b
 5063 02a2 05       		.uleb128 0x5
 5064 02a3 49       		.uleb128 0x49
 5065 02a4 13       		.uleb128 0x13
 5066 02a5 02       		.uleb128 0x2
 5067 02a6 17       		.uleb128 0x17
 5068 02a7 00       		.byte	0
 5069 02a8 00       		.byte	0
 5070 02a9 35       		.uleb128 0x35
 5071 02aa 0B       		.uleb128 0xb
 5072 02ab 01       		.byte	0x1
 5073 02ac 11       		.uleb128 0x11
 5074 02ad 01       		.uleb128 0x1
 5075 02ae 12       		.uleb128 0x12
 5076 02af 06       		.uleb128 0x6
 5077 02b0 01       		.uleb128 0x1
 5078 02b1 13       		.uleb128 0x13
 5079 02b2 00       		.byte	0
 5080 02b3 00       		.byte	0
 5081 02b4 36       		.uleb128 0x36
 5082 02b5 34       		.uleb128 0x34
 5083 02b6 00       		.byte	0
 5084 02b7 03       		.uleb128 0x3
ARM GAS  C:\Users\Brian\AppData\Local\Temp\ccBwD5Lv.s 			page 112


 5085 02b8 08       		.uleb128 0x8
 5086 02b9 3A       		.uleb128 0x3a
 5087 02ba 0B       		.uleb128 0xb
 5088 02bb 3B       		.uleb128 0x3b
 5089 02bc 05       		.uleb128 0x5
 5090 02bd 49       		.uleb128 0x49
 5091 02be 13       		.uleb128 0x13
 5092 02bf 02       		.uleb128 0x2
 5093 02c0 17       		.uleb128 0x17
 5094 02c1 00       		.byte	0
 5095 02c2 00       		.byte	0
 5096 02c3 37       		.uleb128 0x37
 5097 02c4 1D       		.uleb128 0x1d
 5098 02c5 00       		.byte	0
 5099 02c6 31       		.uleb128 0x31
 5100 02c7 13       		.uleb128 0x13
 5101 02c8 11       		.uleb128 0x11
 5102 02c9 01       		.uleb128 0x1
 5103 02ca 12       		.uleb128 0x12
 5104 02cb 06       		.uleb128 0x6
 5105 02cc 58       		.uleb128 0x58
 5106 02cd 0B       		.uleb128 0xb
 5107 02ce 59       		.uleb128 0x59
 5108 02cf 0B       		.uleb128 0xb
 5109 02d0 00       		.byte	0
 5110 02d1 00       		.byte	0
 5111 02d2 38       		.uleb128 0x38
 5112 02d3 34       		.uleb128 0x34
 5113 02d4 00       		.byte	0
 5114 02d5 03       		.uleb128 0x3
 5115 02d6 08       		.uleb128 0x8
 5116 02d7 3A       		.uleb128 0x3a
 5117 02d8 0B       		.uleb128 0xb
 5118 02d9 3B       		.uleb128 0x3b
 5119 02da 0B       		.uleb128 0xb
 5120 02db 49       		.uleb128 0x49
 5121 02dc 13       		.uleb128 0x13
 5122 02dd 02       		.uleb128 0x2
 5123 02de 17       		.uleb128 0x17
 5124 02df 00       		.byte	0
 5125 02e0 00       		.byte	0
 5126 02e1 39       		.uleb128 0x39
 5127 02e2 0B       		.uleb128 0xb
 5128 02e3 01       		.byte	0x1
 5129 02e4 55       		.uleb128 0x55
 5130 02e5 17       		.uleb128 0x17
 5131 02e6 00       		.byte	0
 5132 02e7 00       		.byte	0
 5133 02e8 3A       		.uleb128 0x3a
 5134 02e9 898201   		.uleb128 0x4109
 5135 02ec 00       		.byte	0
 5136 02ed 11       		.uleb128 0x11
 5137 02ee 01       		.uleb128 0x1
 5138 02ef 31       		.uleb128 0x31
 5139 02f0 13       		.uleb128 0x13
 5140 02f1 00       		.byte	0
 5141 02f2 00       		.byte	0
ARM GAS  C:\Users\Brian\AppData\Local\Temp\ccBwD5Lv.s 			page 113


 5142 02f3 3B       		.uleb128 0x3b
 5143 02f4 34       		.uleb128 0x34
 5144 02f5 00       		.byte	0
 5145 02f6 03       		.uleb128 0x3
 5146 02f7 0E       		.uleb128 0xe
 5147 02f8 3A       		.uleb128 0x3a
 5148 02f9 0B       		.uleb128 0xb
 5149 02fa 3B       		.uleb128 0x3b
 5150 02fb 0B       		.uleb128 0xb
 5151 02fc 49       		.uleb128 0x49
 5152 02fd 13       		.uleb128 0x13
 5153 02fe 02       		.uleb128 0x2
 5154 02ff 17       		.uleb128 0x17
 5155 0300 00       		.byte	0
 5156 0301 00       		.byte	0
 5157 0302 3C       		.uleb128 0x3c
 5158 0303 1D       		.uleb128 0x1d
 5159 0304 01       		.byte	0x1
 5160 0305 31       		.uleb128 0x31
 5161 0306 13       		.uleb128 0x13
 5162 0307 11       		.uleb128 0x11
 5163 0308 01       		.uleb128 0x1
 5164 0309 12       		.uleb128 0x12
 5165 030a 06       		.uleb128 0x6
 5166 030b 58       		.uleb128 0x58
 5167 030c 0B       		.uleb128 0xb
 5168 030d 59       		.uleb128 0x59
 5169 030e 0B       		.uleb128 0xb
 5170 030f 01       		.uleb128 0x1
 5171 0310 13       		.uleb128 0x13
 5172 0311 00       		.byte	0
 5173 0312 00       		.byte	0
 5174 0313 3D       		.uleb128 0x3d
 5175 0314 05       		.uleb128 0x5
 5176 0315 00       		.byte	0
 5177 0316 31       		.uleb128 0x31
 5178 0317 13       		.uleb128 0x13
 5179 0318 02       		.uleb128 0x2
 5180 0319 17       		.uleb128 0x17
 5181 031a 00       		.byte	0
 5182 031b 00       		.byte	0
 5183 031c 3E       		.uleb128 0x3e
 5184 031d 34       		.uleb128 0x34
 5185 031e 00       		.byte	0
 5186 031f 03       		.uleb128 0x3
 5187 0320 0E       		.uleb128 0xe
 5188 0321 3A       		.uleb128 0x3a
 5189 0322 0B       		.uleb128 0xb
 5190 0323 3B       		.uleb128 0x3b
 5191 0324 05       		.uleb128 0x5
 5192 0325 49       		.uleb128 0x49
 5193 0326 13       		.uleb128 0x13
 5194 0327 3F       		.uleb128 0x3f
 5195 0328 19       		.uleb128 0x19
 5196 0329 3C       		.uleb128 0x3c
 5197 032a 19       		.uleb128 0x19
 5198 032b 00       		.byte	0
ARM GAS  C:\Users\Brian\AppData\Local\Temp\ccBwD5Lv.s 			page 114


 5199 032c 00       		.byte	0
 5200 032d 3F       		.uleb128 0x3f
 5201 032e 34       		.uleb128 0x34
 5202 032f 00       		.byte	0
 5203 0330 03       		.uleb128 0x3
 5204 0331 0E       		.uleb128 0xe
 5205 0332 3A       		.uleb128 0x3a
 5206 0333 0B       		.uleb128 0xb
 5207 0334 3B       		.uleb128 0x3b
 5208 0335 0B       		.uleb128 0xb
 5209 0336 49       		.uleb128 0x49
 5210 0337 13       		.uleb128 0x13
 5211 0338 3F       		.uleb128 0x3f
 5212 0339 19       		.uleb128 0x19
 5213 033a 3C       		.uleb128 0x3c
 5214 033b 19       		.uleb128 0x19
 5215 033c 00       		.byte	0
 5216 033d 00       		.byte	0
 5217 033e 40       		.uleb128 0x40
 5218 033f 34       		.uleb128 0x34
 5219 0340 00       		.byte	0
 5220 0341 03       		.uleb128 0x3
 5221 0342 0E       		.uleb128 0xe
 5222 0343 3A       		.uleb128 0x3a
 5223 0344 0B       		.uleb128 0xb
 5224 0345 3B       		.uleb128 0x3b
 5225 0346 0B       		.uleb128 0xb
 5226 0347 49       		.uleb128 0x49
 5227 0348 13       		.uleb128 0x13
 5228 0349 3F       		.uleb128 0x3f
 5229 034a 19       		.uleb128 0x19
 5230 034b 02       		.uleb128 0x2
 5231 034c 18       		.uleb128 0x18
 5232 034d 00       		.byte	0
 5233 034e 00       		.byte	0
 5234 034f 41       		.uleb128 0x41
 5235 0350 2E       		.uleb128 0x2e
 5236 0351 00       		.byte	0
 5237 0352 3F       		.uleb128 0x3f
 5238 0353 19       		.uleb128 0x19
 5239 0354 3C       		.uleb128 0x3c
 5240 0355 19       		.uleb128 0x19
 5241 0356 6E       		.uleb128 0x6e
 5242 0357 0E       		.uleb128 0xe
 5243 0358 03       		.uleb128 0x3
 5244 0359 0E       		.uleb128 0xe
 5245 035a 3A       		.uleb128 0x3a
 5246 035b 0B       		.uleb128 0xb
 5247 035c 3B       		.uleb128 0x3b
 5248 035d 0B       		.uleb128 0xb
 5249 035e 00       		.byte	0
 5250 035f 00       		.byte	0
 5251 0360 42       		.uleb128 0x42
 5252 0361 2E       		.uleb128 0x2e
 5253 0362 00       		.byte	0
 5254 0363 3F       		.uleb128 0x3f
 5255 0364 19       		.uleb128 0x19
ARM GAS  C:\Users\Brian\AppData\Local\Temp\ccBwD5Lv.s 			page 115


 5256 0365 3C       		.uleb128 0x3c
 5257 0366 19       		.uleb128 0x19
 5258 0367 6E       		.uleb128 0x6e
 5259 0368 0E       		.uleb128 0xe
 5260 0369 03       		.uleb128 0x3
 5261 036a 0E       		.uleb128 0xe
 5262 036b 3A       		.uleb128 0x3a
 5263 036c 0B       		.uleb128 0xb
 5264 036d 3B       		.uleb128 0x3b
 5265 036e 05       		.uleb128 0x5
 5266 036f 00       		.byte	0
 5267 0370 00       		.byte	0
 5268 0371 43       		.uleb128 0x43
 5269 0372 2E       		.uleb128 0x2e
 5270 0373 00       		.byte	0
 5271 0374 3F       		.uleb128 0x3f
 5272 0375 19       		.uleb128 0x19
 5273 0376 3C       		.uleb128 0x3c
 5274 0377 19       		.uleb128 0x19
 5275 0378 6E       		.uleb128 0x6e
 5276 0379 0E       		.uleb128 0xe
 5277 037a 03       		.uleb128 0x3
 5278 037b 0E       		.uleb128 0xe
 5279 037c 3A       		.uleb128 0x3a
 5280 037d 0B       		.uleb128 0xb
 5281 037e 3B       		.uleb128 0x3b
 5282 037f 0B       		.uleb128 0xb
 5283 0380 6E       		.uleb128 0x6e
 5284 0381 0E       		.uleb128 0xe
 5285 0382 00       		.byte	0
 5286 0383 00       		.byte	0
 5287 0384 00       		.byte	0
 5288              		.section	.debug_loc,"",%progbits
 5289              	.Ldebug_loc0:
 5290              	.LLST0:
 5291 0000 00000000 		.4byte	.LVL0
 5292 0004 14000000 		.4byte	.LVL1
 5293 0008 0100     		.2byte	0x1
 5294 000a 50       		.byte	0x50
 5295 000b 14000000 		.4byte	.LVL1
 5296 000f EE000000 		.4byte	.LVL16
 5297 0013 0100     		.2byte	0x1
 5298 0015 55       		.byte	0x55
 5299 0016 EE000000 		.4byte	.LVL16
 5300 001a F0000000 		.4byte	.LVL17
 5301 001e 0300     		.2byte	0x3
 5302 0020 75       		.byte	0x75
 5303 0021 67       		.sleb128 -25
 5304 0022 9F       		.byte	0x9f
 5305 0023 F0000000 		.4byte	.LVL17
 5306 0027 FA000000 		.4byte	.LVL19
 5307 002b 0400     		.2byte	0x4
 5308 002d 75       		.byte	0x75
 5309 002e E87D     		.sleb128 -280
 5310 0030 9F       		.byte	0x9f
 5311 0031 FA000000 		.4byte	.LVL19
 5312 0035 FC000000 		.4byte	.LFE445
ARM GAS  C:\Users\Brian\AppData\Local\Temp\ccBwD5Lv.s 			page 116


 5313 0039 0400     		.2byte	0x4
 5314 003b F3       		.byte	0xf3
 5315 003c 01       		.uleb128 0x1
 5316 003d 50       		.byte	0x50
 5317 003e 9F       		.byte	0x9f
 5318 003f 00000000 		.4byte	0
 5319 0043 00000000 		.4byte	0
 5320              	.LLST1:
 5321 0047 00000000 		.4byte	.LVL20
 5322 004b 12000000 		.4byte	.LVL21
 5323 004f 0100     		.2byte	0x1
 5324 0051 50       		.byte	0x50
 5325 0052 12000000 		.4byte	.LVL21
 5326 0056 15000000 		.4byte	.LVL22-1
 5327 005a 0200     		.2byte	0x2
 5328 005c 70       		.byte	0x70
 5329 005d 00       		.sleb128 0
 5330 005e 15000000 		.4byte	.LVL22-1
 5331 0062 1A000000 		.4byte	.LFE446
 5332 0066 0400     		.2byte	0x4
 5333 0068 F3       		.byte	0xf3
 5334 0069 01       		.uleb128 0x1
 5335 006a 50       		.byte	0x50
 5336 006b 9F       		.byte	0x9f
 5337 006c 00000000 		.4byte	0
 5338 0070 00000000 		.4byte	0
 5339              	.LLST2:
 5340 0074 00000000 		.4byte	.LVL23
 5341 0078 12000000 		.4byte	.LVL24
 5342 007c 0100     		.2byte	0x1
 5343 007e 50       		.byte	0x50
 5344 007f 12000000 		.4byte	.LVL24
 5345 0083 15000000 		.4byte	.LVL25-1
 5346 0087 0200     		.2byte	0x2
 5347 0089 70       		.byte	0x70
 5348 008a 00       		.sleb128 0
 5349 008b 15000000 		.4byte	.LVL25-1
 5350 008f 1A000000 		.4byte	.LFE447
 5351 0093 0400     		.2byte	0x4
 5352 0095 F3       		.byte	0xf3
 5353 0096 01       		.uleb128 0x1
 5354 0097 50       		.byte	0x50
 5355 0098 9F       		.byte	0x9f
 5356 0099 00000000 		.4byte	0
 5357 009d 00000000 		.4byte	0
 5358              	.LLST3:
 5359 00a1 00000000 		.4byte	.LVL26
 5360 00a5 20000000 		.4byte	.LVL27
 5361 00a9 0100     		.2byte	0x1
 5362 00ab 50       		.byte	0x50
 5363 00ac 20000000 		.4byte	.LVL27
 5364 00b0 23000000 		.4byte	.LVL28-1
 5365 00b4 0200     		.2byte	0x2
 5366 00b6 70       		.byte	0x70
 5367 00b7 00       		.sleb128 0
 5368 00b8 23000000 		.4byte	.LVL28-1
 5369 00bc 28000000 		.4byte	.LFE448
ARM GAS  C:\Users\Brian\AppData\Local\Temp\ccBwD5Lv.s 			page 117


 5370 00c0 0400     		.2byte	0x4
 5371 00c2 F3       		.byte	0xf3
 5372 00c3 01       		.uleb128 0x1
 5373 00c4 50       		.byte	0x50
 5374 00c5 9F       		.byte	0x9f
 5375 00c6 00000000 		.4byte	0
 5376 00ca 00000000 		.4byte	0
 5377              	.LLST4:
 5378 00ce 00000000 		.4byte	.LVL26
 5379 00d2 23000000 		.4byte	.LVL28-1
 5380 00d6 0100     		.2byte	0x1
 5381 00d8 51       		.byte	0x51
 5382 00d9 23000000 		.4byte	.LVL28-1
 5383 00dd 28000000 		.4byte	.LFE448
 5384 00e1 0400     		.2byte	0x4
 5385 00e3 F3       		.byte	0xf3
 5386 00e4 01       		.uleb128 0x1
 5387 00e5 51       		.byte	0x51
 5388 00e6 9F       		.byte	0x9f
 5389 00e7 00000000 		.4byte	0
 5390 00eb 00000000 		.4byte	0
 5391              	.LLST5:
 5392 00ef 48000000 		.4byte	.LVL34
 5393 00f3 4E000000 		.4byte	.LVL35
 5394 00f7 0100     		.2byte	0x1
 5395 00f9 50       		.byte	0x50
 5396 00fa 00000000 		.4byte	0
 5397 00fe 00000000 		.4byte	0
 5398              	.LLST6:
 5399 0102 04000000 		.4byte	.LVL29
 5400 0106 08000000 		.4byte	.LVL30
 5401 010a 0200     		.2byte	0x2
 5402 010c 30       		.byte	0x30
 5403 010d 9F       		.byte	0x9f
 5404 010e 08000000 		.4byte	.LVL30
 5405 0112 10000000 		.4byte	.LVL31
 5406 0116 0100     		.2byte	0x1
 5407 0118 53       		.byte	0x53
 5408 0119 12000000 		.4byte	.LVL32
 5409 011d 1A000000 		.4byte	.LVL33
 5410 0121 0100     		.2byte	0x1
 5411 0123 53       		.byte	0x53
 5412 0124 00000000 		.4byte	0
 5413 0128 00000000 		.4byte	0
 5414              	.LLST7:
 5415 012c 00000000 		.4byte	.LVL37
 5416 0130 0E000000 		.4byte	.LVL38
 5417 0134 0100     		.2byte	0x1
 5418 0136 50       		.byte	0x50
 5419 0137 0E000000 		.4byte	.LVL38
 5420 013b 11000000 		.4byte	.LVL39-1
 5421 013f 0500     		.2byte	0x5
 5422 0141 03       		.byte	0x3
 5423 0142 00000000 		.4byte	flashPtrs
 5424 0146 11000000 		.4byte	.LVL39-1
 5425 014a B4010000 		.4byte	.LFE443
 5426 014e 0400     		.2byte	0x4
ARM GAS  C:\Users\Brian\AppData\Local\Temp\ccBwD5Lv.s 			page 118


 5427 0150 F3       		.byte	0xf3
 5428 0151 01       		.uleb128 0x1
 5429 0152 50       		.byte	0x50
 5430 0153 9F       		.byte	0x9f
 5431 0154 00000000 		.4byte	0
 5432 0158 00000000 		.4byte	0
 5433              	.LLST8:
 5434 015c 82000000 		.4byte	.LVL46
 5435 0160 86000000 		.4byte	.LVL47
 5436 0164 0200     		.2byte	0x2
 5437 0166 30       		.byte	0x30
 5438 0167 9F       		.byte	0x9f
 5439 0168 86000000 		.4byte	.LVL47
 5440 016c B6000000 		.4byte	.LVL52
 5441 0170 0100     		.2byte	0x1
 5442 0172 55       		.byte	0x55
 5443 0173 B8000000 		.4byte	.LVL53
 5444 0177 BE000000 		.4byte	.LVL54
 5445 017b 0100     		.2byte	0x1
 5446 017d 55       		.byte	0x55
 5447 017e 00000000 		.4byte	0
 5448 0182 00000000 		.4byte	0
 5449              	.LLST9:
 5450 0186 86000000 		.4byte	.LVL47
 5451 018a AA000000 		.4byte	.LVL48
 5452 018e 0100     		.2byte	0x1
 5453 0190 53       		.byte	0x53
 5454 0191 AC000000 		.4byte	.LVL49
 5455 0195 AE000000 		.4byte	.LVL50
 5456 0199 0100     		.2byte	0x1
 5457 019b 53       		.byte	0x53
 5458 019c B0000000 		.4byte	.LVL51
 5459 01a0 B8000000 		.4byte	.LVL53
 5460 01a4 0100     		.2byte	0x1
 5461 01a6 53       		.byte	0x53
 5462 01a7 00000000 		.4byte	0
 5463 01ab 00000000 		.4byte	0
 5464              	.LLST10:
 5465 01af EA000000 		.4byte	.LVL57
 5466 01b3 EE000000 		.4byte	.LVL58
 5467 01b7 0200     		.2byte	0x2
 5468 01b9 30       		.byte	0x30
 5469 01ba 9F       		.byte	0x9f
 5470 01bb EE000000 		.4byte	.LVL58
 5471 01bf 0C010000 		.4byte	.LVL63
 5472 01c3 0100     		.2byte	0x1
 5473 01c5 50       		.byte	0x50
 5474 01c6 0E010000 		.4byte	.LVL64
 5475 01ca 15010000 		.4byte	.LVL65-1
 5476 01ce 0100     		.2byte	0x1
 5477 01d0 50       		.byte	0x50
 5478 01d1 00000000 		.4byte	0
 5479 01d5 00000000 		.4byte	0
 5480              	.LLST11:
 5481 01d9 EE000000 		.4byte	.LVL58
 5482 01dd 00010000 		.4byte	.LVL59
 5483 01e1 0100     		.2byte	0x1
ARM GAS  C:\Users\Brian\AppData\Local\Temp\ccBwD5Lv.s 			page 119


 5484 01e3 52       		.byte	0x52
 5485 01e4 02010000 		.4byte	.LVL60
 5486 01e8 04010000 		.4byte	.LVL61
 5487 01ec 0100     		.2byte	0x1
 5488 01ee 52       		.byte	0x52
 5489 01ef 06010000 		.4byte	.LVL62
 5490 01f3 0E010000 		.4byte	.LVL64
 5491 01f7 0100     		.2byte	0x1
 5492 01f9 52       		.byte	0x52
 5493 01fa 00000000 		.4byte	0
 5494 01fe 00000000 		.4byte	0
 5495              	.LLST12:
 5496 0202 16010000 		.4byte	.LVL65
 5497 0206 1A010000 		.4byte	.LVL66
 5498 020a 0200     		.2byte	0x2
 5499 020c 30       		.byte	0x30
 5500 020d 9F       		.byte	0x9f
 5501 020e 1A010000 		.4byte	.LVL66
 5502 0212 22010000 		.4byte	.LVL67
 5503 0216 0100     		.2byte	0x1
 5504 0218 53       		.byte	0x53
 5505 0219 24010000 		.4byte	.LVL68
 5506 021d 2E010000 		.4byte	.LVL69
 5507 0221 0100     		.2byte	0x1
 5508 0223 53       		.byte	0x53
 5509 0224 00000000 		.4byte	0
 5510 0228 00000000 		.4byte	0
 5511              	.LLST13:
 5512 022c 2E010000 		.4byte	.LVL69
 5513 0230 3E010000 		.4byte	.LVL71
 5514 0234 0100     		.2byte	0x1
 5515 0236 54       		.byte	0x54
 5516 0237 40010000 		.4byte	.LVL72
 5517 023b 44010000 		.4byte	.LVL73
 5518 023f 0100     		.2byte	0x1
 5519 0241 54       		.byte	0x54
 5520 0242 00000000 		.4byte	0
 5521 0246 00000000 		.4byte	0
 5522              	.LLST14:
 5523 024a 00000000 		.4byte	.LVL79
 5524 024e 2E000000 		.4byte	.LVL83
 5525 0252 0100     		.2byte	0x1
 5526 0254 50       		.byte	0x50
 5527 0255 2E000000 		.4byte	.LVL83
 5528 0259 34000000 		.4byte	.LVL85
 5529 025d 0400     		.2byte	0x4
 5530 025f F3       		.byte	0xf3
 5531 0260 01       		.uleb128 0x1
 5532 0261 50       		.byte	0x50
 5533 0262 9F       		.byte	0x9f
 5534 0263 34000000 		.4byte	.LVL85
 5535 0267 46000000 		.4byte	.LVL87
 5536 026b 0100     		.2byte	0x1
 5537 026d 50       		.byte	0x50
 5538 026e 46000000 		.4byte	.LVL87
 5539 0272 0C010000 		.4byte	.LFE444
 5540 0276 0400     		.2byte	0x4
ARM GAS  C:\Users\Brian\AppData\Local\Temp\ccBwD5Lv.s 			page 120


 5541 0278 F3       		.byte	0xf3
 5542 0279 01       		.uleb128 0x1
 5543 027a 50       		.byte	0x50
 5544 027b 9F       		.byte	0x9f
 5545 027c 00000000 		.4byte	0
 5546 0280 00000000 		.4byte	0
 5547              	.LLST15:
 5548 0284 00000000 		.4byte	.LVL79
 5549 0288 2C000000 		.4byte	.LVL82
 5550 028c 0100     		.2byte	0x1
 5551 028e 51       		.byte	0x51
 5552 028f 2C000000 		.4byte	.LVL82
 5553 0293 34000000 		.4byte	.LVL85
 5554 0297 0100     		.2byte	0x1
 5555 0299 54       		.byte	0x54
 5556 029a 34000000 		.4byte	.LVL85
 5557 029e 4D000000 		.4byte	.LVL88-1
 5558 02a2 0100     		.2byte	0x1
 5559 02a4 51       		.byte	0x51
 5560 02a5 4D000000 		.4byte	.LVL88-1
 5561 02a9 E8000000 		.4byte	.LVL100
 5562 02ad 0100     		.2byte	0x1
 5563 02af 54       		.byte	0x54
 5564 02b0 E8000000 		.4byte	.LVL100
 5565 02b4 0C010000 		.4byte	.LFE444
 5566 02b8 0400     		.2byte	0x4
 5567 02ba F3       		.byte	0xf3
 5568 02bb 01       		.uleb128 0x1
 5569 02bc 51       		.byte	0x51
 5570 02bd 9F       		.byte	0x9f
 5571 02be 00000000 		.4byte	0
 5572 02c2 00000000 		.4byte	0
 5573              	.LLST16:
 5574 02c6 3C000000 		.4byte	.LVL86
 5575 02ca 4D000000 		.4byte	.LVL88-1
 5576 02ce 0100     		.2byte	0x1
 5577 02d0 51       		.byte	0x51
 5578 02d1 4D000000 		.4byte	.LVL88-1
 5579 02d5 E8000000 		.4byte	.LVL99
 5580 02d9 0100     		.2byte	0x1
 5581 02db 54       		.byte	0x54
 5582 02dc 00000000 		.4byte	0
 5583 02e0 00000000 		.4byte	0
 5584              	.LLST17:
 5585 02e4 24000000 		.4byte	.LVL80
 5586 02e8 2A000000 		.4byte	.LVL81
 5587 02ec 0200     		.2byte	0x2
 5588 02ee 30       		.byte	0x30
 5589 02ef 9F       		.byte	0x9f
 5590 02f0 00000000 		.4byte	0
 5591 02f4 00000000 		.4byte	0
 5592              	.LLST18:
 5593 02f8 24000000 		.4byte	.LVL80
 5594 02fc 2A000000 		.4byte	.LVL81
 5595 0300 0200     		.2byte	0x2
 5596 0302 35       		.byte	0x35
 5597 0303 9F       		.byte	0x9f
ARM GAS  C:\Users\Brian\AppData\Local\Temp\ccBwD5Lv.s 			page 121


 5598 0304 00000000 		.4byte	0
 5599 0308 00000000 		.4byte	0
 5600              	.LLST19:
 5601 030c 24000000 		.4byte	.LVL80
 5602 0310 2A000000 		.4byte	.LVL81
 5603 0314 0600     		.2byte	0x6
 5604 0316 0C       		.byte	0xc
 5605 0317 00053240 		.4byte	0x40320500
 5606 031b 9F       		.byte	0x9f
 5607 031c 00000000 		.4byte	0
 5608 0320 00000000 		.4byte	0
 5609              	.LLST20:
 5610 0324 34000000 		.4byte	.LVL85
 5611 0328 3C000000 		.4byte	.LVL86
 5612 032c 0200     		.2byte	0x2
 5613 032e 31       		.byte	0x31
 5614 032f 9F       		.byte	0x9f
 5615 0330 00000000 		.4byte	0
 5616 0334 00000000 		.4byte	0
 5617              	.LLST21:
 5618 0338 34000000 		.4byte	.LVL85
 5619 033c 3C000000 		.4byte	.LVL86
 5620 0340 0200     		.2byte	0x2
 5621 0342 35       		.byte	0x35
 5622 0343 9F       		.byte	0x9f
 5623 0344 00000000 		.4byte	0
 5624 0348 00000000 		.4byte	0
 5625              	.LLST22:
 5626 034c 34000000 		.4byte	.LVL85
 5627 0350 3C000000 		.4byte	.LVL86
 5628 0354 0600     		.2byte	0x6
 5629 0356 0C       		.byte	0xc
 5630 0357 00053240 		.4byte	0x40320500
 5631 035b 9F       		.byte	0x9f
 5632 035c 00000000 		.4byte	0
 5633 0360 00000000 		.4byte	0
 5634              		.section	.debug_aranges,"",%progbits
 5635 0000 4C000000 		.4byte	0x4c
 5636 0004 0200     		.2byte	0x2
 5637 0006 00000000 		.4byte	.Ldebug_info0
 5638 000a 04       		.byte	0x4
 5639 000b 00       		.byte	0
 5640 000c 0000     		.2byte	0
 5641 000e 0000     		.2byte	0
 5642 0010 00000000 		.4byte	.LFB445
 5643 0014 FC000000 		.4byte	.LFE445-.LFB445
 5644 0018 00000000 		.4byte	.LFB446
 5645 001c 1A000000 		.4byte	.LFE446-.LFB446
 5646 0020 00000000 		.4byte	.LFB447
 5647 0024 1A000000 		.4byte	.LFE447-.LFB447
 5648 0028 00000000 		.4byte	.LFB448
 5649 002c 28000000 		.4byte	.LFE448-.LFB448
 5650 0030 00000000 		.4byte	.LFB449
 5651 0034 70000000 		.4byte	.LFE449-.LFB449
 5652 0038 00000000 		.4byte	.LFB443
 5653 003c B4010000 		.4byte	.LFE443-.LFB443
 5654 0040 00000000 		.4byte	.LFB444
ARM GAS  C:\Users\Brian\AppData\Local\Temp\ccBwD5Lv.s 			page 122


 5655 0044 0C010000 		.4byte	.LFE444-.LFB444
 5656 0048 00000000 		.4byte	0
 5657 004c 00000000 		.4byte	0
 5658              		.section	.debug_ranges,"",%progbits
 5659              	.Ldebug_ranges0:
 5660 0000 86000000 		.4byte	.LBB19
 5661 0004 AE000000 		.4byte	.LBE19
 5662 0008 B0000000 		.4byte	.LBB20
 5663 000c B4000000 		.4byte	.LBE20
 5664 0010 00000000 		.4byte	0
 5665 0014 00000000 		.4byte	0
 5666 0018 EE000000 		.4byte	.LBB23
 5667 001c 04010000 		.4byte	.LBE23
 5668 0020 06010000 		.4byte	.LBB24
 5669 0024 0A010000 		.4byte	.LBE24
 5670 0028 00000000 		.4byte	0
 5671 002c 00000000 		.4byte	0
 5672 0030 00000000 		.4byte	.LFB445
 5673 0034 FC000000 		.4byte	.LFE445
 5674 0038 00000000 		.4byte	.LFB446
 5675 003c 1A000000 		.4byte	.LFE446
 5676 0040 00000000 		.4byte	.LFB447
 5677 0044 1A000000 		.4byte	.LFE447
 5678 0048 00000000 		.4byte	.LFB448
 5679 004c 28000000 		.4byte	.LFE448
 5680 0050 00000000 		.4byte	.LFB449
 5681 0054 70000000 		.4byte	.LFE449
 5682 0058 00000000 		.4byte	.LFB443
 5683 005c B4010000 		.4byte	.LFE443
 5684 0060 00000000 		.4byte	.LFB444
 5685 0064 0C010000 		.4byte	.LFE444
 5686 0068 00000000 		.4byte	0
 5687 006c 00000000 		.4byte	0
 5688              		.section	.debug_line,"",%progbits
 5689              	.Ldebug_line0:
 5690 0000 16070000 		.section	.debug_str,"MS",%progbits,1
 5690      02008105 
 5690      00000201 
 5690      FB0E0D00 
 5690      01010101 
 5691              	.LASF27:
 5692 0000 52455345 		.ascii	"RESERVED\000"
 5692      52564544 
 5692      00
 5693              	.LASF35:
 5694 0009 5644445F 		.ascii	"VDD_ACTIVE\000"
 5694      41435449 
 5694      564500
 5695              	.LASF31:
 5696 0014 494E5452 		.ascii	"INTR_CAUSE0\000"
 5696      5F434155 
 5696      53453000 
 5697              	.LASF32:
 5698 0020 494E5452 		.ascii	"INTR_CAUSE1\000"
 5698      5F434155 
 5698      53453100 
 5699              	.LASF317:
ARM GAS  C:\Users\Brian\AppData\Local\Temp\ccBwD5Lv.s 			page 123


 5700 002c 43595F42 		.ascii	"CY_BLE_EVT_L2CAP_CBFC_DATA_READ\000"
 5700      4C455F45 
 5700      56545F4C 
 5700      32434150 
 5700      5F434246 
 5701              	.LASF34:
 5702 004c 494E5452 		.ascii	"INTR_CAUSE3\000"
 5702      5F434155 
 5702      53453300 
 5703              	.LASF264:
 5704 0058 43595F42 		.ascii	"CY_BLE_EVT_GAPP_ADVERTISEMENT_START_STOP\000"
 5704      4C455F45 
 5704      56545F47 
 5704      4150505F 
 5704      41445645 
 5705              	.LASF318:
 5706 0081 43595F42 		.ascii	"CY_BLE_EVT_L2CAP_CBFC_RX_CREDIT_IND\000"
 5706      4C455F45 
 5706      56545F4C 
 5706      32434150 
 5706      5F434246 
 5707              	.LASF319:
 5708 00a5 43595F42 		.ascii	"CY_BLE_EVT_L2CAP_CBFC_TX_CREDIT_IND\000"
 5708      4C455F45 
 5708      56545F4C 
 5708      32434150 
 5708      5F434246 
 5709              	.LASF211:
 5710 00c9 43595F42 		.ascii	"CY_BLE_EVT_PENDING_FLASH_WRITE\000"
 5710      4C455F45 
 5710      56545F50 
 5710      454E4449 
 5710      4E475F46 
 5711              	.LASF91:
 5712 00e8 696E7472 		.ascii	"intrMask\000"
 5712      4D61736B 
 5712      00
 5713              	.LASF303:
 5714 00f1 43595F42 		.ascii	"CY_BLE_EVT_GATTC_HANDLE_VALUE_NTF\000"
 5714      4C455F45 
 5714      56545F47 
 5714      41545443 
 5714      5F48414E 
 5715              	.LASF373:
 5716 0113 766F6C74 		.ascii	"voltage_ptr\000"
 5716      6167655F 
 5716      70747200 
 5717              	.LASF419:
 5718 011f 63795F65 		.ascii	"cy_en_flashdrv_status\000"
 5718      6E5F666C 
 5718      61736864 
 5718      72765F73 
 5718      74617475 
 5719              	.LASF126:
 5720 0135 5F6F6E5F 		.ascii	"_on_exit_args\000"
 5720      65786974 
 5720      5F617267 
ARM GAS  C:\Users\Brian\AppData\Local\Temp\ccBwD5Lv.s 			page 124


 5720      7300
 5721              	.LASF350:
 5722 0143 43595F42 		.ascii	"CY_BLE_CONN_STATE_CLIENT_DISCOVERED\000"
 5722      4C455F43 
 5722      4F4E4E5F 
 5722      53544154 
 5722      455F434C 
 5723              	.LASF335:
 5724 0167 43595F42 		.ascii	"CY_BLE_STATE_INITIALIZING\000"
 5724      4C455F53 
 5724      54415445 
 5724      5F494E49 
 5724      5449414C 
 5725              	.LASF50:
 5726 0181 74785374 		.ascii	"txStatus\000"
 5726      61747573 
 5726      00
 5727              	.LASF408:
 5728 018a 43795F49 		.ascii	"Cy_IPC_Pipe_RegisterCallback\000"
 5728      50435F50 
 5728      6970655F 
 5728      52656769 
 5728      73746572 
 5729              	.LASF384:
 5730 01a7 6576656E 		.ascii	"eventParam\000"
 5730      74506172 
 5730      616D00
 5731              	.LASF187:
 5732 01b2 5F6C6F63 		.ascii	"_localtime_buf\000"
 5732      616C7469 
 5732      6D655F62 
 5732      756600
 5733              	.LASF243:
 5734 01c1 43595F42 		.ascii	"CY_BLE_EVT_SET_TX_PWR_COMPLETE\000"
 5734      4C455F45 
 5734      56545F53 
 5734      45545F54 
 5734      585F5057 
 5735              	.LASF232:
 5736 01e0 43595F42 		.ascii	"CY_BLE_EVT_GET_PHY_COMPLETE\000"
 5736      4C455F45 
 5736      56545F47 
 5736      45545F50 
 5736      48595F43 
 5737              	.LASF190:
 5738 01fc 5F723438 		.ascii	"_r48\000"
 5738      00
 5739              	.LASF407:
 5740 0201 73657476 		.ascii	"setvbuf\000"
 5740      62756600 
 5741              	.LASF101:
 5742 0209 5F66706F 		.ascii	"_fpos_t\000"
 5742      735F7400 
 5743              	.LASF155:
 5744 0211 5F657272 		.ascii	"_errno\000"
 5744      6E6F00
 5745              	.LASF374:
ARM GAS  C:\Users\Brian\AppData\Local\Temp\ccBwD5Lv.s 			page 125


 5746 0218 77726974 		.ascii	"write_threshold_to_server\000"
 5746      655F7468 
 5746      72657368 
 5746      6F6C645F 
 5746      746F5F73 
 5747              	.LASF195:
 5748 0232 5F736967 		.ascii	"_signal_buf\000"
 5748      6E616C5F 
 5748      62756600 
 5749              	.LASF11:
 5750 023e 756E7369 		.ascii	"unsigned int\000"
 5750      676E6564 
 5750      20696E74 
 5750      00
 5751              	.LASF389:
 5752 024b 63795F62 		.ascii	"cy_ble_connHandle\000"
 5752      6C655F63 
 5752      6F6E6E48 
 5752      616E646C 
 5752      6500
 5753              	.LASF281:
 5754 025d 43595F42 		.ascii	"CY_BLE_EVT_GAP_CREATE_CONN_CANCEL_COMPLETE\000"
 5754      4C455F45 
 5754      56545F47 
 5754      41505F43 
 5754      52454154 
 5755              	.LASF364:
 5756 0288 6970635F 		.ascii	"ipc_msg_t\000"
 5756      6D73675F 
 5756      7400
 5757              	.LASF81:
 5758 0292 43595F53 		.ascii	"CY_SAR_RANGE_COND_OUTSIDE\000"
 5758      41525F52 
 5758      414E4745 
 5758      5F434F4E 
 5758      445F4F55 
 5759              	.LASF375:
 5760 02ac 74687265 		.ascii	"threshold_ptr\000"
 5760      73686F6C 
 5760      645F7074 
 5760      7200
 5761              	.LASF140:
 5762 02ba 5F6C6266 		.ascii	"_lbfsize\000"
 5762      73697A65 
 5762      00
 5763              	.LASF26:
 5764 02c3 4346475F 		.ascii	"CFG_SIO\000"
 5764      53494F00 
 5765              	.LASF368:
 5766 02cb 77726974 		.ascii	"write_num_events_to_server\000"
 5766      655F6E75 
 5766      6D5F6576 
 5766      656E7473 
 5766      5F746F5F 
 5767              	.LASF212:
 5768 02e6 43595F42 		.ascii	"CY_BLE_EVT_FLASH_CORRUPT\000"
 5768      4C455F45 
ARM GAS  C:\Users\Brian\AppData\Local\Temp\ccBwD5Lv.s 			page 126


 5768      56545F46 
 5768      4C415348 
 5768      5F434F52 
 5769              	.LASF397:
 5770 02ff 6576656E 		.ascii	"events\000"
 5770      747300
 5771              	.LASF413:
 5772 0306 43795F42 		.ascii	"Cy_BLE_GATTS_WriteAttributeValuePeer\000"
 5772      4C455F47 
 5772      41545453 
 5772      5F577269 
 5772      74654174 
 5773              	.LASF354:
 5774 032b 6368616E 		.ascii	"channelBase\000"
 5774      6E656C42 
 5774      61736500 
 5775              	.LASF351:
 5776 0337 63795F65 		.ascii	"cy_en_ble_conn_state_t\000"
 5776      6E5F626C 
 5776      655F636F 
 5776      6E6E5F73 
 5776      74617465 
 5777              	.LASF224:
 5778 034e 43595F42 		.ascii	"CY_BLE_EVT_GET_LOCAL_RPA_COMPLETE\000"
 5778      4C455F45 
 5778      56545F47 
 5778      45545F4C 
 5778      4F43414C 
 5779              	.LASF292:
 5780 0370 43595F42 		.ascii	"CY_BLE_EVT_GATTC_FIND_INFO_RSP\000"
 5780      4C455F45 
 5780      56545F47 
 5780      41545443 
 5780      5F46494E 
 5781              	.LASF236:
 5782 038f 43595F42 		.ascii	"CY_BLE_EVT_SET_PRIVACY_MODE_COMPLETE\000"
 5782      4C455F45 
 5782      56545F53 
 5782      45545F50 
 5782      52495641 
 5783              	.LASF72:
 5784 03b4 43595F46 		.ascii	"CY_FLASH_DRV_PL_ROW_COMP_FA\000"
 5784      4C415348 
 5784      5F445256 
 5784      5F504C5F 
 5784      524F575F 
 5785              	.LASF181:
 5786 03d0 5F736565 		.ascii	"_seed\000"
 5786      6400
 5787              	.LASF17:
 5788 03d6 4F55545F 		.ascii	"OUT_SET\000"
 5788      53455400 
 5789              	.LASF390:
 5790 03de 63795F62 		.ascii	"cy_ble_connState\000"
 5790      6C655F63 
 5790      6F6E6E53 
 5790      74617465 
ARM GAS  C:\Users\Brian\AppData\Local\Temp\ccBwD5Lv.s 			page 127


 5790      00
 5791              	.LASF352:
 5792 03ef 63795F73 		.ascii	"cy_stc_ble_gattc_write_req_t\000"
 5792      74635F62 
 5792      6C655F67 
 5792      61747463 
 5792      5F777269 
 5793              	.LASF398:
 5794 040c 6E756D5F 		.ascii	"num_events\000"
 5794      6576656E 
 5794      747300
 5795              	.LASF99:
 5796 0417 5F4C4F43 		.ascii	"_LOCK_RECURSIVE_T\000"
 5796      4B5F5245 
 5796      43555253 
 5796      4956455F 
 5796      5400
 5797              	.LASF296:
 5798 0429 43595F42 		.ascii	"CY_BLE_EVT_GATTC_READ_MULTI_RSP\000"
 5798      4C455F45 
 5798      56545F47 
 5798      41545443 
 5798      5F524541 
 5799              	.LASF286:
 5800 0449 43595F42 		.ascii	"CY_BLE_EVT_GATT_CONNECT_IND\000"
 5800      4C455F45 
 5800      56545F47 
 5800      4154545F 
 5800      434F4E4E 
 5801              	.LASF198:
 5802 0465 5F6D6272 		.ascii	"_mbrtowc_state\000"
 5802      746F7763 
 5802      5F737461 
 5802      746500
 5803              	.LASF142:
 5804 0474 5F726561 		.ascii	"_read\000"
 5804      6400
 5805              	.LASF22:
 5806 047a 494E5452 		.ascii	"INTR_SET\000"
 5806      5F534554 
 5806      00
 5807              	.LASF338:
 5808 0483 43595F42 		.ascii	"CY_BLE_ADV_STATE_STOPPED\000"
 5808      4C455F41 
 5808      44565F53 
 5808      54415445 
 5808      5F53544F 
 5809              	.LASF197:
 5810 049c 5F6D6272 		.ascii	"_mbrlen_state\000"
 5810      6C656E5F 
 5810      73746174 
 5810      6500
 5811              	.LASF417:
 5812 04aa 626C7565 		.ascii	"bluetooth.c\000"
 5812      746F6F74 
 5812      682E6300 
 5813              	.LASF378:
ARM GAS  C:\Users\Brian\AppData\Local\Temp\ccBwD5Lv.s 			page 128


 5814 04b6 72616D44 		.ascii	"ramData\000"
 5814      61746100 
 5815              	.LASF293:
 5816 04be 43595F42 		.ascii	"CY_BLE_EVT_GATTC_FIND_BY_TYPE_VALUE_RSP\000"
 5816      4C455F45 
 5816      56545F47 
 5816      41545443 
 5816      5F46494E 
 5817              	.LASF234:
 5818 04e6 43595F42 		.ascii	"CY_BLE_EVT_SET_PHY_COMPLETE\000"
 5818      4C455F45 
 5818      56545F53 
 5818      45545F50 
 5818      48595F43 
 5819              	.LASF308:
 5820 0502 43595F42 		.ascii	"CY_BLE_EVT_GATTS_READ_CHAR_VAL_ACCESS_REQ\000"
 5820      4C455F45 
 5820      56545F47 
 5820      41545453 
 5820      5F524541 
 5821              	.LASF105:
 5822 052c 5F5F636F 		.ascii	"__count\000"
 5822      756E7400 
 5823              	.LASF157:
 5824 0534 5F737464 		.ascii	"_stdout\000"
 5824      6F757400 
 5825              	.LASF279:
 5826 053c 43595F42 		.ascii	"CY_BLE_EVT_GAP_RESOLVE_DEVICE_COMPLETE\000"
 5826      4C455F45 
 5826      56545F47 
 5826      41505F52 
 5826      45534F4C 
 5827              	.LASF78:
 5828 0563 43595F53 		.ascii	"CY_SAR_RANGE_COND_BELOW\000"
 5828      41525F52 
 5828      414E4745 
 5828      5F434F4E 
 5828      445F4245 
 5829              	.LASF344:
 5830 057b 43595F42 		.ascii	"CY_BLE_CONN_STATE_CLIENT_DISCONNECTED_DISCOVERED\000"
 5830      4C455F43 
 5830      4F4E4E5F 
 5830      53544154 
 5830      455F434C 
 5831              	.LASF386:
 5832 05ac 5F696D70 		.ascii	"_impure_ptr\000"
 5832      7572655F 
 5832      70747200 
 5833              	.LASF133:
 5834 05b8 5F666E73 		.ascii	"_fns\000"
 5834      00
 5835              	.LASF141:
 5836 05bd 5F636F6F 		.ascii	"_cookie\000"
 5836      6B696500 
 5837              	.LASF289:
 5838 05c5 43595F42 		.ascii	"CY_BLE_EVT_GATTC_XCHNG_MTU_RSP\000"
 5838      4C455F45 
ARM GAS  C:\Users\Brian\AppData\Local\Temp\ccBwD5Lv.s 			page 129


 5838      56545F47 
 5838      41545443 
 5838      5F584348 
 5839              	.LASF305:
 5840 05e4 43595F42 		.ascii	"CY_BLE_EVT_GATTS_HANDLE_VALUE_CNF\000"
 5840      4C455F45 
 5840      56545F47 
 5840      41545453 
 5840      5F48414E 
 5841              	.LASF24:
 5842 0606 4346475F 		.ascii	"CFG_IN\000"
 5842      494E00
 5843              	.LASF111:
 5844 060d 5F426967 		.ascii	"_Bigint\000"
 5844      696E7400 
 5845              	.LASF152:
 5846 0615 5F6D6273 		.ascii	"_mbstate\000"
 5846      74617465 
 5846      00
 5847              	.LASF46:
 5848 061e 75696E74 		.ascii	"uint8\000"
 5848      3800
 5849              	.LASF123:
 5850 0624 5F5F746D 		.ascii	"__tm_wday\000"
 5850      5F776461 
 5850      7900
 5851              	.LASF294:
 5852 062e 43595F42 		.ascii	"CY_BLE_EVT_GATTC_READ_RSP\000"
 5852      4C455F45 
 5852      56545F47 
 5852      41545443 
 5852      5F524541 
 5853              	.LASF165:
 5854 0648 5F726573 		.ascii	"_result\000"
 5854      756C7400 
 5855              	.LASF295:
 5856 0650 43595F42 		.ascii	"CY_BLE_EVT_GATTC_READ_BLOB_RSP\000"
 5856      4C455F45 
 5856      56545F47 
 5856      41545443 
 5856      5F524541 
 5857              	.LASF14:
 5858 066f 75696E74 		.ascii	"uint32_t\000"
 5858      33325F74 
 5858      00
 5859              	.LASF360:
 5860 0678 636C6965 		.ascii	"clientId\000"
 5860      6E744964 
 5860      00
 5861              	.LASF74:
 5862 0681 43595F46 		.ascii	"CY_FLASH_DRV_PROGRESS_NO_ERROR\000"
 5862      4C415348 
 5862      5F445256 
 5862      5F50524F 
 5862      47524553 
 5863              	.LASF10:
 5864 06a0 6C6F6E67 		.ascii	"long long unsigned int\000"
ARM GAS  C:\Users\Brian\AppData\Local\Temp\ccBwD5Lv.s 			page 130


 5864      206C6F6E 
 5864      6720756E 
 5864      7369676E 
 5864      65642069 
 5865              	.LASF226:
 5866 06b7 43595F42 		.ascii	"CY_BLE_EVT_SET_RPA_ENABLE_COMPLETE\000"
 5866      4C455F45 
 5866      56545F53 
 5866      45545F52 
 5866      50415F45 
 5867              	.LASF207:
 5868 06da 43595F42 		.ascii	"CY_BLE_EVT_STACK_ON\000"
 5868      4C455F45 
 5868      56545F53 
 5868      5441434B 
 5868      5F4F4E00 
 5869              	.LASF237:
 5870 06ee 43595F42 		.ascii	"CY_BLE_EVT_LL_CNTRL_PROC_PENDING_COMPLETE\000"
 5870      4C455F45 
 5870      56545F4C 
 5870      4C5F434E 
 5870      54524C5F 
 5871              	.LASF399:
 5872 0718 75707065 		.ascii	"upper_thresh\000"
 5872      725F7468 
 5872      72657368 
 5872      00
 5873              	.LASF67:
 5874 0725 43595F46 		.ascii	"CY_FLASH_DRV_INVALID_FM_PL\000"
 5874      4C415348 
 5874      5F445256 
 5874      5F494E56 
 5874      414C4944 
 5875              	.LASF223:
 5876 0740 43595F42 		.ascii	"CY_BLE_EVT_GET_PEER_RPA_COMPLETE\000"
 5876      4C455F45 
 5876      56545F47 
 5876      45545F50 
 5876      4545525F 
 5877              	.LASF416:
 5878 0761 474E5520 		.ascii	"GNU C11 5.4.1 20160609 (release) [ARM/embedded-5-br"
 5878      43313120 
 5878      352E342E 
 5878      31203230 
 5878      31363036 
 5879 0794 616E6368 		.ascii	"anch revision 237715] -mcpu=cortex-m0plus -mthumb -"
 5879      20726576 
 5879      6973696F 
 5879      6E203233 
 5879      37373135 
 5880 07c7 67202D4F 		.ascii	"g -Og -ffunction-sections -ffat-lto-objects\000"
 5880      67202D66 
 5880      66756E63 
 5880      74696F6E 
 5880      2D736563 
 5881              	.LASF118:
 5882 07f3 5F5F746D 		.ascii	"__tm_min\000"
ARM GAS  C:\Users\Brian\AppData\Local\Temp\ccBwD5Lv.s 			page 131


 5882      5F6D696E 
 5882      00
 5883              	.LASF64:
 5884 07fc 63795F73 		.ascii	"cy_stc_scb_uart_context_t\000"
 5884      74635F73 
 5884      63625F75 
 5884      6172745F 
 5884      636F6E74 
 5885              	.LASF365:
 5886 0816 62617365 		.ascii	"base\000"
 5886      00
 5887              	.LASF203:
 5888 081b 5F6E6578 		.ascii	"_nextf\000"
 5888      746600
 5889              	.LASF355:
 5890 0822 6E756D43 		.ascii	"numChannels\000"
 5890      68616E6E 
 5890      656C7300 
 5891              	.LASF110:
 5892 082e 63795F73 		.ascii	"cy_stc_scb_uart_context\000"
 5892      74635F73 
 5892      63625F75 
 5892      6172745F 
 5892      636F6E74 
 5893              	.LASF16:
 5894 0846 4F55545F 		.ascii	"OUT_CLR\000"
 5894      434C5200 
 5895              	.LASF414:
 5896 084e 73656E64 		.ascii	"send_trigger\000"
 5896      5F747269 
 5896      67676572 
 5896      00
 5897              	.LASF379:
 5898 085b 72657375 		.ascii	"result\000"
 5898      6C7400
 5899              	.LASF274:
 5900 0862 43595F42 		.ascii	"CY_BLE_EVT_GAP_ENHANCE_CONN_COMPLETE\000"
 5900      4C455F45 
 5900      56545F47 
 5900      41505F45 
 5900      4E48414E 
 5901              	.LASF166:
 5902 0887 5F726573 		.ascii	"_result_k\000"
 5902      756C745F 
 5902      6B00
 5903              	.LASF406:
 5904 0891 55415254 		.ascii	"UART_Start\000"
 5904      5F537461 
 5904      727400
 5905              	.LASF186:
 5906 089c 5F617363 		.ascii	"_asctime_buf\000"
 5906      74696D65 
 5906      5F627566 
 5906      00
 5907              	.LASF421:
 5908 08a9 43795F47 		.ascii	"Cy_GPIO_Write\000"
 5908      50494F5F 
ARM GAS  C:\Users\Brian\AppData\Local\Temp\ccBwD5Lv.s 			page 132


 5908      57726974 
 5908      6500
 5909              	.LASF342:
 5910 08b7 63795F65 		.ascii	"cy_en_ble_adv_state_t\000"
 5910      6E5F626C 
 5910      655F6164 
 5910      765F7374 
 5910      6174655F 
 5911              	.LASF241:
 5912 08cd 43595F42 		.ascii	"CY_BLE_EVT_GET_RSSI_COMPLETE\000"
 5912      4C455F45 
 5912      56545F47 
 5912      45545F52 
 5912      5353495F 
 5913              	.LASF115:
 5914 08ea 5F776473 		.ascii	"_wds\000"
 5914      00
 5915              	.LASF138:
 5916 08ef 5F666C61 		.ascii	"_flags\000"
 5916      677300
 5917              	.LASF180:
 5918 08f6 5F72616E 		.ascii	"_rand48\000"
 5918      64343800 
 5919              	.LASF87:
 5920 08fe 72616E67 		.ascii	"rangeThres\000"
 5920      65546872 
 5920      657300
 5921              	.LASF339:
 5922 0909 43595F42 		.ascii	"CY_BLE_ADV_STATE_ADV_INITIATED\000"
 5922      4C455F41 
 5922      44565F53 
 5922      54415445 
 5922      5F414456 
 5923              	.LASF4:
 5924 0928 5F5F7569 		.ascii	"__uint16_t\000"
 5924      6E743136 
 5924      5F7400
 5925              	.LASF176:
 5926 0933 5F5F4649 		.ascii	"__FILE\000"
 5926      4C4500
 5927              	.LASF79:
 5928 093a 43595F53 		.ascii	"CY_SAR_RANGE_COND_INSIDE\000"
 5928      41525F52 
 5928      414E4745 
 5928      5F434F4E 
 5928      445F494E 
 5929              	.LASF267:
 5930 0953 43595F42 		.ascii	"CY_BLE_EVT_GAP_ENCRYPT_CHANGE\000"
 5930      4C455F45 
 5930      56545F47 
 5930      41505F45 
 5930      4E435259 
 5931              	.LASF239:
 5932 0971 43595F42 		.ascii	"CY_BLE_EVT_SET_DEVICE_ADDR_COMPLETE\000"
 5932      4C455F45 
 5932      56545F53 
 5932      45545F44 
ARM GAS  C:\Users\Brian\AppData\Local\Temp\ccBwD5Lv.s 			page 133


 5932      45564943 
 5933              	.LASF149:
 5934 0995 5F6F6666 		.ascii	"_offset\000"
 5934      73657400 
 5935              	.LASF323:
 5936 099d 61747449 		.ascii	"attId\000"
 5936      6400
 5937              	.LASF83:
 5938 09a3 6374726C 		.ascii	"ctrl\000"
 5938      00
 5939              	.LASF222:
 5940 09a8 43595F42 		.ascii	"CY_BLE_EVT_DATA_LENGTH_CHANGE\000"
 5940      4C455F45 
 5940      56545F44 
 5940      4154415F 
 5940      4C454E47 
 5941              	.LASF301:
 5942 09c6 43595F42 		.ascii	"CY_BLE_EVT_GATTS_EXEC_WRITE_REQ\000"
 5942      4C455F45 
 5942      56545F47 
 5942      41545453 
 5942      5F455845 
 5943              	.LASF329:
 5944 09e6 61747472 		.ascii	"attrHandle\000"
 5944      48616E64 
 5944      6C6500
 5945              	.LASF69:
 5946 09f1 43595F46 		.ascii	"CY_FLASH_DRV_ROW_PROTECTED\000"
 5946      4C415348 
 5946      5F445256 
 5946      5F524F57 
 5946      5F50524F 
 5947              	.LASF65:
 5948 0a0c 43595F46 		.ascii	"CY_FLASH_DRV_SUCCESS\000"
 5948      4C415348 
 5948      5F445256 
 5948      5F535543 
 5948      43455353 
 5949              	.LASF273:
 5950 0a21 43595F42 		.ascii	"CY_BLE_EVT_GAP_OOB_GENERATED_NOTIFICATION\000"
 5950      4C455F45 
 5950      56545F47 
 5950      41505F4F 
 5950      4F425F47 
 5951              	.LASF328:
 5952 0a4b 76616C75 		.ascii	"value\000"
 5952      6500
 5953              	.LASF25:
 5954 0a51 4346475F 		.ascii	"CFG_OUT\000"
 5954      4F555400 
 5955              	.LASF51:
 5956 0a59 72785374 		.ascii	"rxStatus\000"
 5956      61747573 
 5956      00
 5957              	.LASF160:
 5958 0a62 5F656D65 		.ascii	"_emergency\000"
 5958      7267656E 
ARM GAS  C:\Users\Brian\AppData\Local\Temp\ccBwD5Lv.s 			page 134


 5958      637900
 5959              	.LASF418:
 5960 0a6d 433A5C50 		.ascii	"C:\\PSoC 6 Projects\\sel_voltage_monitor\\SELVoltag"
 5960      536F4320 
 5960      36205072 
 5960      6F6A6563 
 5960      74735C73 
 5961 0a9d 654D6F6E 		.ascii	"eMonitor\\SELVoltageMonitor.cydsn\000"
 5961      69746F72 
 5961      5C53454C 
 5961      566F6C74 
 5961      6167654D 
 5962              	.LASF265:
 5963 0abe 43595F42 		.ascii	"CY_BLE_EVT_GAP_DEVICE_CONNECTED\000"
 5963      4C455F45 
 5963      56545F47 
 5963      41505F44 
 5963      45564943 
 5964              	.LASF325:
 5965 0ade 63795F62 		.ascii	"cy_ble_gatt_db_attr_handle_t\000"
 5965      6C655F67 
 5965      6174745F 
 5965      64625F61 
 5965      7474725F 
 5966              	.LASF238:
 5967 0afb 43595F42 		.ascii	"CY_BLE_EVT_SOFT_RESET_COMPLETE\000"
 5967      4C455F45 
 5967      56545F53 
 5967      4F46545F 
 5967      52455345 
 5968              	.LASF162:
 5969 0b1a 5F637572 		.ascii	"_current_locale\000"
 5969      72656E74 
 5969      5F6C6F63 
 5969      616C6500 
 5970              	.LASF300:
 5971 0b2a 43595F42 		.ascii	"CY_BLE_EVT_GATTS_PREP_WRITE_REQ\000"
 5971      4C455F45 
 5971      56545F47 
 5971      41545453 
 5971      5F505245 
 5972              	.LASF353:
 5973 0b4a 63795F73 		.ascii	"cy_stc_ble_gattc_write_cmd_req_t\000"
 5973      74635F62 
 5973      6C655F67 
 5973      61747463 
 5973      5F777269 
 5974              	.LASF381:
 5975 0b6b 50747273 		.ascii	"Ptrs\000"
 5975      00
 5976              	.LASF370:
 5977 0b70 6E756D5F 		.ascii	"num_events_ptr\000"
 5977      6576656E 
 5977      74735F70 
 5977      747200
 5978              	.LASF117:
 5979 0b7f 5F5F746D 		.ascii	"__tm_sec\000"
ARM GAS  C:\Users\Brian\AppData\Local\Temp\ccBwD5Lv.s 			page 135


 5979      5F736563 
 5979      00
 5980              	.LASF304:
 5981 0b88 43595F42 		.ascii	"CY_BLE_EVT_GATTC_HANDLE_VALUE_IND\000"
 5981      4C455F45 
 5981      56545F47 
 5981      41545443 
 5981      5F48414E 
 5982              	.LASF45:
 5983 0baa 646F7562 		.ascii	"double\000"
 5983      6C6500
 5984              	.LASF382:
 5985 0bb1 47656E65 		.ascii	"GenericEventHandler\000"
 5985      72696345 
 5985      76656E74 
 5985      48616E64 
 5985      6C657200 
 5986              	.LASF182:
 5987 0bc5 5F6D756C 		.ascii	"_mult\000"
 5987      7400
 5988              	.LASF159:
 5989 0bcb 5F696E63 		.ascii	"_inc\000"
 5989      00
 5990              	.LASF132:
 5991 0bd0 5F696E64 		.ascii	"_ind\000"
 5991      00
 5992              	.LASF371:
 5993 0bd5 68616E64 		.ascii	"handValPair\000"
 5993      56616C50 
 5993      61697200 
 5994              	.LASF321:
 5995 0be1 43595F42 		.ascii	"CY_BLE_EVT_MAX\000"
 5995      4C455F45 
 5995      56545F4D 
 5995      415800
 5996              	.LASF316:
 5997 0bf0 43595F42 		.ascii	"CY_BLE_EVT_L2CAP_CBFC_DISCONN_CNF\000"
 5997      4C455F45 
 5997      56545F4C 
 5997      32434150 
 5997      5F434246 
 5998              	.LASF36:
 5999 0c12 5644445F 		.ascii	"VDD_INTR\000"
 5999      494E5452 
 5999      00
 6000              	.LASF246:
 6001 0c1b 43595F42 		.ascii	"CY_BLE_EVT_RANDOM_NUM_GEN_COMPLETE\000"
 6001      4C455F45 
 6001      56545F52 
 6001      414E444F 
 6001      4D5F4E55 
 6002              	.LASF340:
 6003 0c3e 43595F42 		.ascii	"CY_BLE_ADV_STATE_ADVERTISING\000"
 6003      4C455F41 
 6003      44565F53 
 6003      54415445 
 6003      5F414456 
ARM GAS  C:\Users\Brian\AppData\Local\Temp\ccBwD5Lv.s 			page 136


 6004              	.LASF199:
 6005 0c5b 5F6D6273 		.ascii	"_mbsrtowcs_state\000"
 6005      72746F77 
 6005      63735F73 
 6005      74617465 
 6005      00
 6006              	.LASF276:
 6007 0c6c 43595F42 		.ascii	"CY_BLE_EVT_GAP_SMP_NEGOTIATED_AUTH_INFO\000"
 6007      4C455F45 
 6007      56545F47 
 6007      41505F53 
 6007      4D505F4E 
 6008              	.LASF219:
 6009 0c94 43595F42 		.ascii	"CY_BLE_EVT_SET_DATA_LENGTH_COMPLETE\000"
 6009      4C455F45 
 6009      56545F53 
 6009      45545F44 
 6009      4154415F 
 6010              	.LASF298:
 6011 0cb8 43595F42 		.ascii	"CY_BLE_EVT_GATTC_WRITE_RSP\000"
 6011      4C455F45 
 6011      56545F47 
 6011      41545443 
 6011      5F575249 
 6012              	.LASF403:
 6013 0cd3 43795F46 		.ascii	"Cy_Flash_WriteRow\000"
 6013      6C617368 
 6013      5F577269 
 6013      7465526F 
 6013      7700
 6014              	.LASF405:
 6015 0ce5 43795F53 		.ascii	"Cy_SysEnableCM4\000"
 6015      7973456E 
 6015      61626C65 
 6015      434D3400 
 6016              	.LASF53:
 6017 0cf5 72785269 		.ascii	"rxRingBufSize\000"
 6017      6E674275 
 6017      6653697A 
 6017      6500
 6018              	.LASF44:
 6019 0d03 666C6F61 		.ascii	"float\000"
 6019      7400
 6020              	.LASF209:
 6021 0d09 43595F42 		.ascii	"CY_BLE_EVT_STACK_BUSY_STATUS\000"
 6021      4C455F45 
 6021      56545F53 
 6021      5441434B 
 6021      5F425553 
 6022              	.LASF98:
 6023 0d26 63795F73 		.ascii	"cy_stc_sar_config_t\000"
 6023      74635F73 
 6023      61725F63 
 6023      6F6E6669 
 6023      675F7400 
 6024              	.LASF30:
 6025 0d3a 4750494F 		.ascii	"GPIO_PRT_Type\000"
ARM GAS  C:\Users\Brian\AppData\Local\Temp\ccBwD5Lv.s 			page 137


 6025      5F505254 
 6025      5F547970 
 6025      6500
 6026              	.LASF216:
 6027 0d48 43595F42 		.ascii	"CY_BLE_EVT_GET_CHANNEL_MAP_COMPLETE\000"
 6027      4C455F45 
 6027      56545F47 
 6027      45545F43 
 6027      48414E4E 
 6028              	.LASF106:
 6029 0d6c 5F5F7661 		.ascii	"__value\000"
 6029      6C756500 
 6030              	.LASF120:
 6031 0d74 5F5F746D 		.ascii	"__tm_mday\000"
 6031      5F6D6461 
 6031      7900
 6032              	.LASF167:
 6033 0d7e 5F703573 		.ascii	"_p5s\000"
 6033      00
 6034              	.LASF210:
 6035 0d83 43595F42 		.ascii	"CY_BLE_EVT_MEMORY_REQUEST\000"
 6035      4C455F45 
 6035      56545F4D 
 6035      454D4F52 
 6035      595F5245 
 6036              	.LASF97:
 6037 0d9d 76726566 		.ascii	"vrefMvValue\000"
 6037      4D765661 
 6037      6C756500 
 6038              	.LASF257:
 6039 0da9 43595F42 		.ascii	"CY_BLE_EVT_SET_CONN_PRIORITY_COMPLETE\000"
 6039      4C455F45 
 6039      56545F53 
 6039      45545F43 
 6039      4F4E4E5F 
 6040              	.LASF62:
 6041 0dcf 63624576 		.ascii	"cbEvents\000"
 6041      656E7473 
 6041      00
 6042              	.LASF341:
 6043 0dd8 43595F42 		.ascii	"CY_BLE_ADV_STATE_STOP_INITIATED\000"
 6043      4C455F41 
 6043      44565F53 
 6043      54415445 
 6043      5F53544F 
 6044              	.LASF201:
 6045 0df8 5F776373 		.ascii	"_wcsrtombs_state\000"
 6045      72746F6D 
 6045      62735F73 
 6045      74617465 
 6045      00
 6046              	.LASF348:
 6047 0e09 43595F42 		.ascii	"CY_BLE_CONN_STATE_CLIENT_CHAR_DISCOVERING\000"
 6047      4C455F43 
 6047      4F4E4E5F 
 6047      53544154 
 6047      455F434C 
ARM GAS  C:\Users\Brian\AppData\Local\Temp\ccBwD5Lv.s 			page 138


 6048              	.LASF80:
 6049 0e33 43595F53 		.ascii	"CY_SAR_RANGE_COND_ABOVE\000"
 6049      41525F52 
 6049      414E4745 
 6049      5F434F4E 
 6049      445F4142 
 6050              	.LASF43:
 6051 0e4b 63686172 		.ascii	"char\000"
 6051      00
 6052              	.LASF376:
 6053 0e50 75707065 		.ascii	"upper_or_lower\000"
 6053      725F6F72 
 6053      5F6C6F77 
 6053      657200
 6054              	.LASF248:
 6055 0e5f 43595F42 		.ascii	"CY_BLE_EVT_AES_CCM_ENCRYPT_COMPLETE\000"
 6055      4C455F45 
 6055      56545F41 
 6055      45535F43 
 6055      434D5F45 
 6056              	.LASF269:
 6057 0e83 43595F42 		.ascii	"CY_BLE_EVT_GAPC_SCAN_START_STOP\000"
 6057      4C455F45 
 6057      56545F47 
 6057      4150435F 
 6057      5343414E 
 6058              	.LASF173:
 6059 0ea3 5F736967 		.ascii	"_sig_func\000"
 6059      5F66756E 
 6059      6300
 6060              	.LASF89:
 6061 0ead 6368616E 		.ascii	"chanEn\000"
 6061      456E00
 6062              	.LASF55:
 6063 0eb4 72785269 		.ascii	"rxRingBufTail\000"
 6063      6E674275 
 6063      66546169 
 6063      6C00
 6064              	.LASF343:
 6065 0ec2 43595F42 		.ascii	"CY_BLE_CONN_STATE_DISCONNECTED\000"
 6065      4C455F43 
 6065      4F4E4E5F 
 6065      53544154 
 6065      455F4449 
 6066              	.LASF291:
 6067 0ee1 43595F42 		.ascii	"CY_BLE_EVT_GATTC_READ_BY_TYPE_RSP\000"
 6067      4C455F45 
 6067      56545F47 
 6067      41545443 
 6067      5F524541 
 6068              	.LASF227:
 6069 0f03 43595F42 		.ascii	"CY_BLE_EVT_SET_HOST_CHANNEL_COMPLETE\000"
 6069      4C455F45 
 6069      56545F53 
 6069      45545F48 
 6069      4F53545F 
 6070              	.LASF108:
ARM GAS  C:\Users\Brian\AppData\Local\Temp\ccBwD5Lv.s 			page 139


 6071 0f28 5F666C6F 		.ascii	"_flock_t\000"
 6071      636B5F74 
 6071      00
 6072              	.LASF217:
 6073 0f31 43595F42 		.ascii	"CY_BLE_EVT_LE_SET_EVENT_MASK_COMPLETE\000"
 6073      4C455F45 
 6073      56545F4C 
 6073      455F5345 
 6073      545F4556 
 6074              	.LASF58:
 6075 0f57 72784275 		.ascii	"rxBufIdx\000"
 6075      66496478 
 6075      00
 6076              	.LASF119:
 6077 0f60 5F5F746D 		.ascii	"__tm_hour\000"
 6077      5F686F75 
 6077      7200
 6078              	.LASF271:
 6079 0f6a 43595F42 		.ascii	"CY_BLE_EVT_GAP_NUMERIC_COMPARISON_REQUEST\000"
 6079      4C455F45 
 6079      56545F47 
 6079      41505F4E 
 6079      554D4552 
 6080              	.LASF63:
 6081 0f94 696E6974 		.ascii	"initKey\000"
 6081      4B657900 
 6082              	.LASF103:
 6083 0f9c 5F5F7763 		.ascii	"__wch\000"
 6083      6800
 6084              	.LASF179:
 6085 0fa2 5F696F62 		.ascii	"_iobs\000"
 6085      7300
 6086              	.LASF12:
 6087 0fa8 75696E74 		.ascii	"uint8_t\000"
 6087      385F7400 
 6088              	.LASF423:
 6089 0fb0 5F5F6275 		.ascii	"__builtin_puts\000"
 6089      696C7469 
 6089      6E5F7075 
 6089      747300
 6090              	.LASF250:
 6091 0fbf 43595F42 		.ascii	"CY_BLE_EVT_SET_SLAVE_LATENCY_MODE_COMPLETE\000"
 6091      4C455F45 
 6091      56545F53 
 6091      45545F53 
 6091      4C415645 
 6092              	.LASF145:
 6093 0fea 5F636C6F 		.ascii	"_close\000"
 6093      736500
 6094              	.LASF410:
 6095 0ff1 43795F42 		.ascii	"Cy_BLE_ProcessEvents\000"
 6095      4C455F50 
 6095      726F6365 
 6095      73734576 
 6095      656E7473 
 6096              	.LASF163:
 6097 1006 5F5F7364 		.ascii	"__sdidinit\000"
ARM GAS  C:\Users\Brian\AppData\Local\Temp\ccBwD5Lv.s 			page 140


 6097      6964696E 
 6097      697400
 6098              	.LASF33:
 6099 1011 494E5452 		.ascii	"INTR_CAUSE2\000"
 6099      5F434155 
 6099      53453200 
 6100              	.LASF422:
 6101 101d 70757473 		.ascii	"puts\000"
 6101      00
 6102              	.LASF262:
 6103 1022 43595F42 		.ascii	"CY_BLE_EVT_GAP_AUTH_COMPLETE\000"
 6103      4C455F45 
 6103      56545F47 
 6103      41505F41 
 6103      5554485F 
 6104              	.LASF233:
 6105 103f 43595F42 		.ascii	"CY_BLE_EVT_SET_DEFAULT_PHY_COMPLETE\000"
 6105      4C455F45 
 6105      56545F53 
 6105      45545F44 
 6105      45464155 
 6106              	.LASF95:
 6107 1063 6D757853 		.ascii	"muxSwitchSqCtrl\000"
 6107      77697463 
 6107      68537143 
 6107      74726C00 
 6108              	.LASF388:
 6109 1073 63795F62 		.ascii	"cy_ble_advState\000"
 6109      6C655F61 
 6109      64765374 
 6109      61746500 
 6110              	.LASF49:
 6111 1083 63795F63 		.ascii	"cy_cb_scb_uart_handle_events_t\000"
 6111      625F7363 
 6111      625F7561 
 6111      72745F68 
 6111      616E646C 
 6112              	.LASF88:
 6113 10a2 72616E67 		.ascii	"rangeCond\000"
 6113      65436F6E 
 6113      6400
 6114              	.LASF156:
 6115 10ac 5F737464 		.ascii	"_stdin\000"
 6115      696E00
 6116              	.LASF380:
 6117 10b3 696E6974 		.ascii	"init_ble\000"
 6117      5F626C65 
 6117      00
 6118              	.LASF412:
 6119 10bc 73656E64 		.ascii	"send_enable\000"
 6119      5F656E61 
 6119      626C6500 
 6120              	.LASF9:
 6121 10c8 6C6F6E67 		.ascii	"long long int\000"
 6121      206C6F6E 
 6121      6720696E 
 6121      7400
ARM GAS  C:\Users\Brian\AppData\Local\Temp\ccBwD5Lv.s 			page 141


 6122              	.LASF314:
 6123 10d6 43595F42 		.ascii	"CY_BLE_EVT_L2CAP_CBFC_CONN_CNF\000"
 6123      4C455F45 
 6123      56545F4C 
 6123      32434150 
 6123      5F434246 
 6124              	.LASF135:
 6125 10f5 5F626173 		.ascii	"_base\000"
 6125      6500
 6126              	.LASF168:
 6127 10fb 5F667265 		.ascii	"_freelist\000"
 6127      656C6973 
 6127      7400
 6128              	.LASF282:
 6129 1105 43595F42 		.ascii	"CY_BLE_EVT_GAP_CONN_ESTB\000"
 6129      4C455F45 
 6129      56545F47 
 6129      41505F43 
 6129      4F4E4E5F 
 6130              	.LASF183:
 6131 111e 5F616464 		.ascii	"_add\000"
 6131      00
 6132              	.LASF333:
 6133 1123 63795F73 		.ascii	"cy_stc_ble_gatt_write_param_t\000"
 6133      74635F62 
 6133      6C655F67 
 6133      6174745F 
 6133      77726974 
 6134              	.LASF229:
 6135 1141 43595F42 		.ascii	"CY_BLE_EVT_REMOVE_DEVICE_FROM_RPA_LIST_COMPLETE\000"
 6135      4C455F45 
 6135      56545F52 
 6135      454D4F56 
 6135      455F4445 
 6136              	.LASF218:
 6137 1171 43595F42 		.ascii	"CY_BLE_EVT_LE_PING_AUTH_TIMEOUT\000"
 6137      4C455F45 
 6137      56545F4C 
 6137      455F5049 
 6137      4E475F41 
 6138              	.LASF249:
 6139 1191 43595F42 		.ascii	"CY_BLE_EVT_AES_CCM_DECRYPT_COMPLETE\000"
 6139      4C455F45 
 6139      56545F41 
 6139      45535F43 
 6139      434D5F44 
 6140              	.LASF200:
 6141 11b5 5F776372 		.ascii	"_wcrtomb_state\000"
 6141      746F6D62 
 6141      5F737461 
 6141      746500
 6142              	.LASF332:
 6143 11c4 636F6E6E 		.ascii	"connHandle\000"
 6143      48616E64 
 6143      6C6500
 6144              	.LASF396:
 6145 11cf 6970634D 		.ascii	"ipcMsgForCM4\000"
ARM GAS  C:\Users\Brian\AppData\Local\Temp\ccBwD5Lv.s 			page 142


 6145      7367466F 
 6145      72434D34 
 6145      00
 6146              	.LASF139:
 6147 11dc 5F66696C 		.ascii	"_file\000"
 6147      6500
 6148              	.LASF395:
 6149 11e2 72647954 		.ascii	"rdyToRecvMsg\000"
 6149      6F526563 
 6149      764D7367 
 6149      00
 6150              	.LASF245:
 6151 11ef 43595F42 		.ascii	"CY_BLE_EVT_SET_CLK_CONFIG_COMPLETE\000"
 6151      4C455F45 
 6151      56545F53 
 6151      45545F43 
 6151      4C4B5F43 
 6152              	.LASF309:
 6153 1212 43595F42 		.ascii	"CY_BLE_EVT_GATTC_LONG_PROCEDURE_END\000"
 6153      4C455F45 
 6153      56545F47 
 6153      41545443 
 6153      5F4C4F4E 
 6154              	.LASF164:
 6155 1236 5F5F636C 		.ascii	"__cleanup\000"
 6155      65616E75 
 6155      7000
 6156              	.LASF19:
 6157 1240 494E5452 		.ascii	"INTR\000"
 6157      00
 6158              	.LASF191:
 6159 1245 5F6D626C 		.ascii	"_mblen_state\000"
 6159      656E5F73 
 6159      74617465 
 6159      00
 6160              	.LASF260:
 6161 1252 43595F42 		.ascii	"CY_BLE_EVT_GAP_PASSKEY_ENTRY_REQUEST\000"
 6161      4C455F45 
 6161      56545F47 
 6161      41505F50 
 6161      4153534B 
 6162              	.LASF107:
 6163 1277 5F6D6273 		.ascii	"_mbstate_t\000"
 6163      74617465 
 6163      5F7400
 6164              	.LASF20:
 6165 1282 494E5452 		.ascii	"INTR_MASK\000"
 6165      5F4D4153 
 6165      4B00
 6166              	.LASF90:
 6167 128c 6368616E 		.ascii	"chanConfig\000"
 6167      436F6E66 
 6167      696700
 6168              	.LASF270:
 6169 1297 43595F42 		.ascii	"CY_BLE_EVT_GAP_KEYINFO_EXCHNGE_CMPLT\000"
 6169      4C455F45 
 6169      56545F47 
ARM GAS  C:\Users\Brian\AppData\Local\Temp\ccBwD5Lv.s 			page 143


 6169      41505F4B 
 6169      4559494E 
 6170              	.LASF230:
 6171 12bc 43595F42 		.ascii	"CY_BLE_EVT_ADD_DEVICE_TO_WHITE_LIST_COMPLETE\000"
 6171      4C455F45 
 6171      56545F41 
 6171      44445F44 
 6171      45564943 
 6172              	.LASF60:
 6173 12e9 74784275 		.ascii	"txBufSize\000"
 6173      6653697A 
 6173      6500
 6174              	.LASF47:
 6175 12f3 75696E74 		.ascii	"uint32\000"
 6175      333200
 6176              	.LASF125:
 6177 12fa 5F5F746D 		.ascii	"__tm_isdst\000"
 6177      5F697364 
 6177      737400
 6178              	.LASF284:
 6179 1305 43595F42 		.ascii	"CY_BLE_EVT_GAP_ADV_TX\000"
 6179      4C455F45 
 6179      56545F47 
 6179      41505F41 
 6179      44565F54 
 6180              	.LASF320:
 6181 131b 43595F42 		.ascii	"CY_BLE_EVT_L2CAP_CBFC_DATA_WRITE_IND\000"
 6181      4C455F45 
 6181      56545F4C 
 6181      32434150 
 6181      5F434246 
 6182              	.LASF359:
 6183 1340 4144435F 		.ascii	"ADC_CONFIG_STRUCT\000"
 6183      434F4E46 
 6183      49475F53 
 6183      54525543 
 6183      5400
 6184              	.LASF240:
 6185 1352 43595F42 		.ascii	"CY_BLE_EVT_GET_DEVICE_ADDR_COMPLETE\000"
 6185      4C455F45 
 6185      56545F47 
 6185      45545F44 
 6185      45564943 
 6186              	.LASF409:
 6187 1376 43795F42 		.ascii	"Cy_BLE_Start\000"
 6187      4C455F53 
 6187      74617274 
 6187      00
 6188              	.LASF256:
 6189 1383 43595F42 		.ascii	"CY_BLE_EVT_SET_CE_LENGTH_COMPLETE\000"
 6189      4C455F45 
 6189      56545F53 
 6189      45545F43 
 6189      455F4C45 
 6190              	.LASF258:
 6191 13a5 43595F42 		.ascii	"CY_BLE_EVT_GAPC_SCAN_PROGRESS_RESULT\000"
 6191      4C455F45 
ARM GAS  C:\Users\Brian\AppData\Local\Temp\ccBwD5Lv.s 			page 144


 6191      56545F47 
 6191      4150435F 
 6191      5343414E 
 6192              	.LASF313:
 6193 13ca 43595F42 		.ascii	"CY_BLE_EVT_L2CAP_CBFC_CONN_IND\000"
 6193      4C455F45 
 6193      56545F4C 
 6193      32434150 
 6193      5F434246 
 6194              	.LASF278:
 6195 13e9 43595F42 		.ascii	"CY_BLE_EVT_GAP_KEYS_GEN_COMPLETE\000"
 6195      4C455F45 
 6195      56545F47 
 6195      41505F4B 
 6195      4559535F 
 6196              	.LASF21:
 6197 140a 494E5452 		.ascii	"INTR_MASKED\000"
 6197      5F4D4153 
 6197      4B454400 
 6198              	.LASF272:
 6199 1416 43595F42 		.ascii	"CY_BLE_EVT_GAP_KEYPRESS_NOTIFICATION\000"
 6199      4C455F45 
 6199      56545F47 
 6199      41505F4B 
 6199      45595052 
 6200              	.LASF349:
 6201 143b 43595F42 		.ascii	"CY_BLE_CONN_STATE_CLIENT_DESCR_DISCOVERING\000"
 6201      4C455F43 
 6201      4F4E4E5F 
 6201      53544154 
 6201      455F434C 
 6202              	.LASF345:
 6203 1466 43595F42 		.ascii	"CY_BLE_CONN_STATE_CONNECTED\000"
 6203      4C455F43 
 6203      4F4E4E5F 
 6203      53544154 
 6203      455F434F 
 6204              	.LASF59:
 6205 1482 74784275 		.ascii	"txBuf\000"
 6205      6600
 6206              	.LASF38:
 6207 1488 5644445F 		.ascii	"VDD_INTR_MASKED\000"
 6207      494E5452 
 6207      5F4D4153 
 6207      4B454400 
 6208              	.LASF347:
 6209 1498 43595F42 		.ascii	"CY_BLE_CONN_STATE_CLIENT_INCL_DISCOVERING\000"
 6209      4C455F43 
 6209      4F4E4E5F 
 6209      53544154 
 6209      455F434C 
 6210              	.LASF73:
 6211 14c2 43595F46 		.ascii	"CY_FLASH_DRV_ERR_UNC\000"
 6211      4C415348 
 6211      5F445256 
 6211      5F455252 
 6211      5F554E43 
ARM GAS  C:\Users\Brian\AppData\Local\Temp\ccBwD5Lv.s 			page 145


 6212              	.LASF363:
 6213 14d7 64617461 		.ascii	"data\000"
 6213      00
 6214              	.LASF121:
 6215 14dc 5F5F746D 		.ascii	"__tm_mon\000"
 6215      5F6D6F6E 
 6215      00
 6216              	.LASF52:
 6217 14e5 72785269 		.ascii	"rxRingBuf\000"
 6217      6E674275 
 6217      6600
 6218              	.LASF41:
 6219 14ef 6C6F6E67 		.ascii	"long double\000"
 6219      20646F75 
 6219      626C6500 
 6220              	.LASF68:
 6221 14fb 43595F46 		.ascii	"CY_FLASH_DRV_INVALID_FLASH_ADDR\000"
 6221      4C415348 
 6221      5F445256 
 6221      5F494E56 
 6221      414C4944 
 6222              	.LASF215:
 6223 151b 43595F42 		.ascii	"CY_BLE_EVT_READ_AUTH_PAYLOAD_TO_COMPLETE\000"
 6223      4C455F45 
 6223      56545F52 
 6223      4541445F 
 6223      41555448 
 6224              	.LASF13:
 6225 1544 75696E74 		.ascii	"uint16_t\000"
 6225      31365F74 
 6225      00
 6226              	.LASF76:
 6227 154d 43595F46 		.ascii	"CY_FLASH_DRV_OPCODE_BUSY\000"
 6227      4C415348 
 6227      5F445256 
 6227      5F4F5043 
 6227      4F44455F 
 6228              	.LASF39:
 6229 1566 5644445F 		.ascii	"VDD_INTR_SET\000"
 6229      494E5452 
 6229      5F534554 
 6229      00
 6230              	.LASF337:
 6231 1573 63795F65 		.ascii	"cy_en_ble_state_t\000"
 6231      6E5F626C 
 6231      655F7374 
 6231      6174655F 
 6231      7400
 6232              	.LASF172:
 6233 1585 5F617465 		.ascii	"_atexit0\000"
 6233      78697430 
 6233      00
 6234              	.LASF225:
 6235 158e 43595F42 		.ascii	"CY_BLE_EVT_SET_RPA_TO_COMPLETE\000"
 6235      4C455F45 
 6235      56545F53 
 6235      45545F52 
ARM GAS  C:\Users\Brian\AppData\Local\Temp\ccBwD5Lv.s 			page 146


 6235      50415F54 
 6236              	.LASF188:
 6237 15ad 5F67616D 		.ascii	"_gamma_signgam\000"
 6237      6D615F73 
 6237      69676E67 
 6237      616D00
 6238              	.LASF85:
 6239 15bc 73616D70 		.ascii	"sampleTime01\000"
 6239      6C655469 
 6239      6D653031 
 6239      00
 6240              	.LASF213:
 6241 15c9 43595F42 		.ascii	"CY_BLE_EVT_HARDWARE_ERROR\000"
 6241      4C455F45 
 6241      56545F48 
 6241      41524457 
 6241      4152455F 
 6242              	.LASF94:
 6243 15e3 6D757853 		.ascii	"muxSwitch\000"
 6243      77697463 
 6243      6800
 6244              	.LASF131:
 6245 15ed 5F617465 		.ascii	"_atexit\000"
 6245      78697400 
 6246              	.LASF285:
 6247 15f5 43595F42 		.ascii	"CY_BLE_EVT_GATTC_ERROR_RSP\000"
 6247      4C455F45 
 6247      56545F47 
 6247      41545443 
 6247      5F455252 
 6248              	.LASF367:
 6249 1610 77726974 		.ascii	"write_event_to_server\000"
 6249      655F6576 
 6249      656E745F 
 6249      746F5F73 
 6249      65727665 
 6250              	.LASF290:
 6251 1626 43595F42 		.ascii	"CY_BLE_EVT_GATTC_READ_BY_GROUP_TYPE_RSP\000"
 6251      4C455F45 
 6251      56545F47 
 6251      41545443 
 6251      5F524541 
 6252              	.LASF228:
 6253 164e 43595F42 		.ascii	"CY_BLE_EVT_ADD_DEVICE_TO_RPA_LIST_COMPLETE\000"
 6253      4C455F45 
 6253      56545F41 
 6253      44445F44 
 6253      45564943 
 6254              	.LASF297:
 6255 1679 43595F42 		.ascii	"CY_BLE_EVT_GATTS_WRITE_REQ\000"
 6255      4C455F45 
 6255      56545F47 
 6255      41545453 
 6255      5F575249 
 6256              	.LASF251:
 6257 1694 43595F42 		.ascii	"CY_BLE_EVT_STACK_SHUTDOWN_COMPLETE\000"
 6257      4C455F45 
ARM GAS  C:\Users\Brian\AppData\Local\Temp\ccBwD5Lv.s 			page 147


 6257      56545F53 
 6257      5441434B 
 6257      5F534855 
 6258              	.LASF54:
 6259 16b7 72785269 		.ascii	"rxRingBufHead\000"
 6259      6E674275 
 6259      66486561 
 6259      6400
 6260              	.LASF324:
 6261 16c5 63795F73 		.ascii	"cy_stc_ble_conn_handle_t\000"
 6261      74635F62 
 6261      6C655F63 
 6261      6F6E6E5F 
 6261      68616E64 
 6262              	.LASF92:
 6263 16de 73617449 		.ascii	"satIntrMask\000"
 6263      6E74724D 
 6263      61736B00 
 6264              	.LASF29:
 6265 16ea 52455345 		.ascii	"RESERVED1\000"
 6265      52564544 
 6265      3100
 6266              	.LASF66:
 6267 16f4 43595F46 		.ascii	"CY_FLASH_DRV_INV_PROT\000"
 6267      4C415348 
 6267      5F445256 
 6267      5F494E56 
 6267      5F50524F 
 6268              	.LASF283:
 6269 170a 43595F42 		.ascii	"CY_BLE_EVT_GAPP_UPDATE_ADV_SCAN_DATA_COMPLETE\000"
 6269      4C455F45 
 6269      56545F47 
 6269      4150505F 
 6269      55504441 
 6270              	.LASF0:
 6271 1738 73686F72 		.ascii	"short int\000"
 6271      7420696E 
 6271      7400
 6272              	.LASF394:
 6273 1742 4144435F 		.ascii	"ADC_allConfigs\000"
 6273      616C6C43 
 6273      6F6E6669 
 6273      677300
 6274              	.LASF206:
 6275 1751 43595F42 		.ascii	"CY_BLE_EVT_INVALID\000"
 6275      4C455F45 
 6275      56545F49 
 6275      4E56414C 
 6275      494400
 6276              	.LASF266:
 6277 1764 43595F42 		.ascii	"CY_BLE_EVT_GAP_DEVICE_DISCONNECTED\000"
 6277      4C455F45 
 6277      56545F47 
 6277      41505F44 
 6277      45564943 
 6278              	.LASF401:
 6279 1787 666C6173 		.ascii	"flashPtrs\000"
ARM GAS  C:\Users\Brian\AppData\Local\Temp\ccBwD5Lv.s 			page 148


 6279      68507472 
 6279      7300
 6280              	.LASF6:
 6281 1791 6C6F6E67 		.ascii	"long int\000"
 6281      20696E74 
 6281      00
 6282              	.LASF415:
 6283 179a 43795F42 		.ascii	"Cy_BLE_GATTS_WriteRsp\000"
 6283      4C455F47 
 6283      41545453 
 6283      5F577269 
 6283      74655273 
 6284              	.LASF402:
 6285 17b0 43795F42 		.ascii	"Cy_BLE_GATTS_WriteAttributeValueLocal\000"
 6285      4C455F47 
 6285      41545453 
 6285      5F577269 
 6285      74654174 
 6286              	.LASF254:
 6287 17d6 43595F42 		.ascii	"CY_BLE_EVT_AES_CMAC_GEN_COMPLETE\000"
 6287      4C455F45 
 6287      56545F41 
 6287      45535F43 
 6287      4D41435F 
 6288              	.LASF420:
 6289 17f7 5F5F656E 		.ascii	"__enable_irq\000"
 6289      61626C65 
 6289      5F697271 
 6289      00
 6290              	.LASF372:
 6291 1804 77726974 		.ascii	"write_voltage_to_server\000"
 6291      655F766F 
 6291      6C746167 
 6291      655F746F 
 6291      5F736572 
 6292              	.LASF175:
 6293 181c 5F5F7366 		.ascii	"__sf\000"
 6293      00
 6294              	.LASF114:
 6295 1821 5F736967 		.ascii	"_sign\000"
 6295      6E00
 6296              	.LASF387:
 6297 1827 63795F62 		.ascii	"cy_ble_state\000"
 6297      6C655F73 
 6297      74617465 
 6297      00
 6298              	.LASF277:
 6299 1834 43595F42 		.ascii	"CY_BLE_EVT_GAP_DEVICE_ADDR_GEN_COMPLETE\000"
 6299      4C455F45 
 6299      56545F47 
 6299      41505F44 
 6299      45564943 
 6300              	.LASF42:
 6301 185c 63686172 		.ascii	"char_t\000"
 6301      5F7400
 6302              	.LASF150:
 6303 1863 5F646174 		.ascii	"_data\000"
ARM GAS  C:\Users\Brian\AppData\Local\Temp\ccBwD5Lv.s 			page 149


 6303      6100
 6304              	.LASF104:
 6305 1869 5F5F7763 		.ascii	"__wchb\000"
 6305      686200
 6306              	.LASF28:
 6307 1870 4346475F 		.ascii	"CFG_IN_GPIO5V\000"
 6307      494E5F47 
 6307      50494F35 
 6307      5600
 6308              	.LASF122:
 6309 187e 5F5F746D 		.ascii	"__tm_year\000"
 6309      5F796561 
 6309      7200
 6310              	.LASF315:
 6311 1888 43595F42 		.ascii	"CY_BLE_EVT_L2CAP_CBFC_DISCONN_IND\000"
 6311      4C455F45 
 6311      56545F4C 
 6311      32434150 
 6311      5F434246 
 6312              	.LASF385:
 6313 18aa 77726974 		.ascii	"writeReqParam\000"
 6313      65526571 
 6313      50617261 
 6313      6D00
 6314              	.LASF331:
 6315 18b8 68616E64 		.ascii	"handleValPair\000"
 6315      6C655661 
 6315      6C506169 
 6315      7200
 6316              	.LASF61:
 6317 18c6 74784C65 		.ascii	"txLeftToTransmit\000"
 6317      6674546F 
 6317      5472616E 
 6317      736D6974 
 6317      00
 6318              	.LASF334:
 6319 18d7 43595F42 		.ascii	"CY_BLE_STATE_STOPPED\000"
 6319      4C455F53 
 6319      54415445 
 6319      5F53544F 
 6319      50504544 
 6320              	.LASF326:
 6321 18ec 61637475 		.ascii	"actualLen\000"
 6321      616C4C65 
 6321      6E00
 6322              	.LASF214:
 6323 18f6 43595F42 		.ascii	"CY_BLE_EVT_WRITE_AUTH_PAYLOAD_TO_COMPLETE\000"
 6323      4C455F45 
 6323      56545F57 
 6323      52495445 
 6323      5F415554 
 6324              	.LASF253:
 6325 1920 43595F42 		.ascii	"CY_BLE_EVT_RADIO_VOLTAGE_LEVEL\000"
 6325      4C455F45 
 6325      56545F52 
 6325      4144494F 
 6325      5F564F4C 
ARM GAS  C:\Users\Brian\AppData\Local\Temp\ccBwD5Lv.s 			page 150


 6326              	.LASF143:
 6327 193f 5F777269 		.ascii	"_write\000"
 6327      746500
 6328              	.LASF71:
 6329 1946 43595F46 		.ascii	"CY_FLASH_DRV_INVALID_INPUT_PARAMETERS\000"
 6329      4C415348 
 6329      5F445256 
 6329      5F494E56 
 6329      414C4944 
 6330              	.LASF18:
 6331 196c 4F55545F 		.ascii	"OUT_INV\000"
 6331      494E5600 
 6332              	.LASF205:
 6333 1974 5F756E75 		.ascii	"_unused\000"
 6333      73656400 
 6334              	.LASF3:
 6335 197c 5F5F7569 		.ascii	"__uint8_t\000"
 6335      6E74385F 
 6335      7400
 6336              	.LASF171:
 6337 1986 5F6E6577 		.ascii	"_new\000"
 6337      00
 6338              	.LASF113:
 6339 198b 5F6D6178 		.ascii	"_maxwds\000"
 6339      77647300 
 6340              	.LASF194:
 6341 1993 5F6C3634 		.ascii	"_l64a_buf\000"
 6341      615F6275 
 6341      6600
 6342              	.LASF161:
 6343 199d 5F637572 		.ascii	"_current_category\000"
 6343      72656E74 
 6343      5F636174 
 6343      65676F72 
 6343      7900
 6344              	.LASF220:
 6345 19af 43595F42 		.ascii	"CY_BLE_EVT_SET_SUGGESTED_DATA_LENGTH_COMPLETE\000"
 6345      4C455F45 
 6345      56545F53 
 6345      45545F53 
 6345      55474745 
 6346              	.LASF383:
 6347 19dd 6576656E 		.ascii	"event\000"
 6347      7400
 6348              	.LASF247:
 6349 19e3 43595F42 		.ascii	"CY_BLE_EVT_AES_ENCRYPT_COMPLETE\000"
 6349      4C455F45 
 6349      56545F41 
 6349      45535F45 
 6349      4E435259 
 6350              	.LASF242:
 6351 1a03 43595F42 		.ascii	"CY_BLE_EVT_GET_TX_PWR_COMPLETE\000"
 6351      4C455F45 
 6351      56545F47 
 6351      45545F54 
 6351      585F5057 
 6352              	.LASF109:
ARM GAS  C:\Users\Brian\AppData\Local\Temp\ccBwD5Lv.s 			page 151


 6353 1a22 5F5F554C 		.ascii	"__ULong\000"
 6353      6F6E6700 
 6354              	.LASF148:
 6355 1a2a 5F626C6B 		.ascii	"_blksize\000"
 6355      73697A65 
 6355      00
 6356              	.LASF86:
 6357 1a33 73616D70 		.ascii	"sampleTime23\000"
 6357      6C655469 
 6357      6D653233 
 6357      00
 6358              	.LASF116:
 6359 1a40 5F5F746D 		.ascii	"__tm\000"
 6359      00
 6360              	.LASF208:
 6361 1a45 43595F42 		.ascii	"CY_BLE_EVT_TIMEOUT\000"
 6361      4C455F45 
 6361      56545F54 
 6361      494D454F 
 6361      555400
 6362              	.LASF151:
 6363 1a58 5F6C6F63 		.ascii	"_lock\000"
 6363      6B00
 6364              	.LASF169:
 6365 1a5e 5F637674 		.ascii	"_cvtlen\000"
 6365      6C656E00 
 6366              	.LASF15:
 6367 1a66 73697A65 		.ascii	"sizetype\000"
 6367      74797065 
 6367      00
 6368              	.LASF8:
 6369 1a6f 6C6F6E67 		.ascii	"long unsigned int\000"
 6369      20756E73 
 6369      69676E65 
 6369      6420696E 
 6369      7400
 6370              	.LASF330:
 6371 1a81 63795F73 		.ascii	"cy_stc_ble_gatt_handle_value_pair_t\000"
 6371      74635F62 
 6371      6C655F67 
 6371      6174745F 
 6371      68616E64 
 6372              	.LASF178:
 6373 1aa5 5F6E696F 		.ascii	"_niobs\000"
 6373      627300
 6374              	.LASF102:
 6375 1aac 77696E74 		.ascii	"wint_t\000"
 6375      5F7400
 6376              	.LASF377:
 6377 1ab3 75706461 		.ascii	"update_flash_config\000"
 6377      74655F66 
 6377      6C617368 
 6377      5F636F6E 
 6377      66696700 
 6378              	.LASF356:
 6379 1ac7 6877436F 		.ascii	"hwConfigStc\000"
 6379      6E666967 
ARM GAS  C:\Users\Brian\AppData\Local\Temp\ccBwD5Lv.s 			page 152


 6379      53746300 
 6380              	.LASF252:
 6381 1ad3 43595F42 		.ascii	"CY_BLE_EVT_RADIO_TEMPERATURE\000"
 6381      4C455F45 
 6381      56545F52 
 6381      4144494F 
 6381      5F54454D 
 6382              	.LASF366:
 6383 1af0 70696E4E 		.ascii	"pinNum\000"
 6383      756D00
 6384              	.LASF312:
 6385 1af7 43595F42 		.ascii	"CY_BLE_EVT_L2CAP_COMMAND_REJ\000"
 6385      4C455F45 
 6385      56545F4C 
 6385      32434150 
 6385      5F434F4D 
 6386              	.LASF128:
 6387 1b14 5F64736F 		.ascii	"_dso_handle\000"
 6387      5F68616E 
 6387      646C6500 
 6388              	.LASF307:
 6389 1b20 43595F42 		.ascii	"CY_BLE_EVT_GATTC_STOP_CMD_COMPLETE\000"
 6389      4C455F45 
 6389      56545F47 
 6389      41545443 
 6389      5F53544F 
 6390              	.LASF336:
 6391 1b43 43595F42 		.ascii	"CY_BLE_STATE_ON\000"
 6391      4C455F53 
 6391      54415445 
 6391      5F4F4E00 
 6392              	.LASF84:
 6393 1b53 73616D70 		.ascii	"sampleCtrl\000"
 6393      6C654374 
 6393      726C00
 6394              	.LASF362:
 6395 1b5e 74797065 		.ascii	"type\000"
 6395      00
 6396              	.LASF170:
 6397 1b63 5F637674 		.ascii	"_cvtbuf\000"
 6397      62756600 
 6398              	.LASF1:
 6399 1b6b 756E7369 		.ascii	"unsigned char\000"
 6399      676E6564 
 6399      20636861 
 6399      7200
 6400              	.LASF158:
 6401 1b79 5F737464 		.ascii	"_stderr\000"
 6401      65727200 
 6402              	.LASF306:
 6403 1b81 43595F42 		.ascii	"CY_BLE_EVT_GATTS_DATA_SIGNED_CMD_REQ\000"
 6403      4C455F45 
 6403      56545F47 
 6403      41545453 
 6403      5F444154 
 6404              	.LASF7:
 6405 1ba6 5F5F7569 		.ascii	"__uint32_t\000"
ARM GAS  C:\Users\Brian\AppData\Local\Temp\ccBwD5Lv.s 			page 153


 6405      6E743332 
 6405      5F7400
 6406              	.LASF40:
 6407 1bb1 4750494F 		.ascii	"GPIO_Type\000"
 6407      5F547970 
 6407      6500
 6408              	.LASF411:
 6409 1bbb 43795F42 		.ascii	"Cy_BLE_GAPP_StartAdvertisement\000"
 6409      4C455F47 
 6409      4150505F 
 6409      53746172 
 6409      74416476 
 6410              	.LASF23:
 6411 1bda 494E5452 		.ascii	"INTR_CFG\000"
 6411      5F434647 
 6411      00
 6412              	.LASF361:
 6413 1be3 75736572 		.ascii	"userCode\000"
 6413      436F6465 
 6413      00
 6414              	.LASF327:
 6415 1bec 63795F73 		.ascii	"cy_stc_ble_gatt_value_t\000"
 6415      74635F62 
 6415      6C655F67 
 6415      6174745F 
 6415      76616C75 
 6416              	.LASF231:
 6417 1c04 43595F42 		.ascii	"CY_BLE_EVT_REMOVE_DEVICE_FROM_WHITE_LIST_COMPLETE\000"
 6417      4C455F45 
 6417      56545F52 
 6417      454D4F56 
 6417      455F4445 
 6418              	.LASF221:
 6419 1c36 43595F42 		.ascii	"CY_BLE_EVT_GET_DATA_LENGTH_COMPLETE\000"
 6419      4C455F45 
 6419      56545F47 
 6419      45545F44 
 6419      4154415F 
 6420              	.LASF275:
 6421 1c5a 43595F42 		.ascii	"CY_BLE_EVT_GAPC_DIRECT_ADV_REPORT\000"
 6421      4C455F45 
 6421      56545F47 
 6421      4150435F 
 6421      44495245 
 6422              	.LASF124:
 6423 1c7c 5F5F746D 		.ascii	"__tm_yday\000"
 6423      5F796461 
 6423      7900
 6424              	.LASF311:
 6425 1c86 43595F42 		.ascii	"CY_BLE_EVT_L2CAP_CONN_PARAM_UPDATE_RSP\000"
 6425      4C455F45 
 6425      56545F4C 
 6425      32434150 
 6425      5F434F4E 
 6426              	.LASF48:
 6427 1cad 5F426F6F 		.ascii	"_Bool\000"
 6427      6C00
ARM GAS  C:\Users\Brian\AppData\Local\Temp\ccBwD5Lv.s 			page 154


 6428              	.LASF358:
 6429 1cb3 636C6B44 		.ascii	"clkDivider\000"
 6429      69766964 
 6429      657200
 6430              	.LASF134:
 6431 1cbe 5F5F7362 		.ascii	"__sbuf\000"
 6431      756600
 6432              	.LASF400:
 6433 1cc5 6C6F7765 		.ascii	"lower_thresh\000"
 6433      725F7468 
 6433      72657368 
 6433      00
 6434              	.LASF287:
 6435 1cd2 43595F42 		.ascii	"CY_BLE_EVT_GATT_DISCONNECT_IND\000"
 6435      4C455F45 
 6435      56545F47 
 6435      4154545F 
 6435      44495343 
 6436              	.LASF393:
 6437 1cf1 4144435F 		.ascii	"ADC_currentConfig\000"
 6437      63757272 
 6437      656E7443 
 6437      6F6E6669 
 6437      6700
 6438              	.LASF369:
 6439 1d03 6576656E 		.ascii	"event_byte_arr\000"
 6439      745F6279 
 6439      74655F61 
 6439      727200
 6440              	.LASF177:
 6441 1d12 5F676C75 		.ascii	"_glue\000"
 6441      6500
 6442              	.LASF302:
 6443 1d18 43595F42 		.ascii	"CY_BLE_EVT_GATTC_EXEC_WRITE_RSP\000"
 6443      4C455F45 
 6443      56545F47 
 6443      41545443 
 6443      5F455845 
 6444              	.LASF288:
 6445 1d38 43595F42 		.ascii	"CY_BLE_EVT_GATTS_XCNHG_MTU_REQ\000"
 6445      4C455F45 
 6445      56545F47 
 6445      41545453 
 6445      5F58434E 
 6446              	.LASF174:
 6447 1d57 5F5F7367 		.ascii	"__sglue\000"
 6447      6C756500 
 6448              	.LASF196:
 6449 1d5f 5F676574 		.ascii	"_getdate_err\000"
 6449      64617465 
 6449      5F657272 
 6449      00
 6450              	.LASF185:
 6451 1d6c 5F737472 		.ascii	"_strtok_last\000"
 6451      746F6B5F 
 6451      6C617374 
 6451      00
ARM GAS  C:\Users\Brian\AppData\Local\Temp\ccBwD5Lv.s 			page 155


 6452              	.LASF192:
 6453 1d79 5F6D6274 		.ascii	"_mbtowc_state\000"
 6453      6F77635F 
 6453      73746174 
 6453      6500
 6454              	.LASF322:
 6455 1d87 62644861 		.ascii	"bdHandle\000"
 6455      6E646C65 
 6455      00
 6456              	.LASF392:
 6457 1d90 55415254 		.ascii	"UART_context\000"
 6457      5F636F6E 
 6457      74657874 
 6457      00
 6458              	.LASF37:
 6459 1d9d 5644445F 		.ascii	"VDD_INTR_MASK\000"
 6459      494E5452 
 6459      5F4D4153 
 6459      4B00
 6460              	.LASF127:
 6461 1dab 5F666E61 		.ascii	"_fnargs\000"
 6461      72677300 
 6462              	.LASF2:
 6463 1db3 7369676E 		.ascii	"signed char\000"
 6463      65642063 
 6463      68617200 
 6464              	.LASF70:
 6465 1dbf 43595F46 		.ascii	"CY_FLASH_DRV_IPC_BUSY\000"
 6465      4C415348 
 6465      5F445256 
 6465      5F495043 
 6465      5F425553 
 6466              	.LASF154:
 6467 1dd5 5F726565 		.ascii	"_reent\000"
 6467      6E7400
 6468              	.LASF5:
 6469 1ddc 73686F72 		.ascii	"short unsigned int\000"
 6469      7420756E 
 6469      7369676E 
 6469      65642069 
 6469      6E7400
 6470              	.LASF75:
 6471 1def 43595F46 		.ascii	"CY_FLASH_DRV_OPERATION_STARTED\000"
 6471      4C415348 
 6471      5F445256 
 6471      5F4F5045 
 6471      52415449 
 6472              	.LASF259:
 6473 1e0e 43595F42 		.ascii	"CY_BLE_EVT_GAP_AUTH_REQ\000"
 6473      4C455F45 
 6473      56545F47 
 6473      41505F41 
 6473      5554485F 
 6474              	.LASF299:
 6475 1e26 43595F42 		.ascii	"CY_BLE_EVT_GATTS_WRITE_CMD_REQ\000"
 6475      4C455F45 
 6475      56545F47 
ARM GAS  C:\Users\Brian\AppData\Local\Temp\ccBwD5Lv.s 			page 156


 6475      41545453 
 6475      5F575249 
 6476              	.LASF244:
 6477 1e45 43595F42 		.ascii	"CY_BLE_EVT_GET_CLK_CONFIG_COMPLETE\000"
 6477      4C455F45 
 6477      56545F47 
 6477      45545F43 
 6477      4C4B5F43 
 6478              	.LASF357:
 6479 1e68 6D697363 		.ascii	"miscConfig\000"
 6479      436F6E66 
 6479      696700
 6480              	.LASF255:
 6481 1e73 43595F42 		.ascii	"CY_BLE_EVT_SET_EVENT_MASK_COMPLETE\000"
 6481      4C455F45 
 6481      56545F53 
 6481      45545F45 
 6481      56454E54 
 6482              	.LASF129:
 6483 1e96 5F666E74 		.ascii	"_fntypes\000"
 6483      79706573 
 6483      00
 6484              	.LASF137:
 6485 1e9f 5F5F7346 		.ascii	"__sFILE\000"
 6485      494C4500 
 6486              	.LASF310:
 6487 1ea7 43595F42 		.ascii	"CY_BLE_EVT_L2CAP_CONN_PARAM_UPDATE_REQ\000"
 6487      4C455F45 
 6487      56545F4C 
 6487      32434150 
 6487      5F434F4E 
 6488              	.LASF136:
 6489 1ece 5F73697A 		.ascii	"_size\000"
 6489      6500
 6490              	.LASF96:
 6491 1ed4 636F6E66 		.ascii	"configRouting\000"
 6491      6967526F 
 6491      7574696E 
 6491      6700
 6492              	.LASF193:
 6493 1ee2 5F776374 		.ascii	"_wctomb_state\000"
 6493      6F6D625F 
 6493      73746174 
 6493      6500
 6494              	.LASF100:
 6495 1ef0 5F6F6666 		.ascii	"_off_t\000"
 6495      5F7400
 6496              	.LASF77:
 6497 1ef7 63795F65 		.ascii	"cy_en_flashdrv_status_t\000"
 6497      6E5F666C 
 6497      61736864 
 6497      72765F73 
 6497      74617475 
 6498              	.LASF147:
 6499 1f0f 5F6E6275 		.ascii	"_nbuf\000"
 6499      6600
 6500              	.LASF184:
ARM GAS  C:\Users\Brian\AppData\Local\Temp\ccBwD5Lv.s 			page 157


 6501 1f15 5F756E75 		.ascii	"_unused_rand\000"
 6501      7365645F 
 6501      72616E64 
 6501      00
 6502              	.LASF404:
 6503 1f22 73656E64 		.ascii	"send_threshold\000"
 6503      5F746872 
 6503      6573686F 
 6503      6C6400
 6504              	.LASF93:
 6505 1f31 72616E67 		.ascii	"rangeIntrMask\000"
 6505      65496E74 
 6505      724D6173 
 6505      6B00
 6506              	.LASF202:
 6507 1f3f 5F685F65 		.ascii	"_h_errno\000"
 6507      72726E6F 
 6507      00
 6508              	.LASF82:
 6509 1f48 63795F65 		.ascii	"cy_en_sar_range_detect_condition_t\000"
 6509      6E5F7361 
 6509      725F7261 
 6509      6E67655F 
 6509      64657465 
 6510              	.LASF261:
 6511 1f6b 43595F42 		.ascii	"CY_BLE_EVT_GAP_PASSKEY_DISPLAY_REQUEST\000"
 6511      4C455F45 
 6511      56545F47 
 6511      41505F50 
 6511      4153534B 
 6512              	.LASF153:
 6513 1f92 5F666C61 		.ascii	"_flags2\000"
 6513      67733200 
 6514              	.LASF280:
 6515 1f9a 43595F42 		.ascii	"CY_BLE_EVT_GAP_GEN_SET_LOCAL_P256_KEYS_COMPLETE\000"
 6515      4C455F45 
 6515      56545F47 
 6515      41505F47 
 6515      454E5F53 
 6516              	.LASF130:
 6517 1fca 5F69735F 		.ascii	"_is_cxa\000"
 6517      63786100 
 6518              	.LASF263:
 6519 1fd2 43595F42 		.ascii	"CY_BLE_EVT_GAP_AUTH_FAILED\000"
 6519      4C455F45 
 6519      56545F47 
 6519      41505F41 
 6519      5554485F 
 6520              	.LASF56:
 6521 1fed 72784275 		.ascii	"rxBuf\000"
 6521      6600
 6522              	.LASF235:
 6523 1ff3 43595F42 		.ascii	"CY_BLE_EVT_PHY_UPDATE_COMPLETE\000"
 6523      4C455F45 
 6523      56545F50 
 6523      48595F55 
 6523      50444154 
ARM GAS  C:\Users\Brian\AppData\Local\Temp\ccBwD5Lv.s 			page 158


 6524              	.LASF189:
 6525 2012 5F72616E 		.ascii	"_rand_next\000"
 6525      645F6E65 
 6525      787400
 6526              	.LASF144:
 6527 201d 5F736565 		.ascii	"_seek\000"
 6527      6B00
 6528              	.LASF112:
 6529 2023 5F6E6578 		.ascii	"_next\000"
 6529      7400
 6530              	.LASF346:
 6531 2029 43595F42 		.ascii	"CY_BLE_CONN_STATE_CLIENT_SRVC_DISCOVERING\000"
 6531      4C455F43 
 6531      4F4E4E5F 
 6531      53544154 
 6531      455F434C 
 6532              	.LASF204:
 6533 2053 5F6E6D61 		.ascii	"_nmalloc\000"
 6533      6C6C6F63 
 6533      00
 6534              	.LASF146:
 6535 205c 5F756275 		.ascii	"_ubuf\000"
 6535      6600
 6536              	.LASF57:
 6537 2062 72784275 		.ascii	"rxBufSize\000"
 6537      6653697A 
 6537      6500
 6538              	.LASF391:
 6539 206c 63795F62 		.ascii	"cy_ble_pendingFlashWrite\000"
 6539      6C655F70 
 6539      656E6469 
 6539      6E67466C 
 6539      61736857 
 6540              	.LASF268:
 6541 2085 43595F42 		.ascii	"CY_BLE_EVT_GAP_CONNECTION_UPDATE_COMPLETE\000"
 6541      4C455F45 
 6541      56545F47 
 6541      41505F43 
 6541      4F4E4E45 
 6542              		.ident	"GCC: (GNU Tools for ARM Embedded Processors) 5.4.1 20160609 (release) [ARM/embedded-5-bran
