ARM GAS  C:\Users\Brian\AppData\Local\Temp\ccRcp4rf.s 			page 1


   1              		.syntax unified
   2              		.cpu cortex-m0plus
   3              		.fpu softvfp
   4              		.eabi_attribute 20, 1
   5              		.eabi_attribute 21, 1
   6              		.eabi_attribute 23, 3
   7              		.eabi_attribute 24, 1
   8              		.eabi_attribute 25, 1
   9              		.eabi_attribute 26, 1
  10              		.eabi_attribute 30, 1
  11              		.eabi_attribute 34, 0
  12              		.eabi_attribute 18, 4
  13              		.thumb
  14              		.syntax unified
  15              		.file	"cy_ble_gatt.c"
  16              		.text
  17              	.Ltext0:
  18              		.cfi_sections	.debug_frame
  19              		.section	.text.Cy_BLE_GATTS_ReInitGattDb,"ax",%progbits
  20              		.align	2
  21              		.global	Cy_BLE_GATTS_ReInitGattDb
  22              		.code	16
  23              		.thumb_func
  24              		.type	Cy_BLE_GATTS_ReInitGattDb, %function
  25              	Cy_BLE_GATTS_ReInitGattDb:
  26              	.LFB158:
  27              		.file 1 "Generated_Source\\PSoC6\\pdl\\middleware\\ble\\cy_ble_gatt.c"
   1:Generated_Source\PSoC6\pdl\middleware\ble/cy_ble_gatt.c **** /***************************************************************************//**
   2:Generated_Source\PSoC6\pdl\middleware\ble/cy_ble_gatt.c **** * \file cy_ble_gatt.c
   3:Generated_Source\PSoC6\pdl\middleware\ble/cy_ble_gatt.c **** * \version 2.20
   4:Generated_Source\PSoC6\pdl\middleware\ble/cy_ble_gatt.c **** *
   5:Generated_Source\PSoC6\pdl\middleware\ble/cy_ble_gatt.c **** * \brief
   6:Generated_Source\PSoC6\pdl\middleware\ble/cy_ble_gatt.c **** *  This file contains the source code for the GATT API of the BLE Middleware.
   7:Generated_Source\PSoC6\pdl\middleware\ble/cy_ble_gatt.c **** *
   8:Generated_Source\PSoC6\pdl\middleware\ble/cy_ble_gatt.c **** ********************************************************************************
   9:Generated_Source\PSoC6\pdl\middleware\ble/cy_ble_gatt.c **** * \copyright
  10:Generated_Source\PSoC6\pdl\middleware\ble/cy_ble_gatt.c **** * Copyright 2017-2018, Cypress Semiconductor Corporation.  All rights reserved.
  11:Generated_Source\PSoC6\pdl\middleware\ble/cy_ble_gatt.c **** * You may use this file only in accordance with the license, terms, conditions,
  12:Generated_Source\PSoC6\pdl\middleware\ble/cy_ble_gatt.c **** * disclaimers, and limitations in the end user license agreement accompanying
  13:Generated_Source\PSoC6\pdl\middleware\ble/cy_ble_gatt.c **** * the software package with which this file was provided.
  14:Generated_Source\PSoC6\pdl\middleware\ble/cy_ble_gatt.c **** *******************************************************************************/
  15:Generated_Source\PSoC6\pdl\middleware\ble/cy_ble_gatt.c **** 
  16:Generated_Source\PSoC6\pdl\middleware\ble/cy_ble_gatt.c **** 
  17:Generated_Source\PSoC6\pdl\middleware\ble/cy_ble_gatt.c **** #include "cy_ble_event_handler.h"
  18:Generated_Source\PSoC6\pdl\middleware\ble/cy_ble_gatt.c **** #include "cy_ble_gap.h"
  19:Generated_Source\PSoC6\pdl\middleware\ble/cy_ble_gatt.c **** 
  20:Generated_Source\PSoC6\pdl\middleware\ble/cy_ble_gatt.c **** /* C binding of definitions if building with C++ compiler */
  21:Generated_Source\PSoC6\pdl\middleware\ble/cy_ble_gatt.c **** #ifdef __cplusplus
  22:Generated_Source\PSoC6\pdl\middleware\ble/cy_ble_gatt.c **** extern "C" {
  23:Generated_Source\PSoC6\pdl\middleware\ble/cy_ble_gatt.c **** #endif /* __cplusplus */
  24:Generated_Source\PSoC6\pdl\middleware\ble/cy_ble_gatt.c **** 
  25:Generated_Source\PSoC6\pdl\middleware\ble/cy_ble_gatt.c **** #if (CY_BLE_MODE_PROFILE)
  26:Generated_Source\PSoC6\pdl\middleware\ble/cy_ble_gatt.c **** 
  27:Generated_Source\PSoC6\pdl\middleware\ble/cy_ble_gatt.c **** /***************************************
  28:Generated_Source\PSoC6\pdl\middleware\ble/cy_ble_gatt.c **** * Global variables
  29:Generated_Source\PSoC6\pdl\middleware\ble/cy_ble_gatt.c **** ***************************************/
  30:Generated_Source\PSoC6\pdl\middleware\ble/cy_ble_gatt.c **** #if (CY_BLE_GATT_ROLE_SERVER)
ARM GAS  C:\Users\Brian\AppData\Local\Temp\ccRcp4rf.s 			page 2


  31:Generated_Source\PSoC6\pdl\middleware\ble/cy_ble_gatt.c **** 
  32:Generated_Source\PSoC6\pdl\middleware\ble/cy_ble_gatt.c **** #if (CY_BLE_GATT_DB_CCCD_COUNT != 0u)
  33:Generated_Source\PSoC6\pdl\middleware\ble/cy_ble_gatt.c **** uint8_t cy_ble_attValuesCccdMultiple[CY_BLE_CONN_COUNT][CY_BLE_GATT_DB_CCCD_COUNT + CY_BLE_CCCD_CRC
  34:Generated_Source\PSoC6\pdl\middleware\ble/cy_ble_gatt.c **** #endif  /* (CY_BLE_GATT_DB_CCCD_COUNT != 0u) */
  35:Generated_Source\PSoC6\pdl\middleware\ble/cy_ble_gatt.c **** 
  36:Generated_Source\PSoC6\pdl\middleware\ble/cy_ble_gatt.c **** 
  37:Generated_Source\PSoC6\pdl\middleware\ble/cy_ble_gatt.c **** /******************************************************************************
  38:Generated_Source\PSoC6\pdl\middleware\ble/cy_ble_gatt.c **** * Function Name: Cy_BLE_GATTS_ReInitGattDb
  39:Generated_Source\PSoC6\pdl\middleware\ble/cy_ble_gatt.c **** ***************************************************************************//**
  40:Generated_Source\PSoC6\pdl\middleware\ble/cy_ble_gatt.c **** *
  41:Generated_Source\PSoC6\pdl\middleware\ble/cy_ble_gatt.c **** *  Reinitializes the GATT database.
  42:Generated_Source\PSoC6\pdl\middleware\ble/cy_ble_gatt.c **** *
  43:Generated_Source\PSoC6\pdl\middleware\ble/cy_ble_gatt.c **** *  \return
  44:Generated_Source\PSoC6\pdl\middleware\ble/cy_ble_gatt.c **** *  \ref cy_en_ble_api_result_t: A function result states if it succeeded or failed with
  45:Generated_Source\PSoC6\pdl\middleware\ble/cy_ble_gatt.c **** *  error codes:
  46:Generated_Source\PSoC6\pdl\middleware\ble/cy_ble_gatt.c **** *
  47:Generated_Source\PSoC6\pdl\middleware\ble/cy_ble_gatt.c **** *  Error Codes                          | Description
  48:Generated_Source\PSoC6\pdl\middleware\ble/cy_ble_gatt.c **** *  ------------                         | -----------
  49:Generated_Source\PSoC6\pdl\middleware\ble/cy_ble_gatt.c **** *  CY_BLE_SUCCESS                       | GATT database was reinitialized successfully.
  50:Generated_Source\PSoC6\pdl\middleware\ble/cy_ble_gatt.c **** *  CY_BLE_ERROR_INVALID_STATE           | If the function is called in any state except CY_BLE_STAT
  51:Generated_Source\PSoC6\pdl\middleware\ble/cy_ble_gatt.c **** *
  52:Generated_Source\PSoC6\pdl\middleware\ble/cy_ble_gatt.c **** ******************************************************************************/
  53:Generated_Source\PSoC6\pdl\middleware\ble/cy_ble_gatt.c **** cy_en_ble_api_result_t Cy_BLE_GATTS_ReInitGattDb(void)
  54:Generated_Source\PSoC6\pdl\middleware\ble/cy_ble_gatt.c **** {
  28              		.loc 1 54 0
  29              		.cfi_startproc
  30              		@ args = 0, pretend = 0, frame = 8
  31              		@ frame_needed = 0, uses_anonymous_args = 0
  32 0000 00B5     		push	{lr}
  33              		.cfi_def_cfa_offset 4
  34              		.cfi_offset 14, -4
  35 0002 83B0     		sub	sp, sp, #12
  36              		.cfi_def_cfa_offset 16
  55:Generated_Source\PSoC6\pdl\middleware\ble/cy_ble_gatt.c ****     cy_en_ble_api_result_t apiResult;
  56:Generated_Source\PSoC6\pdl\middleware\ble/cy_ble_gatt.c **** 
  57:Generated_Source\PSoC6\pdl\middleware\ble/cy_ble_gatt.c ****     if(Cy_BLE_GetState() == CY_BLE_STATE_ON)
  37              		.loc 1 57 0
  38 0004 0A4B     		ldr	r3, .L4
  39 0006 1B78     		ldrb	r3, [r3]
  40 0008 022B     		cmp	r3, #2
  41 000a 0DD1     		bne	.L3
  42              	.LBB14:
  58:Generated_Source\PSoC6\pdl\middleware\ble/cy_ble_gatt.c ****     {
  59:Generated_Source\PSoC6\pdl\middleware\ble/cy_ble_gatt.c ****         cy_stc_ble_gatts_db_info_t dbInfoParam =
  60:Generated_Source\PSoC6\pdl\middleware\ble/cy_ble_gatt.c ****         {
  61:Generated_Source\PSoC6\pdl\middleware\ble/cy_ble_gatt.c ****             .gattDbPtr          = cy_ble_configPtr->gattDB,
  43              		.loc 1 61 0
  44 000c 094B     		ldr	r3, .L4+4
  45 000e 1B68     		ldr	r3, [r3]
  59:Generated_Source\PSoC6\pdl\middleware\ble/cy_ble_gatt.c ****         {
  46              		.loc 1 59 0
  47 0010 1A6A     		ldr	r2, [r3, #32]
  48 0012 0092     		str	r2, [sp]
  62:Generated_Source\PSoC6\pdl\middleware\ble/cy_ble_gatt.c ****             .gattDbTotalEntries = cy_ble_configPtr->params->gattDbIndexCount,
  49              		.loc 1 62 0
  50 0014 9B6A     		ldr	r3, [r3, #40]
  51 0016 DB88     		ldrh	r3, [r3, #6]
ARM GAS  C:\Users\Brian\AppData\Local\Temp\ccRcp4rf.s 			page 3


  59:Generated_Source\PSoC6\pdl\middleware\ble/cy_ble_gatt.c ****         {
  52              		.loc 1 59 0
  53 0018 6A46     		mov	r2, sp
  54 001a 9380     		strh	r3, [r2, #4]
  55 001c 1423     		movs	r3, #20
  56 001e D380     		strh	r3, [r2, #6]
  63:Generated_Source\PSoC6\pdl\middleware\ble/cy_ble_gatt.c ****             .gattDbMaxValue     = CY_BLE_GATT_DB_MAX_VALUE_LEN
  64:Generated_Source\PSoC6\pdl\middleware\ble/cy_ble_gatt.c ****         };
  65:Generated_Source\PSoC6\pdl\middleware\ble/cy_ble_gatt.c ****         apiResult = Cy_BLE_GATTS_DbRegister(&dbInfoParam);
  57              		.loc 1 65 0
  58 0020 6846     		mov	r0, sp
  59 0022 FFF7FEFF 		bl	Cy_BLE_GATTS_DbRegister
  60              	.LVL0:
  61              	.LBE14:
  62 0026 00E0     		b	.L2
  63              	.LVL1:
  64              	.L3:
  66:Generated_Source\PSoC6\pdl\middleware\ble/cy_ble_gatt.c ****     }
  67:Generated_Source\PSoC6\pdl\middleware\ble/cy_ble_gatt.c ****     else
  68:Generated_Source\PSoC6\pdl\middleware\ble/cy_ble_gatt.c ****     {
  69:Generated_Source\PSoC6\pdl\middleware\ble/cy_ble_gatt.c ****         apiResult = CY_BLE_ERROR_INVALID_STATE;
  65              		.loc 1 69 0
  66 0028 0348     		ldr	r0, .L4+8
  67              	.L2:
  68              	.LVL2:
  70:Generated_Source\PSoC6\pdl\middleware\ble/cy_ble_gatt.c ****     }
  71:Generated_Source\PSoC6\pdl\middleware\ble/cy_ble_gatt.c **** 
  72:Generated_Source\PSoC6\pdl\middleware\ble/cy_ble_gatt.c ****     return(apiResult);
  73:Generated_Source\PSoC6\pdl\middleware\ble/cy_ble_gatt.c **** }
  69              		.loc 1 73 0
  70 002a 03B0     		add	sp, sp, #12
  71              		@ sp needed
  72 002c 00BD     		pop	{pc}
  73              	.L5:
  74 002e C046     		.align	2
  75              	.L4:
  76 0030 00000000 		.word	cy_ble_state
  77 0034 00000000 		.word	cy_ble_configPtr
  78 0038 FF001600 		.word	1442047
  79              		.cfi_endproc
  80              	.LFE158:
  81              		.size	Cy_BLE_GATTS_ReInitGattDb, .-Cy_BLE_GATTS_ReInitGattDb
  82              		.section	.text.Cy_BLE_GATTS_WriteAttributeValueCCCD,"ax",%progbits
  83              		.align	2
  84              		.global	Cy_BLE_GATTS_WriteAttributeValueCCCD
  85              		.code	16
  86              		.thumb_func
  87              		.type	Cy_BLE_GATTS_WriteAttributeValueCCCD, %function
  88              	Cy_BLE_GATTS_WriteAttributeValueCCCD:
  89              	.LFB160:
  74:Generated_Source\PSoC6\pdl\middleware\ble/cy_ble_gatt.c **** 
  75:Generated_Source\PSoC6\pdl\middleware\ble/cy_ble_gatt.c **** 
  76:Generated_Source\PSoC6\pdl\middleware\ble/cy_ble_gatt.c **** /******************************************************************************
  77:Generated_Source\PSoC6\pdl\middleware\ble/cy_ble_gatt.c **** * Function Name: Cy_BLE_GATTS_WriteEventHandler
  78:Generated_Source\PSoC6\pdl\middleware\ble/cy_ble_gatt.c **** ***************************************************************************//**
  79:Generated_Source\PSoC6\pdl\middleware\ble/cy_ble_gatt.c **** *
  80:Generated_Source\PSoC6\pdl\middleware\ble/cy_ble_gatt.c **** *  Handles the Write Request Event for GATT service.
ARM GAS  C:\Users\Brian\AppData\Local\Temp\ccRcp4rf.s 			page 4


  81:Generated_Source\PSoC6\pdl\middleware\ble/cy_ble_gatt.c **** *
  82:Generated_Source\PSoC6\pdl\middleware\ble/cy_ble_gatt.c **** *  \param eventParam: The pointer to the data structure specified by the event.
  83:Generated_Source\PSoC6\pdl\middleware\ble/cy_ble_gatt.c **** *
  84:Generated_Source\PSoC6\pdl\middleware\ble/cy_ble_gatt.c **** *  \return
  85:Generated_Source\PSoC6\pdl\middleware\ble/cy_ble_gatt.c **** *  \ref cy_en_ble_gatt_err_code_t: A function returns one of the following status
  86:Generated_Source\PSoC6\pdl\middleware\ble/cy_ble_gatt.c **** *  values.
  87:Generated_Source\PSoC6\pdl\middleware\ble/cy_ble_gatt.c **** *
  88:Generated_Source\PSoC6\pdl\middleware\ble/cy_ble_gatt.c **** ******************************************************************************/
  89:Generated_Source\PSoC6\pdl\middleware\ble/cy_ble_gatt.c **** cy_en_ble_gatt_err_code_t Cy_BLE_GATTS_WriteEventHandler(cy_stc_ble_gatts_write_cmd_req_param_t *ev
  90:Generated_Source\PSoC6\pdl\middleware\ble/cy_ble_gatt.c **** {
  91:Generated_Source\PSoC6\pdl\middleware\ble/cy_ble_gatt.c ****     cy_en_ble_gatt_err_code_t gattErr = CY_BLE_GATT_ERR_NONE;
  92:Generated_Source\PSoC6\pdl\middleware\ble/cy_ble_gatt.c **** 
  93:Generated_Source\PSoC6\pdl\middleware\ble/cy_ble_gatt.c ****     /* Client Characteristic Configuration descriptor write request */
  94:Generated_Source\PSoC6\pdl\middleware\ble/cy_ble_gatt.c ****     if(eventParam->handleValPair.attrHandle == cy_ble_configPtr->gatts->cccdHandle)
  95:Generated_Source\PSoC6\pdl\middleware\ble/cy_ble_gatt.c ****     {
  96:Generated_Source\PSoC6\pdl\middleware\ble/cy_ble_gatt.c ****         /* Store value to database */
  97:Generated_Source\PSoC6\pdl\middleware\ble/cy_ble_gatt.c ****         cy_stc_ble_gatts_db_attr_val_info_t dbAttrValInfo =
  98:Generated_Source\PSoC6\pdl\middleware\ble/cy_ble_gatt.c ****         {
  99:Generated_Source\PSoC6\pdl\middleware\ble/cy_ble_gatt.c ****             .handleValuePair = eventParam->handleValPair,
 100:Generated_Source\PSoC6\pdl\middleware\ble/cy_ble_gatt.c ****             .connHandle      = eventParam->connHandle,
 101:Generated_Source\PSoC6\pdl\middleware\ble/cy_ble_gatt.c ****             .flags           = CY_BLE_GATT_DB_PEER_INITIATED,
 102:Generated_Source\PSoC6\pdl\middleware\ble/cy_ble_gatt.c ****             .offset          = 0u
 103:Generated_Source\PSoC6\pdl\middleware\ble/cy_ble_gatt.c ****         };
 104:Generated_Source\PSoC6\pdl\middleware\ble/cy_ble_gatt.c **** 
 105:Generated_Source\PSoC6\pdl\middleware\ble/cy_ble_gatt.c ****         gattErr = Cy_BLE_GATTS_WriteAttributeValueCCCD(&dbAttrValInfo);
 106:Generated_Source\PSoC6\pdl\middleware\ble/cy_ble_gatt.c ****         if(gattErr == CY_BLE_GATT_ERR_NONE)
 107:Generated_Source\PSoC6\pdl\middleware\ble/cy_ble_gatt.c ****         {
 108:Generated_Source\PSoC6\pdl\middleware\ble/cy_ble_gatt.c ****             if(CY_BLE_IS_INDICATION_ENABLED_IN_PTR(eventParam->handleValPair.value.val))
 109:Generated_Source\PSoC6\pdl\middleware\ble/cy_ble_gatt.c ****             {
 110:Generated_Source\PSoC6\pdl\middleware\ble/cy_ble_gatt.c ****                 Cy_BLE_ApplCallback((uint32_t)CY_BLE_EVT_GATTS_INDICATION_ENABLED, eventParam);
 111:Generated_Source\PSoC6\pdl\middleware\ble/cy_ble_gatt.c ****             }
 112:Generated_Source\PSoC6\pdl\middleware\ble/cy_ble_gatt.c ****             else
 113:Generated_Source\PSoC6\pdl\middleware\ble/cy_ble_gatt.c ****             {
 114:Generated_Source\PSoC6\pdl\middleware\ble/cy_ble_gatt.c ****                 Cy_BLE_ApplCallback((uint32_t)CY_BLE_EVT_GATTS_INDICATION_DISABLED, eventParam);
 115:Generated_Source\PSoC6\pdl\middleware\ble/cy_ble_gatt.c ****             }
 116:Generated_Source\PSoC6\pdl\middleware\ble/cy_ble_gatt.c ****         }
 117:Generated_Source\PSoC6\pdl\middleware\ble/cy_ble_gatt.c ****         cy_ble_eventHandlerFlag &= (uint8_t) ~CY_BLE_CALLBACK;
 118:Generated_Source\PSoC6\pdl\middleware\ble/cy_ble_gatt.c ****     }
 119:Generated_Source\PSoC6\pdl\middleware\ble/cy_ble_gatt.c **** 
 120:Generated_Source\PSoC6\pdl\middleware\ble/cy_ble_gatt.c ****     return(gattErr);
 121:Generated_Source\PSoC6\pdl\middleware\ble/cy_ble_gatt.c **** }
 122:Generated_Source\PSoC6\pdl\middleware\ble/cy_ble_gatt.c **** 
 123:Generated_Source\PSoC6\pdl\middleware\ble/cy_ble_gatt.c **** 
 124:Generated_Source\PSoC6\pdl\middleware\ble/cy_ble_gatt.c **** /******************************************************************************
 125:Generated_Source\PSoC6\pdl\middleware\ble/cy_ble_gatt.c **** * Function Name: Cy_BLE_GATTS_WriteAttributeValueCCCD
 126:Generated_Source\PSoC6\pdl\middleware\ble/cy_ble_gatt.c **** ***************************************************************************//**
 127:Generated_Source\PSoC6\pdl\middleware\ble/cy_ble_gatt.c **** *
 128:Generated_Source\PSoC6\pdl\middleware\ble/cy_ble_gatt.c **** *  This function extends Cy_BLE_GATTS_WriteAttributeValue() API to support 
 129:Generated_Source\PSoC6\pdl\middleware\ble/cy_ble_gatt.c **** *  storing of separate CCCD values for each (separate) connections.
 130:Generated_Source\PSoC6\pdl\middleware\ble/cy_ble_gatt.c **** *
 131:Generated_Source\PSoC6\pdl\middleware\ble/cy_ble_gatt.c **** *  This function is used to write to the value field of the specified attribute
 132:Generated_Source\PSoC6\pdl\middleware\ble/cy_ble_gatt.c **** *  in the GATT database of a GATT Server. If attribute is CCCD, the value is 
 133:Generated_Source\PSoC6\pdl\middleware\ble/cy_ble_gatt.c **** *  stored in specific CCCD storages.
 134:Generated_Source\PSoC6\pdl\middleware\ble/cy_ble_gatt.c **** *  This is a blocking function. No event is generated on calling this function.
 135:Generated_Source\PSoC6\pdl\middleware\ble/cy_ble_gatt.c **** *
 136:Generated_Source\PSoC6\pdl\middleware\ble/cy_ble_gatt.c **** *  If a peer device connected to the GATT Server initiates a write operation,
 137:Generated_Source\PSoC6\pdl\middleware\ble/cy_ble_gatt.c **** *  this function is executed on the GATT Server. During such a call, the function
ARM GAS  C:\Users\Brian\AppData\Local\Temp\ccRcp4rf.s 			page 5


 138:Generated_Source\PSoC6\pdl\middleware\ble/cy_ble_gatt.c **** *  checks for the attribute permissions (flags) before executing the write
 139:Generated_Source\PSoC6\pdl\middleware\ble/cy_ble_gatt.c **** *  operation by calling.
 140:Generated_Source\PSoC6\pdl\middleware\ble/cy_ble_gatt.c **** *
 141:Generated_Source\PSoC6\pdl\middleware\ble/cy_ble_gatt.c **** *  \param param: Parameter is of type \ref cy_stc_ble_gatts_db_attr_val_info_t.
 142:Generated_Source\PSoC6\pdl\middleware\ble/cy_ble_gatt.c **** *
 143:Generated_Source\PSoC6\pdl\middleware\ble/cy_ble_gatt.c **** * \return
 144:Generated_Source\PSoC6\pdl\middleware\ble/cy_ble_gatt.c **** *  \ref cy_en_ble_gatt_err_code_t : Return value indicates if the function succeeded or
 145:Generated_Source\PSoC6\pdl\middleware\ble/cy_ble_gatt.c **** *  failed. The following are possible error codes:
 146:Generated_Source\PSoC6\pdl\middleware\ble/cy_ble_gatt.c **** *
 147:Generated_Source\PSoC6\pdl\middleware\ble/cy_ble_gatt.c **** *  Errors codes                                | Description
 148:Generated_Source\PSoC6\pdl\middleware\ble/cy_ble_gatt.c **** *  ------------                                | -----------
 149:Generated_Source\PSoC6\pdl\middleware\ble/cy_ble_gatt.c **** *  CY_BLE_GATT_ERR_NONE                        | On successful operation.
 150:Generated_Source\PSoC6\pdl\middleware\ble/cy_ble_gatt.c **** *  CY_BLE_GATT_ERR_INVALID_HANDLE              | 'handleValuePair.attrHandle' is not valid.
 151:Generated_Source\PSoC6\pdl\middleware\ble/cy_ble_gatt.c **** *  CY_BLE_GATT_ERR_WRITE_NOT_PERMITTED         | write operation is not permitted on this attribute
 152:Generated_Source\PSoC6\pdl\middleware\ble/cy_ble_gatt.c **** *  CY_BLE_GATT_ERR_UNLIKELY_ERROR              | Invalid arguments passed.
 153:Generated_Source\PSoC6\pdl\middleware\ble/cy_ble_gatt.c **** *  CY_BLE_GATT_ERR_INSUFFICIENT_ENCRYPTION     | Link is not encrypted (Peer Initiated).
 154:Generated_Source\PSoC6\pdl\middleware\ble/cy_ble_gatt.c **** *  CY_BLE_GATT_ERR_INSUFFICIENT_ENC_KEY_SIZE   | Link is encrypted with insufficient key size (Peer
 155:Generated_Source\PSoC6\pdl\middleware\ble/cy_ble_gatt.c **** *  CY_BLE_GATT_ERR_INSUFFICIENT_AUTHENTICATION | Link is un-authenticated (Peer Initiated).
 156:Generated_Source\PSoC6\pdl\middleware\ble/cy_ble_gatt.c **** *  CY_BLE_GATT_ERR_INSUFFICIENT_AUTHORIZATION  | Peer client is not authorized (Peer Initiated).
 157:Generated_Source\PSoC6\pdl\middleware\ble/cy_ble_gatt.c **** *  CY_BLE_GATT_ERR_INVALID_OFFSET              | param->offset is invalid.
 158:Generated_Source\PSoC6\pdl\middleware\ble/cy_ble_gatt.c **** *  CY_BLE_GATT_ERR_INVALID_ATTRIBUTE_LEN       | handleValuePair.value.len is invalid.
 159:Generated_Source\PSoC6\pdl\middleware\ble/cy_ble_gatt.c **** *
 160:Generated_Source\PSoC6\pdl\middleware\ble/cy_ble_gatt.c **** ******************************************************************************/
 161:Generated_Source\PSoC6\pdl\middleware\ble/cy_ble_gatt.c **** cy_en_ble_gatt_err_code_t Cy_BLE_GATTS_WriteAttributeValueCCCD(cy_stc_ble_gatts_db_attr_val_info_t 
 162:Generated_Source\PSoC6\pdl\middleware\ble/cy_ble_gatt.c **** {
  90              		.loc 1 162 0
  91              		.cfi_startproc
  92              		@ args = 0, pretend = 0, frame = 0
  93              		@ frame_needed = 0, uses_anonymous_args = 0
  94              	.LVL3:
  95 0000 70B5     		push	{r4, r5, r6, lr}
  96              		.cfi_def_cfa_offset 16
  97              		.cfi_offset 4, -16
  98              		.cfi_offset 5, -12
  99              		.cfi_offset 6, -8
 100              		.cfi_offset 14, -4
 101 0002 0500     		movs	r5, r0
 163:Generated_Source\PSoC6\pdl\middleware\ble/cy_ble_gatt.c ****     cy_en_ble_gatt_err_code_t errCode;
 164:Generated_Source\PSoC6\pdl\middleware\ble/cy_ble_gatt.c **** 
 165:Generated_Source\PSoC6\pdl\middleware\ble/cy_ble_gatt.c ****     errCode = Cy_BLE_GATTS_WriteAttributeValue(param);
 102              		.loc 1 165 0
 103 0004 FFF7FEFF 		bl	Cy_BLE_GATTS_WriteAttributeValue
 104              	.LVL4:
 105 0008 041E     		subs	r4, r0, #0
 106              	.LVL5:
 166:Generated_Source\PSoC6\pdl\middleware\ble/cy_ble_gatt.c **** 
 167:Generated_Source\PSoC6\pdl\middleware\ble/cy_ble_gatt.c **** #if (CY_BLE_GATT_DB_CCCD_COUNT != 0u)
 168:Generated_Source\PSoC6\pdl\middleware\ble/cy_ble_gatt.c ****     /* Support separate CCCD value for each connection */
 169:Generated_Source\PSoC6\pdl\middleware\ble/cy_ble_gatt.c ****     if((errCode == CY_BLE_GATT_ERR_NONE) &&
 107              		.loc 1 169 0
 108 000a 24D1     		bne	.L7
 170:Generated_Source\PSoC6\pdl\middleware\ble/cy_ble_gatt.c ****        (CY_BLE_GATT_DB_ATTR_CHECK_PRPTY(param->handleValuePair.attrHandle, CY_BLE_GATT_DB_CCCD_ATTR
 109              		.loc 1 170 0 discriminator 1
 110 000c 134B     		ldr	r3, .L8
 111 000e 1968     		ldr	r1, [r3]
 112 0010 2B89     		ldrh	r3, [r5, #8]
 113 0012 9A00     		lsls	r2, r3, #2
ARM GAS  C:\Users\Brian\AppData\Local\Temp\ccRcp4rf.s 			page 6


 114 0014 D218     		adds	r2, r2, r3
 115 0016 9300     		lsls	r3, r2, #2
 116 0018 143B     		subs	r3, r3, #20
 117 001a 0A6A     		ldr	r2, [r1, #32]
 118 001c 9446     		mov	ip, r2
 119 001e 6344     		add	r3, r3, ip
 169:Generated_Source\PSoC6\pdl\middleware\ble/cy_ble_gatt.c ****        (CY_BLE_GATT_DB_ATTR_CHECK_PRPTY(param->handleValuePair.attrHandle, CY_BLE_GATT_DB_CCCD_ATTR
 120              		.loc 1 169 0 discriminator 1
 121 0020 5A68     		ldr	r2, [r3, #4]
 122 0022 9201     		lsls	r2, r2, #6
 123 0024 17D5     		bpl	.L7
 171:Generated_Source\PSoC6\pdl\middleware\ble/cy_ble_gatt.c ****     {
 172:Generated_Source\PSoC6\pdl\middleware\ble/cy_ble_gatt.c ****         (void)memcpy((void*)&cy_ble_attValuesCccdMultiple[param->connHandle.attId]
 124              		.loc 1 172 0
 125 0026 EA7B     		ldrb	r2, [r5, #15]
 173:Generated_Source\PSoC6\pdl\middleware\ble/cy_ble_gatt.c ****                      [CY_BLE_GATT_DB_ATTR_GET_CCCD_IDX(param->handleValuePair.attrHandle)],
 126              		.loc 1 173 0
 127 0028 1B69     		ldr	r3, [r3, #16]
 128 002a 5B68     		ldr	r3, [r3, #4]
 129 002c C869     		ldr	r0, [r1, #28]
 130              	.LVL6:
 131 002e 1B1A     		subs	r3, r3, r0
 172:Generated_Source\PSoC6\pdl\middleware\ble/cy_ble_gatt.c ****                      [CY_BLE_GATT_DB_ATTR_GET_CCCD_IDX(param->handleValuePair.attrHandle)],
 132              		.loc 1 172 0
 133 0030 5000     		lsls	r0, r2, #1
 134 0032 8018     		adds	r0, r0, r2
 135 0034 C018     		adds	r0, r0, r3
 136 0036 0A4B     		ldr	r3, .L8+4
 137 0038 C018     		adds	r0, r0, r3
 174:Generated_Source\PSoC6\pdl\middleware\ble/cy_ble_gatt.c ****                      (void*)param->handleValuePair.value.val, (uint32_t)param->handleValuePair.valu
 138              		.loc 1 174 0
 139 003a AA88     		ldrh	r2, [r5, #4]
 172:Generated_Source\PSoC6\pdl\middleware\ble/cy_ble_gatt.c ****                      [CY_BLE_GATT_DB_ATTR_GET_CCCD_IDX(param->handleValuePair.attrHandle)],
 140              		.loc 1 172 0
 141 003c 2968     		ldr	r1, [r5]
 142 003e FFF7FEFF 		bl	memcpy
 143              	.LVL7:
 175:Generated_Source\PSoC6\pdl\middleware\ble/cy_ble_gatt.c ****         
 176:Generated_Source\PSoC6\pdl\middleware\ble/cy_ble_gatt.c ****     #if ((CY_BLE_GAP_ROLE_PERIPHERAL || CY_BLE_GAP_ROLE_CENTRAL) && (CY_BLE_BONDING_REQUIREMENT == 
 177:Generated_Source\PSoC6\pdl\middleware\ble/cy_ble_gatt.c ****         /* Set flag to store bonding data to flash */
 178:Generated_Source\PSoC6\pdl\middleware\ble/cy_ble_gatt.c ****         if(cy_ble_peerBonding[param->connHandle.attId] == CY_BLE_GAP_BONDING)
 144              		.loc 1 178 0
 145 0042 EB7B     		ldrb	r3, [r5, #15]
 146 0044 074A     		ldr	r2, .L8+8
 147 0046 D35C     		ldrb	r3, [r2, r3]
 148 0048 012B     		cmp	r3, #1
 149 004a 04D1     		bne	.L7
 179:Generated_Source\PSoC6\pdl\middleware\ble/cy_ble_gatt.c ****         {
 180:Generated_Source\PSoC6\pdl\middleware\ble/cy_ble_gatt.c ****             cy_ble_pendingFlashWrite |= CY_BLE_PENDING_CCCD_FLASH_WRITE_BIT;
 150              		.loc 1 180 0
 151 004c 064A     		ldr	r2, .L8+12
 152 004e 1178     		ldrb	r1, [r2]
 153 0050 0223     		movs	r3, #2
 154 0052 0B43     		orrs	r3, r1
 155 0054 1370     		strb	r3, [r2]
 156              	.L7:
 181:Generated_Source\PSoC6\pdl\middleware\ble/cy_ble_gatt.c ****         }
ARM GAS  C:\Users\Brian\AppData\Local\Temp\ccRcp4rf.s 			page 7


 182:Generated_Source\PSoC6\pdl\middleware\ble/cy_ble_gatt.c ****     #endif /* (CY_BLE_BONDING_REQUIREMENT == CY_BLE_BONDING_YES) */
 183:Generated_Source\PSoC6\pdl\middleware\ble/cy_ble_gatt.c ****     }
 184:Generated_Source\PSoC6\pdl\middleware\ble/cy_ble_gatt.c **** #endif /* (CY_BLE_GATT_DB_CCCD_COUNT != 0u) */
 185:Generated_Source\PSoC6\pdl\middleware\ble/cy_ble_gatt.c **** 
 186:Generated_Source\PSoC6\pdl\middleware\ble/cy_ble_gatt.c ****     return(errCode);
 187:Generated_Source\PSoC6\pdl\middleware\ble/cy_ble_gatt.c **** }
 157              		.loc 1 187 0
 158 0056 2000     		movs	r0, r4
 159              		@ sp needed
 160              	.LVL8:
 161 0058 70BD     		pop	{r4, r5, r6, pc}
 162              	.L9:
 163 005a C046     		.align	2
 164              	.L8:
 165 005c 00000000 		.word	cy_ble_configPtr
 166 0060 00000000 		.word	cy_ble_attValuesCccdMultiple
 167 0064 00000000 		.word	cy_ble_peerBonding
 168 0068 00000000 		.word	cy_ble_pendingFlashWrite
 169              		.cfi_endproc
 170              	.LFE160:
 171              		.size	Cy_BLE_GATTS_WriteAttributeValueCCCD, .-Cy_BLE_GATTS_WriteAttributeValueCCCD
 172              		.section	.text.Cy_BLE_GATTS_WriteEventHandler,"ax",%progbits
 173              		.align	2
 174              		.global	Cy_BLE_GATTS_WriteEventHandler
 175              		.code	16
 176              		.thumb_func
 177              		.type	Cy_BLE_GATTS_WriteEventHandler, %function
 178              	Cy_BLE_GATTS_WriteEventHandler:
 179              	.LFB159:
  90:Generated_Source\PSoC6\pdl\middleware\ble/cy_ble_gatt.c ****     cy_en_ble_gatt_err_code_t gattErr = CY_BLE_GATT_ERR_NONE;
 180              		.loc 1 90 0
 181              		.cfi_startproc
 182              		@ args = 0, pretend = 0, frame = 24
 183              		@ frame_needed = 0, uses_anonymous_args = 0
 184              	.LVL9:
 185 0000 70B5     		push	{r4, r5, r6, lr}
 186              		.cfi_def_cfa_offset 16
 187              		.cfi_offset 4, -16
 188              		.cfi_offset 5, -12
 189              		.cfi_offset 6, -8
 190              		.cfi_offset 14, -4
 191 0002 86B0     		sub	sp, sp, #24
 192              		.cfi_def_cfa_offset 40
 193 0004 0400     		movs	r4, r0
 194              	.LVL10:
  94:Generated_Source\PSoC6\pdl\middleware\ble/cy_ble_gatt.c ****     {
 195              		.loc 1 94 0
 196 0006 0289     		ldrh	r2, [r0, #8]
 197 0008 164B     		ldr	r3, .L15
 198 000a 1B68     		ldr	r3, [r3]
 199 000c 5B69     		ldr	r3, [r3, #20]
 200 000e 9B88     		ldrh	r3, [r3, #4]
 201 0010 9A42     		cmp	r2, r3
 202 0012 23D1     		bne	.L14
 203              	.LBB15:
  97:Generated_Source\PSoC6\pdl\middleware\ble/cy_ble_gatt.c ****         {
 204              		.loc 1 97 0
ARM GAS  C:\Users\Brian\AppData\Local\Temp\ccRcp4rf.s 			page 8


 205 0014 01A8     		add	r0, sp, #4
 206              	.LVL11:
 207 0016 0300     		movs	r3, r0
 208 0018 2200     		movs	r2, r4
 209 001a 62CA     		ldmia	r2!, {r1, r5, r6}
 210 001c 62C3     		stmia	r3!, {r1, r5, r6}
 211 001e 0023     		movs	r3, #0
 212 0020 8381     		strh	r3, [r0, #12]
 213 0022 A389     		ldrh	r3, [r4, #12]
 214 0024 C381     		strh	r3, [r0, #14]
 215 0026 4023     		movs	r3, #64
 216 0028 0374     		strb	r3, [r0, #16]
 105:Generated_Source\PSoC6\pdl\middleware\ble/cy_ble_gatt.c ****         if(gattErr == CY_BLE_GATT_ERR_NONE)
 217              		.loc 1 105 0
 218 002a FFF7FEFF 		bl	Cy_BLE_GATTS_WriteAttributeValueCCCD
 219              	.LVL12:
 220 002e 051E     		subs	r5, r0, #0
 221              	.LVL13:
 106:Generated_Source\PSoC6\pdl\middleware\ble/cy_ble_gatt.c ****         {
 222              		.loc 1 106 0
 223 0030 0ED1     		bne	.L12
 224              	.LVL14:
 225              	.LBB16:
 226              	.LBB17:
 227              		.file 2 "Generated_Source\\PSoC6\\pdl\\middleware\\ble\\cy_ble_event_handler.h"
   1:Generated_Source\PSoC6\pdl\middleware\ble/cy_ble_event_handler.h **** /***************************************************************************//**
   2:Generated_Source\PSoC6\pdl\middleware\ble/cy_ble_event_handler.h **** * \file cy_ble_event_handler.h
   3:Generated_Source\PSoC6\pdl\middleware\ble/cy_ble_event_handler.h **** * \version 2.20
   4:Generated_Source\PSoC6\pdl\middleware\ble/cy_ble_event_handler.h **** *
   5:Generated_Source\PSoC6\pdl\middleware\ble/cy_ble_event_handler.h **** * \brief
   6:Generated_Source\PSoC6\pdl\middleware\ble/cy_ble_event_handler.h **** *  Contains the prototypes and constants used in the Event Handler State Machine
   7:Generated_Source\PSoC6\pdl\middleware\ble/cy_ble_event_handler.h **** *  of the BLE Middleware.
   8:Generated_Source\PSoC6\pdl\middleware\ble/cy_ble_event_handler.h **** *
   9:Generated_Source\PSoC6\pdl\middleware\ble/cy_ble_event_handler.h **** ********************************************************************************
  10:Generated_Source\PSoC6\pdl\middleware\ble/cy_ble_event_handler.h **** * \copyright
  11:Generated_Source\PSoC6\pdl\middleware\ble/cy_ble_event_handler.h **** * Copyright 2017-2018, Cypress Semiconductor Corporation.  All rights reserved.
  12:Generated_Source\PSoC6\pdl\middleware\ble/cy_ble_event_handler.h **** * You may use this file only in accordance with the license, terms, conditions,
  13:Generated_Source\PSoC6\pdl\middleware\ble/cy_ble_event_handler.h **** * disclaimers, and limitations in the end user license agreement accompanying
  14:Generated_Source\PSoC6\pdl\middleware\ble/cy_ble_event_handler.h **** * the software package with which this file was provided.
  15:Generated_Source\PSoC6\pdl\middleware\ble/cy_ble_event_handler.h **** *******************************************************************************/
  16:Generated_Source\PSoC6\pdl\middleware\ble/cy_ble_event_handler.h **** 
  17:Generated_Source\PSoC6\pdl\middleware\ble/cy_ble_event_handler.h **** 
  18:Generated_Source\PSoC6\pdl\middleware\ble/cy_ble_event_handler.h **** #ifndef CY_BLE_EVENT_HANDLER_H
  19:Generated_Source\PSoC6\pdl\middleware\ble/cy_ble_event_handler.h **** #define CY_BLE_EVENT_HANDLER_H
  20:Generated_Source\PSoC6\pdl\middleware\ble/cy_ble_event_handler.h **** 
  21:Generated_Source\PSoC6\pdl\middleware\ble/cy_ble_event_handler.h **** #include "cy_ble.h"
  22:Generated_Source\PSoC6\pdl\middleware\ble/cy_ble_event_handler.h **** #include "cy_ble_hal_pvt.h"
  23:Generated_Source\PSoC6\pdl\middleware\ble/cy_ble_event_handler.h **** #include "flash/cy_flash.h"
  24:Generated_Source\PSoC6\pdl\middleware\ble/cy_ble_event_handler.h **** 
  25:Generated_Source\PSoC6\pdl\middleware\ble/cy_ble_event_handler.h **** #if (CY_BLE_MODE_PROFILE)
  26:Generated_Source\PSoC6\pdl\middleware\ble/cy_ble_event_handler.h **** 
  27:Generated_Source\PSoC6\pdl\middleware\ble/cy_ble_event_handler.h **** /* C binding of definitions if building with C++ compiler */
  28:Generated_Source\PSoC6\pdl\middleware\ble/cy_ble_event_handler.h **** #ifdef __cplusplus
  29:Generated_Source\PSoC6\pdl\middleware\ble/cy_ble_event_handler.h **** extern "C" {
  30:Generated_Source\PSoC6\pdl\middleware\ble/cy_ble_event_handler.h **** #endif /* __cplusplus */
  31:Generated_Source\PSoC6\pdl\middleware\ble/cy_ble_event_handler.h **** 
  32:Generated_Source\PSoC6\pdl\middleware\ble/cy_ble_event_handler.h **** /***************************************
ARM GAS  C:\Users\Brian\AppData\Local\Temp\ccRcp4rf.s 			page 9


  33:Generated_Source\PSoC6\pdl\middleware\ble/cy_ble_event_handler.h **** * Service specific includes
  34:Generated_Source\PSoC6\pdl\middleware\ble/cy_ble_event_handler.h **** ***************************************/
  35:Generated_Source\PSoC6\pdl\middleware\ble/cy_ble_event_handler.h **** 
  36:Generated_Source\PSoC6\pdl\middleware\ble/cy_ble_event_handler.h **** #ifdef CY_BLE_ANCS
  37:Generated_Source\PSoC6\pdl\middleware\ble/cy_ble_event_handler.h ****     #include "cy_ble_ancs.h"
  38:Generated_Source\PSoC6\pdl\middleware\ble/cy_ble_event_handler.h **** #endif /* CY_BLE_ANCS */
  39:Generated_Source\PSoC6\pdl\middleware\ble/cy_ble_event_handler.h **** #ifdef CY_BLE_ANS
  40:Generated_Source\PSoC6\pdl\middleware\ble/cy_ble_event_handler.h ****     #include "cy_ble_ans.h"
  41:Generated_Source\PSoC6\pdl\middleware\ble/cy_ble_event_handler.h **** #endif /* CY_BLE_ANS */
  42:Generated_Source\PSoC6\pdl\middleware\ble/cy_ble_event_handler.h **** #ifdef CY_BLE_AIOS
  43:Generated_Source\PSoC6\pdl\middleware\ble/cy_ble_event_handler.h ****     #include "cy_ble_aios.h"
  44:Generated_Source\PSoC6\pdl\middleware\ble/cy_ble_event_handler.h **** #endif /* CY_BLE_AIOS */
  45:Generated_Source\PSoC6\pdl\middleware\ble/cy_ble_event_handler.h **** #ifdef CY_BLE_BAS
  46:Generated_Source\PSoC6\pdl\middleware\ble/cy_ble_event_handler.h ****     #include "cy_ble_bas.h"
  47:Generated_Source\PSoC6\pdl\middleware\ble/cy_ble_event_handler.h **** #endif /* CY_BLE_BAS */
  48:Generated_Source\PSoC6\pdl\middleware\ble/cy_ble_event_handler.h **** #ifdef CY_BLE_BLS
  49:Generated_Source\PSoC6\pdl\middleware\ble/cy_ble_event_handler.h ****     #include "cy_ble_bls.h"
  50:Generated_Source\PSoC6\pdl\middleware\ble/cy_ble_event_handler.h **** #endif /* CY_BLE_BLS */
  51:Generated_Source\PSoC6\pdl\middleware\ble/cy_ble_event_handler.h **** #ifdef CY_BLE_BCS
  52:Generated_Source\PSoC6\pdl\middleware\ble/cy_ble_event_handler.h ****     #include "cy_ble_bcs.h"
  53:Generated_Source\PSoC6\pdl\middleware\ble/cy_ble_event_handler.h **** #endif /* CY_BLE_BCS */
  54:Generated_Source\PSoC6\pdl\middleware\ble/cy_ble_event_handler.h **** #ifdef CY_BLE_BMS
  55:Generated_Source\PSoC6\pdl\middleware\ble/cy_ble_event_handler.h ****     #include "cy_ble_bms.h"
  56:Generated_Source\PSoC6\pdl\middleware\ble/cy_ble_event_handler.h **** #endif /* CY_BLE_BMS */
  57:Generated_Source\PSoC6\pdl\middleware\ble/cy_ble_event_handler.h **** #ifdef CY_BLE_BTS
  58:Generated_Source\PSoC6\pdl\middleware\ble/cy_ble_event_handler.h ****     #include "cy_ble_bts.h"
  59:Generated_Source\PSoC6\pdl\middleware\ble/cy_ble_event_handler.h **** #endif /* CY_BLE_BTS */
  60:Generated_Source\PSoC6\pdl\middleware\ble/cy_ble_event_handler.h **** #ifdef CY_BLE_CGMS
  61:Generated_Source\PSoC6\pdl\middleware\ble/cy_ble_event_handler.h ****     #include "cy_ble_cgms.h"
  62:Generated_Source\PSoC6\pdl\middleware\ble/cy_ble_event_handler.h **** #endif /* CY_BLE_CGMS */
  63:Generated_Source\PSoC6\pdl\middleware\ble/cy_ble_event_handler.h **** #ifdef CY_BLE_CPS
  64:Generated_Source\PSoC6\pdl\middleware\ble/cy_ble_event_handler.h ****     #include "cy_ble_cps.h"
  65:Generated_Source\PSoC6\pdl\middleware\ble/cy_ble_event_handler.h **** #endif /* CY_BLE_CPS */
  66:Generated_Source\PSoC6\pdl\middleware\ble/cy_ble_event_handler.h **** #ifdef CY_BLE_CSCS
  67:Generated_Source\PSoC6\pdl\middleware\ble/cy_ble_event_handler.h ****     #include "cy_ble_cscs.h"
  68:Generated_Source\PSoC6\pdl\middleware\ble/cy_ble_event_handler.h **** #endif /* CY_BLE_CSCS */
  69:Generated_Source\PSoC6\pdl\middleware\ble/cy_ble_event_handler.h **** #ifdef CY_BLE_CTS
  70:Generated_Source\PSoC6\pdl\middleware\ble/cy_ble_event_handler.h ****     #include "cy_ble_cts.h"
  71:Generated_Source\PSoC6\pdl\middleware\ble/cy_ble_event_handler.h **** #endif /* CY_BLE_CTS */
  72:Generated_Source\PSoC6\pdl\middleware\ble/cy_ble_event_handler.h **** #ifdef CY_BLE_CUSTOM
  73:Generated_Source\PSoC6\pdl\middleware\ble/cy_ble_event_handler.h ****     #include "cy_ble_custom.h"
  74:Generated_Source\PSoC6\pdl\middleware\ble/cy_ble_event_handler.h **** #endif /* CY_BLE_CUSTOM */
  75:Generated_Source\PSoC6\pdl\middleware\ble/cy_ble_event_handler.h **** #ifdef CY_BLE_DIS
  76:Generated_Source\PSoC6\pdl\middleware\ble/cy_ble_event_handler.h ****     #include "cy_ble_dis.h"
  77:Generated_Source\PSoC6\pdl\middleware\ble/cy_ble_event_handler.h **** #endif /* CY_BLE_DIS */
  78:Generated_Source\PSoC6\pdl\middleware\ble/cy_ble_event_handler.h **** #ifdef CY_BLE_ESS
  79:Generated_Source\PSoC6\pdl\middleware\ble/cy_ble_event_handler.h ****     #include "cy_ble_ess.h"
  80:Generated_Source\PSoC6\pdl\middleware\ble/cy_ble_event_handler.h **** #endif /* CY_BLE_ESS */
  81:Generated_Source\PSoC6\pdl\middleware\ble/cy_ble_event_handler.h **** #ifdef CY_BLE_GLS
  82:Generated_Source\PSoC6\pdl\middleware\ble/cy_ble_event_handler.h ****     #include "cy_ble_gls.h"
  83:Generated_Source\PSoC6\pdl\middleware\ble/cy_ble_event_handler.h **** #endif /* CY_BLE_GLS */
  84:Generated_Source\PSoC6\pdl\middleware\ble/cy_ble_event_handler.h **** #ifdef CY_BLE_HIDS
  85:Generated_Source\PSoC6\pdl\middleware\ble/cy_ble_event_handler.h ****     #include "cy_ble_hids.h"
  86:Generated_Source\PSoC6\pdl\middleware\ble/cy_ble_event_handler.h **** #endif /* CY_BLE_HIDS */
  87:Generated_Source\PSoC6\pdl\middleware\ble/cy_ble_event_handler.h **** #ifdef CY_BLE_HPS
  88:Generated_Source\PSoC6\pdl\middleware\ble/cy_ble_event_handler.h ****     #include "cy_ble_hps.h"
  89:Generated_Source\PSoC6\pdl\middleware\ble/cy_ble_event_handler.h **** #endif /* CY_BLE_HPS */
ARM GAS  C:\Users\Brian\AppData\Local\Temp\ccRcp4rf.s 			page 10


  90:Generated_Source\PSoC6\pdl\middleware\ble/cy_ble_event_handler.h **** #ifdef CY_BLE_HRS
  91:Generated_Source\PSoC6\pdl\middleware\ble/cy_ble_event_handler.h ****     #include "cy_ble_hrs.h"
  92:Generated_Source\PSoC6\pdl\middleware\ble/cy_ble_event_handler.h **** #endif /* CY_BLE_HRS */
  93:Generated_Source\PSoC6\pdl\middleware\ble/cy_ble_event_handler.h **** #ifdef CY_BLE_HTS
  94:Generated_Source\PSoC6\pdl\middleware\ble/cy_ble_event_handler.h ****     #include "cy_ble_hts.h"
  95:Generated_Source\PSoC6\pdl\middleware\ble/cy_ble_event_handler.h **** #endif /* CY_BLE_HTS */
  96:Generated_Source\PSoC6\pdl\middleware\ble/cy_ble_event_handler.h **** #ifdef CY_BLE_IAS
  97:Generated_Source\PSoC6\pdl\middleware\ble/cy_ble_event_handler.h ****     #include "cy_ble_ias.h"
  98:Generated_Source\PSoC6\pdl\middleware\ble/cy_ble_event_handler.h **** #endif /* CY_BLE_IAS */
  99:Generated_Source\PSoC6\pdl\middleware\ble/cy_ble_event_handler.h **** #ifdef CY_BLE_IPS
 100:Generated_Source\PSoC6\pdl\middleware\ble/cy_ble_event_handler.h ****     #include "cy_ble_ips.h"
 101:Generated_Source\PSoC6\pdl\middleware\ble/cy_ble_event_handler.h **** #endif /* CY_BLE_IPS */
 102:Generated_Source\PSoC6\pdl\middleware\ble/cy_ble_event_handler.h **** #ifdef CY_BLE_LLS
 103:Generated_Source\PSoC6\pdl\middleware\ble/cy_ble_event_handler.h ****     #include "cy_ble_lls.h"
 104:Generated_Source\PSoC6\pdl\middleware\ble/cy_ble_event_handler.h **** #endif /* CY_BLE_LLS */
 105:Generated_Source\PSoC6\pdl\middleware\ble/cy_ble_event_handler.h **** #ifdef CY_BLE_LNS
 106:Generated_Source\PSoC6\pdl\middleware\ble/cy_ble_event_handler.h ****     #include "cy_ble_lns.h"
 107:Generated_Source\PSoC6\pdl\middleware\ble/cy_ble_event_handler.h **** #endif /* CY_BLE_LNS */
 108:Generated_Source\PSoC6\pdl\middleware\ble/cy_ble_event_handler.h **** #ifdef CY_BLE_NDCS
 109:Generated_Source\PSoC6\pdl\middleware\ble/cy_ble_event_handler.h ****     #include "cy_ble_ndcs.h"
 110:Generated_Source\PSoC6\pdl\middleware\ble/cy_ble_event_handler.h **** #endif /* CY_BLE_NDCS */
 111:Generated_Source\PSoC6\pdl\middleware\ble/cy_ble_event_handler.h **** #ifdef CY_BLE_PASS
 112:Generated_Source\PSoC6\pdl\middleware\ble/cy_ble_event_handler.h ****     #include "cy_ble_pass.h"
 113:Generated_Source\PSoC6\pdl\middleware\ble/cy_ble_event_handler.h **** #endif /* CY_BLE_PASS */
 114:Generated_Source\PSoC6\pdl\middleware\ble/cy_ble_event_handler.h **** #ifdef CY_BLE_PLXS
 115:Generated_Source\PSoC6\pdl\middleware\ble/cy_ble_event_handler.h ****     #include "cy_ble_plxs.h"
 116:Generated_Source\PSoC6\pdl\middleware\ble/cy_ble_event_handler.h **** #endif /* CY_BLE_PLXS */
 117:Generated_Source\PSoC6\pdl\middleware\ble/cy_ble_event_handler.h **** #ifdef CY_BLE_RSCS
 118:Generated_Source\PSoC6\pdl\middleware\ble/cy_ble_event_handler.h ****     #include "cy_ble_rscs.h"
 119:Generated_Source\PSoC6\pdl\middleware\ble/cy_ble_event_handler.h **** #endif /* CY_BLE_RSCS */
 120:Generated_Source\PSoC6\pdl\middleware\ble/cy_ble_event_handler.h **** #ifdef CY_BLE_RTUS
 121:Generated_Source\PSoC6\pdl\middleware\ble/cy_ble_event_handler.h ****     #include "cy_ble_rtus.h"
 122:Generated_Source\PSoC6\pdl\middleware\ble/cy_ble_event_handler.h **** #endif /* CY_BLE_RTUS */
 123:Generated_Source\PSoC6\pdl\middleware\ble/cy_ble_event_handler.h **** #ifdef CY_BLE_SCPS
 124:Generated_Source\PSoC6\pdl\middleware\ble/cy_ble_event_handler.h ****     #include "cy_ble_scps.h"
 125:Generated_Source\PSoC6\pdl\middleware\ble/cy_ble_event_handler.h **** #endif /* CY_BLE_SCPS */
 126:Generated_Source\PSoC6\pdl\middleware\ble/cy_ble_event_handler.h **** #ifdef CY_BLE_TPS
 127:Generated_Source\PSoC6\pdl\middleware\ble/cy_ble_event_handler.h ****     #include "cy_ble_tps.h"
 128:Generated_Source\PSoC6\pdl\middleware\ble/cy_ble_event_handler.h **** #endif /* CY_BLE_TPS */
 129:Generated_Source\PSoC6\pdl\middleware\ble/cy_ble_event_handler.h **** #ifdef CY_BLE_UDS
 130:Generated_Source\PSoC6\pdl\middleware\ble/cy_ble_event_handler.h ****     #include "cy_ble_uds.h"
 131:Generated_Source\PSoC6\pdl\middleware\ble/cy_ble_event_handler.h **** #endif /* CY_BLE_UDS */
 132:Generated_Source\PSoC6\pdl\middleware\ble/cy_ble_event_handler.h **** #ifdef CY_BLE_WPTS
 133:Generated_Source\PSoC6\pdl\middleware\ble/cy_ble_event_handler.h ****     #include "cy_ble_wpts.h"
 134:Generated_Source\PSoC6\pdl\middleware\ble/cy_ble_event_handler.h **** #endif /* CY_BLE_WPTS */
 135:Generated_Source\PSoC6\pdl\middleware\ble/cy_ble_event_handler.h **** #ifdef CY_BLE_WSS
 136:Generated_Source\PSoC6\pdl\middleware\ble/cy_ble_event_handler.h ****     #include "cy_ble_wss.h"
 137:Generated_Source\PSoC6\pdl\middleware\ble/cy_ble_event_handler.h **** #endif /* CY_BLE_WSS */
 138:Generated_Source\PSoC6\pdl\middleware\ble/cy_ble_event_handler.h **** 
 139:Generated_Source\PSoC6\pdl\middleware\ble/cy_ble_event_handler.h **** 
 140:Generated_Source\PSoC6\pdl\middleware\ble/cy_ble_event_handler.h **** 
 141:Generated_Source\PSoC6\pdl\middleware\ble/cy_ble_event_handler.h **** /***************************************
 142:Generated_Source\PSoC6\pdl\middleware\ble/cy_ble_event_handler.h **** * Definitions
 143:Generated_Source\PSoC6\pdl\middleware\ble/cy_ble_event_handler.h **** ***************************************/
 144:Generated_Source\PSoC6\pdl\middleware\ble/cy_ble_event_handler.h **** /* cy_ble_eventHandlerFlag defines */
 145:Generated_Source\PSoC6\pdl\middleware\ble/cy_ble_event_handler.h **** #define CY_BLE_CALLBACK                   (0x01u)
 146:Generated_Source\PSoC6\pdl\middleware\ble/cy_ble_event_handler.h **** #define CY_BLE_AUTO_DISCOVERY             (0x02u)
ARM GAS  C:\Users\Brian\AppData\Local\Temp\ccRcp4rf.s 			page 11


 147:Generated_Source\PSoC6\pdl\middleware\ble/cy_ble_event_handler.h **** #define CY_BLE_START_FLAG                 (0x04u)
 148:Generated_Source\PSoC6\pdl\middleware\ble/cy_ble_event_handler.h **** #define CY_BLE_STOP_FLAG                  (0x08u)
 149:Generated_Source\PSoC6\pdl\middleware\ble/cy_ble_event_handler.h **** #define CY_BLE_ENABLE_ALL_EVENTS          (0x10u)
 150:Generated_Source\PSoC6\pdl\middleware\ble/cy_ble_event_handler.h **** #define CY_BLE_DISABLE_AUTOMATIC_AUTH     (0x20u)
 151:Generated_Source\PSoC6\pdl\middleware\ble/cy_ble_event_handler.h **** 
 152:Generated_Source\PSoC6\pdl\middleware\ble/cy_ble_event_handler.h **** #if (CY_BLE_GATT_ROLE_CLIENT)
 153:Generated_Source\PSoC6\pdl\middleware\ble/cy_ble_event_handler.h **** #define CY_BLE_DISC_SRVC_INFO_LEN         (4u + CY_BLE_GATT_16_BIT_UUID_SIZE)
 154:Generated_Source\PSoC6\pdl\middleware\ble/cy_ble_event_handler.h **** #define CY_BLE_DISC_SRVC_INFO_128_LEN     (4u + CY_BLE_GATT_128_BIT_UUID_SIZE)
 155:Generated_Source\PSoC6\pdl\middleware\ble/cy_ble_event_handler.h **** #define CY_BLE_DISC_INCL_INFO_LEN         (6u + CY_BLE_GATT_16_BIT_UUID_SIZE)
 156:Generated_Source\PSoC6\pdl\middleware\ble/cy_ble_event_handler.h **** #define CY_BLE_DISC_INCL_INFO_128_LEN     (6u)
 157:Generated_Source\PSoC6\pdl\middleware\ble/cy_ble_event_handler.h **** #define CY_BLE_DISC_CHAR_INFO_LEN         (5u + CY_BLE_GATT_16_BIT_UUID_SIZE)
 158:Generated_Source\PSoC6\pdl\middleware\ble/cy_ble_event_handler.h **** #define CY_BLE_DISC_CHAR_INFO_128_LEN     (5u + CY_BLE_GATT_128_BIT_UUID_SIZE)
 159:Generated_Source\PSoC6\pdl\middleware\ble/cy_ble_event_handler.h **** #define CY_BLE_DISC_DESCR_INFO_LEN        (2u + CY_BLE_GATT_16_BIT_UUID_SIZE)
 160:Generated_Source\PSoC6\pdl\middleware\ble/cy_ble_event_handler.h **** #define CY_BLE_DISC_DESCR_INFO_128_LEN    (2u + CY_BLE_GATT_128_BIT_UUID_SIZE)
 161:Generated_Source\PSoC6\pdl\middleware\ble/cy_ble_event_handler.h **** #endif /* CY_BLE_GATT_ROLE_CLIENT */
 162:Generated_Source\PSoC6\pdl\middleware\ble/cy_ble_event_handler.h **** 
 163:Generated_Source\PSoC6\pdl\middleware\ble/cy_ble_event_handler.h **** #define CY_BLE_LE_MASK_LENGTH             (0x8u)
 164:Generated_Source\PSoC6\pdl\middleware\ble/cy_ble_event_handler.h **** #define CY_BLE_LE_MASK_DEFAULT            (0x003Fu)
 165:Generated_Source\PSoC6\pdl\middleware\ble/cy_ble_event_handler.h **** #define CY_BLE_LE_MASK_DLE                ((CY_BLE_DLE_FEATURE_ENABLED) ?          (0x0040u) : (0u)
 166:Generated_Source\PSoC6\pdl\middleware\ble/cy_ble_event_handler.h **** #define CY_BLE_LE_MASK_SECURE_CONN        ((CY_BLE_SECURE_CONN_FEATURE_ENABLED) ?  (0x0180u) : (0u)
 167:Generated_Source\PSoC6\pdl\middleware\ble/cy_ble_event_handler.h **** #define CY_BLE_LE_MASK_LL_PRIVACY         ((CY_BLE_LL_PRIVACY_FEATURE_ENABLED) ?   (0x0600u) : (0u)
 168:Generated_Source\PSoC6\pdl\middleware\ble/cy_ble_event_handler.h **** #define CY_BLE_LE_MASK_PHY                ((CY_BLE_PHY_UPDATE_FEATURE_ENABLED) ?   (0x0800u) : (0u)
 169:Generated_Source\PSoC6\pdl\middleware\ble/cy_ble_event_handler.h **** #define CY_BLE_LE_MASK                    (CY_BLE_LE_MASK_DEFAULT | CY_BLE_LE_MASK_DLE | CY_BLE_LE_
 170:Generated_Source\PSoC6\pdl\middleware\ble/cy_ble_event_handler.h ****                                            | CY_BLE_LE_MASK_SECURE_CONN | CY_BLE_LE_MASK_PHY)
 171:Generated_Source\PSoC6\pdl\middleware\ble/cy_ble_event_handler.h **** /* Internal command run status defines */
 172:Generated_Source\PSoC6\pdl\middleware\ble/cy_ble_event_handler.h **** #define CY_BLE_STATUS_SET_TX_PWR_LVL      (uint32_t)(1ul << 0u)
 173:Generated_Source\PSoC6\pdl\middleware\ble/cy_ble_event_handler.h **** 
 174:Generated_Source\PSoC6\pdl\middleware\ble/cy_ble_event_handler.h **** /***************************************
 175:Generated_Source\PSoC6\pdl\middleware\ble/cy_ble_event_handler.h **** * Type Definitions
 176:Generated_Source\PSoC6\pdl\middleware\ble/cy_ble_event_handler.h **** ***************************************/
 177:Generated_Source\PSoC6\pdl\middleware\ble/cy_ble_event_handler.h **** 
 178:Generated_Source\PSoC6\pdl\middleware\ble/cy_ble_event_handler.h **** /**
 179:Generated_Source\PSoC6\pdl\middleware\ble/cy_ble_event_handler.h ****  * \addtogroup group_ble_service_api_events
 180:Generated_Source\PSoC6\pdl\middleware\ble/cy_ble_event_handler.h ****  * @{
 181:Generated_Source\PSoC6\pdl\middleware\ble/cy_ble_event_handler.h ****  */
 182:Generated_Source\PSoC6\pdl\middleware\ble/cy_ble_event_handler.h **** 
 183:Generated_Source\PSoC6\pdl\middleware\ble/cy_ble_event_handler.h **** 
 184:Generated_Source\PSoC6\pdl\middleware\ble/cy_ble_event_handler.h **** /** Service specific events  */
 185:Generated_Source\PSoC6\pdl\middleware\ble/cy_ble_event_handler.h **** typedef enum
 186:Generated_Source\PSoC6\pdl\middleware\ble/cy_ble_event_handler.h **** {
 187:Generated_Source\PSoC6\pdl\middleware\ble/cy_ble_event_handler.h ****     /****************************************
 188:Generated_Source\PSoC6\pdl\middleware\ble/cy_ble_event_handler.h ****      * Security Events
 189:Generated_Source\PSoC6\pdl\middleware\ble/cy_ble_event_handler.h ****      ***************************************/
 190:Generated_Source\PSoC6\pdl\middleware\ble/cy_ble_event_handler.h ****     /* \cond IGNORE */
 191:Generated_Source\PSoC6\pdl\middleware\ble/cy_ble_event_handler.h **** 
 192:Generated_Source\PSoC6\pdl\middleware\ble/cy_ble_event_handler.h ****     CY_BLE_AUTHENTICATION_REQUEST_REPLY = CY_BLE_EVT_MAX + 1, /* 0x10000 */
 193:Generated_Source\PSoC6\pdl\middleware\ble/cy_ble_event_handler.h ****     CY_BLE_PASSKEY_ENTRY_REQUEST_REPLY,
 194:Generated_Source\PSoC6\pdl\middleware\ble/cy_ble_event_handler.h ****     CY_BLE_LONG_TERM_KEY_REQUEST_REPLY,
 195:Generated_Source\PSoC6\pdl\middleware\ble/cy_ble_event_handler.h ****     CY_BLE_KEY_EXCHANGE_INFO_REQUEST_REPLY,
 196:Generated_Source\PSoC6\pdl\middleware\ble/cy_ble_event_handler.h ****     /* \endcond */
 197:Generated_Source\PSoC6\pdl\middleware\ble/cy_ble_event_handler.h **** 
 198:Generated_Source\PSoC6\pdl\middleware\ble/cy_ble_event_handler.h ****     /****************************************
 199:Generated_Source\PSoC6\pdl\middleware\ble/cy_ble_event_handler.h ****      * GATT Service Events
 200:Generated_Source\PSoC6\pdl\middleware\ble/cy_ble_event_handler.h ****      ***************************************/
 201:Generated_Source\PSoC6\pdl\middleware\ble/cy_ble_event_handler.h **** 
 202:Generated_Source\PSoC6\pdl\middleware\ble/cy_ble_event_handler.h ****     /** GATT Server - This event indicates that the CCCD data CRC is wrong.
 203:Generated_Source\PSoC6\pdl\middleware\ble/cy_ble_event_handler.h ****      *  If this event occurs, removing the bonding information of all devices
ARM GAS  C:\Users\Brian\AppData\Local\Temp\ccRcp4rf.s 			page 12


 204:Generated_Source\PSoC6\pdl\middleware\ble/cy_ble_event_handler.h ****      *  by using the Cy_BLE_GAP_RemoveBondedDevice() API is recommended.
 205:Generated_Source\PSoC6\pdl\middleware\ble/cy_ble_event_handler.h ****      *  The CCCD buffer in the RAM for the current connection is cleaned (set to zero) 
 206:Generated_Source\PSoC6\pdl\middleware\ble/cy_ble_event_handler.h ****      *  The event parameter is NULL.
 207:Generated_Source\PSoC6\pdl\middleware\ble/cy_ble_event_handler.h ****      */
 208:Generated_Source\PSoC6\pdl\middleware\ble/cy_ble_event_handler.h ****     CY_BLE_EVT_GATTS_EVT_CCCD_CORRUPT,
 209:Generated_Source\PSoC6\pdl\middleware\ble/cy_ble_event_handler.h **** 
 210:Generated_Source\PSoC6\pdl\middleware\ble/cy_ble_event_handler.h ****     /** GATT Server - Indication for GATT Service's "Service Changed"
 211:Generated_Source\PSoC6\pdl\middleware\ble/cy_ble_event_handler.h ****      *  Characteristic was enabled. The parameter of this event is a structure of
 212:Generated_Source\PSoC6\pdl\middleware\ble/cy_ble_event_handler.h ****      *  \ref cy_stc_ble_gatts_write_cmd_req_param_t type.
 213:Generated_Source\PSoC6\pdl\middleware\ble/cy_ble_event_handler.h ****      */
 214:Generated_Source\PSoC6\pdl\middleware\ble/cy_ble_event_handler.h ****     CY_BLE_EVT_GATTS_INDICATION_ENABLED,
 215:Generated_Source\PSoC6\pdl\middleware\ble/cy_ble_event_handler.h **** 
 216:Generated_Source\PSoC6\pdl\middleware\ble/cy_ble_event_handler.h ****     /** GATT Server - Indication for GATT Service's "Service Changed"
 217:Generated_Source\PSoC6\pdl\middleware\ble/cy_ble_event_handler.h ****      *  Characteristic was disabled. The parameter of this event is a structure of
 218:Generated_Source\PSoC6\pdl\middleware\ble/cy_ble_event_handler.h ****      *  \ref cy_stc_ble_gatts_write_cmd_req_param_t type.
 219:Generated_Source\PSoC6\pdl\middleware\ble/cy_ble_event_handler.h ****      */
 220:Generated_Source\PSoC6\pdl\middleware\ble/cy_ble_event_handler.h ****     CY_BLE_EVT_GATTS_INDICATION_DISABLED,
 221:Generated_Source\PSoC6\pdl\middleware\ble/cy_ble_event_handler.h **** 
 222:Generated_Source\PSoC6\pdl\middleware\ble/cy_ble_event_handler.h ****     /** GATT Client - GATT Service's "Service Changed" Characteristic Indication
 223:Generated_Source\PSoC6\pdl\middleware\ble/cy_ble_event_handler.h ****      *  was received. The parameter of this event is a structure
 224:Generated_Source\PSoC6\pdl\middleware\ble/cy_ble_event_handler.h ****      *  of the \ref cy_stc_ble_gattc_handle_value_ind_param_t type.
 225:Generated_Source\PSoC6\pdl\middleware\ble/cy_ble_event_handler.h ****      */
 226:Generated_Source\PSoC6\pdl\middleware\ble/cy_ble_event_handler.h ****     CY_BLE_EVT_GATTC_INDICATION,
 227:Generated_Source\PSoC6\pdl\middleware\ble/cy_ble_event_handler.h **** 
 228:Generated_Source\PSoC6\pdl\middleware\ble/cy_ble_event_handler.h **** 
 229:Generated_Source\PSoC6\pdl\middleware\ble/cy_ble_event_handler.h ****     /****************************************
 230:Generated_Source\PSoC6\pdl\middleware\ble/cy_ble_event_handler.h ****      * Service Discovery Events
 231:Generated_Source\PSoC6\pdl\middleware\ble/cy_ble_event_handler.h ****      ***************************************/
 232:Generated_Source\PSoC6\pdl\middleware\ble/cy_ble_event_handler.h **** 
 233:Generated_Source\PSoC6\pdl\middleware\ble/cy_ble_event_handler.h ****     /** GATT Client - The Service discovery procedure failed. This event may
 234:Generated_Source\PSoC6\pdl\middleware\ble/cy_ble_event_handler.h ****      *  be generated on calling Cy_BLE_GATTC_DiscoverPrimaryServices().
 235:Generated_Source\PSoC6\pdl\middleware\ble/cy_ble_event_handler.h ****      *  The parameter of this event is a structure of the cy_stc_ble_conn_handle_t type.
 236:Generated_Source\PSoC6\pdl\middleware\ble/cy_ble_event_handler.h ****      */
 237:Generated_Source\PSoC6\pdl\middleware\ble/cy_ble_event_handler.h ****     CY_BLE_EVT_GATTC_SRVC_DISCOVERY_FAILED,
 238:Generated_Source\PSoC6\pdl\middleware\ble/cy_ble_event_handler.h **** 
 239:Generated_Source\PSoC6\pdl\middleware\ble/cy_ble_event_handler.h ****     /** GATT Client - The discovery of included services failed. This event may
 240:Generated_Source\PSoC6\pdl\middleware\ble/cy_ble_event_handler.h ****      *  be generated on calling Cy_BLE_GATTC_FindIncludedServices().
 241:Generated_Source\PSoC6\pdl\middleware\ble/cy_ble_event_handler.h ****      *  The parameter of this event is a structure of the cy_stc_ble_conn_handle_t type.
 242:Generated_Source\PSoC6\pdl\middleware\ble/cy_ble_event_handler.h ****      */
 243:Generated_Source\PSoC6\pdl\middleware\ble/cy_ble_event_handler.h ****     CY_BLE_EVT_GATTC_INCL_DISCOVERY_FAILED,
 244:Generated_Source\PSoC6\pdl\middleware\ble/cy_ble_event_handler.h **** 
 245:Generated_Source\PSoC6\pdl\middleware\ble/cy_ble_event_handler.h ****     /** GATT Client - The discovery of the service's characteristics failed. This event may
 246:Generated_Source\PSoC6\pdl\middleware\ble/cy_ble_event_handler.h ****      *  be generated on calling Cy_BLE_GATTC_DiscoverCharacteristics() or
 247:Generated_Source\PSoC6\pdl\middleware\ble/cy_ble_event_handler.h ****      *  Cy_BLE_GATTC_ReadUsingCharacteristicUuid().
 248:Generated_Source\PSoC6\pdl\middleware\ble/cy_ble_event_handler.h ****      *  The parameter of this event is a structure of the cy_stc_ble_conn_handle_t type.
 249:Generated_Source\PSoC6\pdl\middleware\ble/cy_ble_event_handler.h ****      */
 250:Generated_Source\PSoC6\pdl\middleware\ble/cy_ble_event_handler.h ****     CY_BLE_EVT_GATTC_CHAR_DISCOVERY_FAILED,
 251:Generated_Source\PSoC6\pdl\middleware\ble/cy_ble_event_handler.h **** 
 252:Generated_Source\PSoC6\pdl\middleware\ble/cy_ble_event_handler.h ****     /** GATT Client - The discovery of the service's characteristics failed. This event may
 253:Generated_Source\PSoC6\pdl\middleware\ble/cy_ble_event_handler.h ****      *  be generated on calling Cy_BLE_GATTC_DiscoverCharacteristicDescriptors().
 254:Generated_Source\PSoC6\pdl\middleware\ble/cy_ble_event_handler.h ****      *  The parameter of this event is a structure of the cy_stc_ble_conn_handle_t type.
 255:Generated_Source\PSoC6\pdl\middleware\ble/cy_ble_event_handler.h ****      */
 256:Generated_Source\PSoC6\pdl\middleware\ble/cy_ble_event_handler.h ****     CY_BLE_EVT_GATTC_DESCR_DISCOVERY_FAILED,
 257:Generated_Source\PSoC6\pdl\middleware\ble/cy_ble_event_handler.h **** 
 258:Generated_Source\PSoC6\pdl\middleware\ble/cy_ble_event_handler.h ****     /** GATT Client - A duplicate service record was found during the server device
 259:Generated_Source\PSoC6\pdl\middleware\ble/cy_ble_event_handler.h ****      *  discovery. The parameter of this event is a structure of cy_stc_ble_disc_srv_info_t
 260:Generated_Source\PSoC6\pdl\middleware\ble/cy_ble_event_handler.h ****      *  type.
ARM GAS  C:\Users\Brian\AppData\Local\Temp\ccRcp4rf.s 			page 13


 261:Generated_Source\PSoC6\pdl\middleware\ble/cy_ble_event_handler.h ****      */
 262:Generated_Source\PSoC6\pdl\middleware\ble/cy_ble_event_handler.h ****     CY_BLE_EVT_GATTC_SRVC_DUPLICATION,
 263:Generated_Source\PSoC6\pdl\middleware\ble/cy_ble_event_handler.h **** 
 264:Generated_Source\PSoC6\pdl\middleware\ble/cy_ble_event_handler.h ****     /** GATT Client - Duplicate service's characteristic record was found during
 265:Generated_Source\PSoC6\pdl\middleware\ble/cy_ble_event_handler.h ****      *  server device discovery. The parameter of this event is a structure
 266:Generated_Source\PSoC6\pdl\middleware\ble/cy_ble_event_handler.h ****      *  of cy_stc_ble_disc_char_info_t type.
 267:Generated_Source\PSoC6\pdl\middleware\ble/cy_ble_event_handler.h ****      */
 268:Generated_Source\PSoC6\pdl\middleware\ble/cy_ble_event_handler.h ****     CY_BLE_EVT_GATTC_CHAR_DUPLICATION,
 269:Generated_Source\PSoC6\pdl\middleware\ble/cy_ble_event_handler.h **** 
 270:Generated_Source\PSoC6\pdl\middleware\ble/cy_ble_event_handler.h ****     /** GATT Client - A duplicate service's characteristic descriptor record was found
 271:Generated_Source\PSoC6\pdl\middleware\ble/cy_ble_event_handler.h ****      *  during server device discovery. The parameter of this event is a structure
 272:Generated_Source\PSoC6\pdl\middleware\ble/cy_ble_event_handler.h ****      *  of cy_stc_ble_disc_descr_info_t type.
 273:Generated_Source\PSoC6\pdl\middleware\ble/cy_ble_event_handler.h ****      */
 274:Generated_Source\PSoC6\pdl\middleware\ble/cy_ble_event_handler.h ****     CY_BLE_EVT_GATTC_DESCR_DUPLICATION,
 275:Generated_Source\PSoC6\pdl\middleware\ble/cy_ble_event_handler.h **** 
 276:Generated_Source\PSoC6\pdl\middleware\ble/cy_ble_event_handler.h ****     /** GATT Client - The Service discovery procedure completed successfully. This
 277:Generated_Source\PSoC6\pdl\middleware\ble/cy_ble_event_handler.h ****      *  event may be generated on calling Cy_BLE_GATTC_DiscoverPrimaryServices().
 278:Generated_Source\PSoC6\pdl\middleware\ble/cy_ble_event_handler.h ****      *  The parameter of this event is a structure of the cy_stc_ble_conn_handle_t type.
 279:Generated_Source\PSoC6\pdl\middleware\ble/cy_ble_event_handler.h ****      */
 280:Generated_Source\PSoC6\pdl\middleware\ble/cy_ble_event_handler.h ****     CY_BLE_EVT_GATTC_SRVC_DISCOVERY_COMPLETE,
 281:Generated_Source\PSoC6\pdl\middleware\ble/cy_ble_event_handler.h **** 
 282:Generated_Source\PSoC6\pdl\middleware\ble/cy_ble_event_handler.h ****     /** GATT Client - The included services discovery is completed
 283:Generated_Source\PSoC6\pdl\middleware\ble/cy_ble_event_handler.h ****      *  successfully. This event may be generated on calling
 284:Generated_Source\PSoC6\pdl\middleware\ble/cy_ble_event_handler.h ****      *  Cy_BLE_GATTC_FindIncludedServices().
 285:Generated_Source\PSoC6\pdl\middleware\ble/cy_ble_event_handler.h ****      *  The parameter of this event is a structure of the cy_stc_ble_conn_handle_t type.
 286:Generated_Source\PSoC6\pdl\middleware\ble/cy_ble_event_handler.h ****      */
 287:Generated_Source\PSoC6\pdl\middleware\ble/cy_ble_event_handler.h ****     CY_BLE_EVT_GATTC_INCL_DISCOVERY_COMPLETE,
 288:Generated_Source\PSoC6\pdl\middleware\ble/cy_ble_event_handler.h **** 
 289:Generated_Source\PSoC6\pdl\middleware\ble/cy_ble_event_handler.h ****     /** GATT Client - The discovery of service's characteristics discovery is completed
 290:Generated_Source\PSoC6\pdl\middleware\ble/cy_ble_event_handler.h ****      *  successfully. This event may be generated on calling
 291:Generated_Source\PSoC6\pdl\middleware\ble/cy_ble_event_handler.h ****      *  Cy_BLE_GATTC_DiscoverCharacteristics() or
 292:Generated_Source\PSoC6\pdl\middleware\ble/cy_ble_event_handler.h ****      *  Cy_BLE_GATTC_ReadUsingCharacteristicUuid().
 293:Generated_Source\PSoC6\pdl\middleware\ble/cy_ble_event_handler.h ****      *  The parameter of this event is a structure of the cy_stc_ble_conn_handle_t type.
 294:Generated_Source\PSoC6\pdl\middleware\ble/cy_ble_event_handler.h ****      */
 295:Generated_Source\PSoC6\pdl\middleware\ble/cy_ble_event_handler.h ****     CY_BLE_EVT_GATTC_CHAR_DISCOVERY_COMPLETE,
 296:Generated_Source\PSoC6\pdl\middleware\ble/cy_ble_event_handler.h ****     
 297:Generated_Source\PSoC6\pdl\middleware\ble/cy_ble_event_handler.h ****     /** GATT Client - The service (not defined in the GATT database) was found during
 298:Generated_Source\PSoC6\pdl\middleware\ble/cy_ble_event_handler.h ****     *  the server device discovery. The discovery procedure skips this service.
 299:Generated_Source\PSoC6\pdl\middleware\ble/cy_ble_event_handler.h ****     *  This event parameter is a structure of the cy_stc_ble_disc_srv_info_t type.
 300:Generated_Source\PSoC6\pdl\middleware\ble/cy_ble_event_handler.h ****     */
 301:Generated_Source\PSoC6\pdl\middleware\ble/cy_ble_event_handler.h ****     CY_BLE_EVT_GATTC_DISC_SKIPPED_SERVICE,
 302:Generated_Source\PSoC6\pdl\middleware\ble/cy_ble_event_handler.h ****                     
 303:Generated_Source\PSoC6\pdl\middleware\ble/cy_ble_event_handler.h ****     /** GATT Client - The discovery of a remote device completed successfully.
 304:Generated_Source\PSoC6\pdl\middleware\ble/cy_ble_event_handler.h ****      *  The parameter of this event is a structure of the cy_stc_ble_conn_handle_t type.
 305:Generated_Source\PSoC6\pdl\middleware\ble/cy_ble_event_handler.h ****      */
 306:Generated_Source\PSoC6\pdl\middleware\ble/cy_ble_event_handler.h ****     CY_BLE_EVT_GATTC_DISCOVERY_COMPLETE,
 307:Generated_Source\PSoC6\pdl\middleware\ble/cy_ble_event_handler.h **** 
 308:Generated_Source\PSoC6\pdl\middleware\ble/cy_ble_event_handler.h ****     /****************************************
 309:Generated_Source\PSoC6\pdl\middleware\ble/cy_ble_event_handler.h ****      * AIOS Service Events
 310:Generated_Source\PSoC6\pdl\middleware\ble/cy_ble_event_handler.h ****      ***************************************/
 311:Generated_Source\PSoC6\pdl\middleware\ble/cy_ble_event_handler.h **** 
 312:Generated_Source\PSoC6\pdl\middleware\ble/cy_ble_event_handler.h ****     /** AIOS Server - Notification for Automation Input Output Service Characteristic
 313:Generated_Source\PSoC6\pdl\middleware\ble/cy_ble_event_handler.h ****      *  was enabled. The parameter of this event is a structure of
 314:Generated_Source\PSoC6\pdl\middleware\ble/cy_ble_event_handler.h ****      *  cy_stc_ble_aios_char_value_t type.
 315:Generated_Source\PSoC6\pdl\middleware\ble/cy_ble_event_handler.h ****      */
 316:Generated_Source\PSoC6\pdl\middleware\ble/cy_ble_event_handler.h ****     CY_BLE_EVT_AIOSS_NOTIFICATION_ENABLED,
 317:Generated_Source\PSoC6\pdl\middleware\ble/cy_ble_event_handler.h **** 
ARM GAS  C:\Users\Brian\AppData\Local\Temp\ccRcp4rf.s 			page 14


 318:Generated_Source\PSoC6\pdl\middleware\ble/cy_ble_event_handler.h ****     /** AIOS Server - Notification for Automation Input Output Service Characteristic
 319:Generated_Source\PSoC6\pdl\middleware\ble/cy_ble_event_handler.h ****      *  was disabled. The parameter of this event is a structure of
 320:Generated_Source\PSoC6\pdl\middleware\ble/cy_ble_event_handler.h ****      *  cy_stc_ble_aios_char_value_t type.
 321:Generated_Source\PSoC6\pdl\middleware\ble/cy_ble_event_handler.h ****      */
 322:Generated_Source\PSoC6\pdl\middleware\ble/cy_ble_event_handler.h ****     CY_BLE_EVT_AIOSS_NOTIFICATION_DISABLED,
 323:Generated_Source\PSoC6\pdl\middleware\ble/cy_ble_event_handler.h **** 
 324:Generated_Source\PSoC6\pdl\middleware\ble/cy_ble_event_handler.h ****     /** AIOS Server - Indication for Automation Input Output Service Characteristic
 325:Generated_Source\PSoC6\pdl\middleware\ble/cy_ble_event_handler.h ****      *  was enabled. The parameter of this event is a structure
 326:Generated_Source\PSoC6\pdl\middleware\ble/cy_ble_event_handler.h ****      *  of cy_stc_ble_aios_char_value_t type.
 327:Generated_Source\PSoC6\pdl\middleware\ble/cy_ble_event_handler.h ****      */
 328:Generated_Source\PSoC6\pdl\middleware\ble/cy_ble_event_handler.h ****     CY_BLE_EVT_AIOSS_INDICATION_ENABLED,
 329:Generated_Source\PSoC6\pdl\middleware\ble/cy_ble_event_handler.h **** 
 330:Generated_Source\PSoC6\pdl\middleware\ble/cy_ble_event_handler.h ****     /** AIOSS Server - Indication for Automation Input Output Service Characteristic
 331:Generated_Source\PSoC6\pdl\middleware\ble/cy_ble_event_handler.h ****      *  was disabled. The parameter of this event is a structure
 332:Generated_Source\PSoC6\pdl\middleware\ble/cy_ble_event_handler.h ****      *  of cy_stc_ble_aios_char_value_t type.
 333:Generated_Source\PSoC6\pdl\middleware\ble/cy_ble_event_handler.h ****      */
 334:Generated_Source\PSoC6\pdl\middleware\ble/cy_ble_event_handler.h ****     CY_BLE_EVT_AIOSS_INDICATION_DISABLED,
 335:Generated_Source\PSoC6\pdl\middleware\ble/cy_ble_event_handler.h **** 
 336:Generated_Source\PSoC6\pdl\middleware\ble/cy_ble_event_handler.h ****     /** AIOS Server - Automation Input Output Service Characteristic
 337:Generated_Source\PSoC6\pdl\middleware\ble/cy_ble_event_handler.h ****      *  Indication was confirmed. The parameter of this event
 338:Generated_Source\PSoC6\pdl\middleware\ble/cy_ble_event_handler.h ****      *  is a structure of cy_stc_ble_aios_char_value_t type.
 339:Generated_Source\PSoC6\pdl\middleware\ble/cy_ble_event_handler.h ****      */
 340:Generated_Source\PSoC6\pdl\middleware\ble/cy_ble_event_handler.h ****     CY_BLE_EVT_AIOSS_INDICATION_CONFIRMED,
 341:Generated_Source\PSoC6\pdl\middleware\ble/cy_ble_event_handler.h **** 
 342:Generated_Source\PSoC6\pdl\middleware\ble/cy_ble_event_handler.h ****     /** AIOS Server - Write Request for Automation Input Output Service Characteristic
 343:Generated_Source\PSoC6\pdl\middleware\ble/cy_ble_event_handler.h ****      *  was received. The parameter of this event is a structure
 344:Generated_Source\PSoC6\pdl\middleware\ble/cy_ble_event_handler.h ****      *  of cy_stc_ble_aios_char_value_t type.
 345:Generated_Source\PSoC6\pdl\middleware\ble/cy_ble_event_handler.h ****      */
 346:Generated_Source\PSoC6\pdl\middleware\ble/cy_ble_event_handler.h ****     CY_BLE_EVT_AIOSS_WRITE_CHAR,
 347:Generated_Source\PSoC6\pdl\middleware\ble/cy_ble_event_handler.h **** 
 348:Generated_Source\PSoC6\pdl\middleware\ble/cy_ble_event_handler.h ****     /** AIOSS Server - Write Request for Automation Input Output Service
 349:Generated_Source\PSoC6\pdl\middleware\ble/cy_ble_event_handler.h ****      *  Characteristic Descriptor was received. The parameter of this event is a structure of
 350:Generated_Source\PSoC6\pdl\middleware\ble/cy_ble_event_handler.h ****      *  cy_stc_ble_aios_char_value_t type.
 351:Generated_Source\PSoC6\pdl\middleware\ble/cy_ble_event_handler.h ****      */
 352:Generated_Source\PSoC6\pdl\middleware\ble/cy_ble_event_handler.h ****     CY_BLE_EVT_AIOSS_DESCR_WRITE,
 353:Generated_Source\PSoC6\pdl\middleware\ble/cy_ble_event_handler.h **** 
 354:Generated_Source\PSoC6\pdl\middleware\ble/cy_ble_event_handler.h ****     /** AIOS Client - Automation Input Output Characteristic Service Notification
 355:Generated_Source\PSoC6\pdl\middleware\ble/cy_ble_event_handler.h ****      *  was received. The parameter of this event is a structure
 356:Generated_Source\PSoC6\pdl\middleware\ble/cy_ble_event_handler.h ****      *  of cy_stc_ble_aios_char_value_t type.
 357:Generated_Source\PSoC6\pdl\middleware\ble/cy_ble_event_handler.h ****      */
 358:Generated_Source\PSoC6\pdl\middleware\ble/cy_ble_event_handler.h ****     CY_BLE_EVT_AIOSC_NOTIFICATION,
 359:Generated_Source\PSoC6\pdl\middleware\ble/cy_ble_event_handler.h **** 
 360:Generated_Source\PSoC6\pdl\middleware\ble/cy_ble_event_handler.h ****     /** AIOS Client - Automation Input Output Service Characteristic
 361:Generated_Source\PSoC6\pdl\middleware\ble/cy_ble_event_handler.h ****      *  Indication was received. The parameter of this event
 362:Generated_Source\PSoC6\pdl\middleware\ble/cy_ble_event_handler.h ****      *  is a structure of cy_stc_ble_aios_char_value_t type.
 363:Generated_Source\PSoC6\pdl\middleware\ble/cy_ble_event_handler.h ****      */
 364:Generated_Source\PSoC6\pdl\middleware\ble/cy_ble_event_handler.h ****     CY_BLE_EVT_AIOSC_INDICATION,
 365:Generated_Source\PSoC6\pdl\middleware\ble/cy_ble_event_handler.h **** 
 366:Generated_Source\PSoC6\pdl\middleware\ble/cy_ble_event_handler.h ****     /** AIOS Client - Read Response for Read Request for Automation Input Output Service Characteri
 367:Generated_Source\PSoC6\pdl\middleware\ble/cy_ble_event_handler.h ****      *  Value. The parameter of this event is a structure of
 368:Generated_Source\PSoC6\pdl\middleware\ble/cy_ble_event_handler.h ****      *  cy_stc_ble_aios_char_value_t type.
 369:Generated_Source\PSoC6\pdl\middleware\ble/cy_ble_event_handler.h ****      */
 370:Generated_Source\PSoC6\pdl\middleware\ble/cy_ble_event_handler.h ****     CY_BLE_EVT_AIOSC_READ_CHAR_RESPONSE,
 371:Generated_Source\PSoC6\pdl\middleware\ble/cy_ble_event_handler.h **** 
 372:Generated_Source\PSoC6\pdl\middleware\ble/cy_ble_event_handler.h ****     /** AIOS Client - Write Response for Write Request for Automation Input Output Service
 373:Generated_Source\PSoC6\pdl\middleware\ble/cy_ble_event_handler.h ****      *  Characteristic Value. The parameter of this event is a structure of
 374:Generated_Source\PSoC6\pdl\middleware\ble/cy_ble_event_handler.h ****      *  cy_stc_ble_aios_char_value_t type.
ARM GAS  C:\Users\Brian\AppData\Local\Temp\ccRcp4rf.s 			page 15


 375:Generated_Source\PSoC6\pdl\middleware\ble/cy_ble_event_handler.h ****      */
 376:Generated_Source\PSoC6\pdl\middleware\ble/cy_ble_event_handler.h ****     CY_BLE_EVT_AIOSC_WRITE_CHAR_RESPONSE,
 377:Generated_Source\PSoC6\pdl\middleware\ble/cy_ble_event_handler.h **** 
 378:Generated_Source\PSoC6\pdl\middleware\ble/cy_ble_event_handler.h ****     /** AIOS Client - Read Response for Read Request for Automation Input Output Service
 379:Generated_Source\PSoC6\pdl\middleware\ble/cy_ble_event_handler.h ****      *  Characteristic Descriptor Read Request. The parameter of this event is a
 380:Generated_Source\PSoC6\pdl\middleware\ble/cy_ble_event_handler.h ****      *  structure of cy_stc_ble_aios_descr_value_t type.
 381:Generated_Source\PSoC6\pdl\middleware\ble/cy_ble_event_handler.h ****      */
 382:Generated_Source\PSoC6\pdl\middleware\ble/cy_ble_event_handler.h ****     CY_BLE_EVT_AIOSC_READ_DESCR_RESPONSE,
 383:Generated_Source\PSoC6\pdl\middleware\ble/cy_ble_event_handler.h **** 
 384:Generated_Source\PSoC6\pdl\middleware\ble/cy_ble_event_handler.h ****     /** AIOS Client - Write Response for Write Request for Automation Input Output Service
 385:Generated_Source\PSoC6\pdl\middleware\ble/cy_ble_event_handler.h ****      *  Client Characteristic Configuration Descriptor Value. The parameter of
 386:Generated_Source\PSoC6\pdl\middleware\ble/cy_ble_event_handler.h ****      *  this event is a structure of cy_stc_ble_aios_descr_value_t type.
 387:Generated_Source\PSoC6\pdl\middleware\ble/cy_ble_event_handler.h ****      */
 388:Generated_Source\PSoC6\pdl\middleware\ble/cy_ble_event_handler.h ****     CY_BLE_EVT_AIOSC_WRITE_DESCR_RESPONSE,
 389:Generated_Source\PSoC6\pdl\middleware\ble/cy_ble_event_handler.h **** 
 390:Generated_Source\PSoC6\pdl\middleware\ble/cy_ble_event_handler.h ****     /** AIOS Client - Error Response for Write Request for Automation Input Output Service
 391:Generated_Source\PSoC6\pdl\middleware\ble/cy_ble_event_handler.h ****      *  Characteristic Value. The parameter of this event is a structure of
 392:Generated_Source\PSoC6\pdl\middleware\ble/cy_ble_event_handler.h ****      *  cy_stc_ble_ancs_char_value_t type.
 393:Generated_Source\PSoC6\pdl\middleware\ble/cy_ble_event_handler.h ****      */
 394:Generated_Source\PSoC6\pdl\middleware\ble/cy_ble_event_handler.h ****     CY_BLE_EVT_AIOSC_ERROR_RESPONSE,
 395:Generated_Source\PSoC6\pdl\middleware\ble/cy_ble_event_handler.h **** 
 396:Generated_Source\PSoC6\pdl\middleware\ble/cy_ble_event_handler.h ****     /****************************************
 397:Generated_Source\PSoC6\pdl\middleware\ble/cy_ble_event_handler.h ****      * ANCS Service Events
 398:Generated_Source\PSoC6\pdl\middleware\ble/cy_ble_event_handler.h ****      ***************************************/
 399:Generated_Source\PSoC6\pdl\middleware\ble/cy_ble_event_handler.h **** 
 400:Generated_Source\PSoC6\pdl\middleware\ble/cy_ble_event_handler.h ****     /** ANCS Server - Notification for Apple Notification Center Service Characteristic
 401:Generated_Source\PSoC6\pdl\middleware\ble/cy_ble_event_handler.h ****      *  was enabled. The parameter of this event is a structure of
 402:Generated_Source\PSoC6\pdl\middleware\ble/cy_ble_event_handler.h ****      *  the cy_stc_ble_ancs_char_value_t type.
 403:Generated_Source\PSoC6\pdl\middleware\ble/cy_ble_event_handler.h ****      */
 404:Generated_Source\PSoC6\pdl\middleware\ble/cy_ble_event_handler.h ****     CY_BLE_EVT_ANCSS_NOTIFICATION_ENABLED,
 405:Generated_Source\PSoC6\pdl\middleware\ble/cy_ble_event_handler.h **** 
 406:Generated_Source\PSoC6\pdl\middleware\ble/cy_ble_event_handler.h ****     /** ANCS Server - Notification for Apple Notification Center Service Characteristic
 407:Generated_Source\PSoC6\pdl\middleware\ble/cy_ble_event_handler.h ****      *  was disabled. The parameter of this event is a structure of
 408:Generated_Source\PSoC6\pdl\middleware\ble/cy_ble_event_handler.h ****      *  the cy_stc_ble_ancs_char_value_t type.
 409:Generated_Source\PSoC6\pdl\middleware\ble/cy_ble_event_handler.h ****      */
 410:Generated_Source\PSoC6\pdl\middleware\ble/cy_ble_event_handler.h ****     CY_BLE_EVT_ANCSS_NOTIFICATION_DISABLED,
 411:Generated_Source\PSoC6\pdl\middleware\ble/cy_ble_event_handler.h **** 
 412:Generated_Source\PSoC6\pdl\middleware\ble/cy_ble_event_handler.h ****     /** ANCS Server - Write Request for Apple Notification Center Service Characteristic
 413:Generated_Source\PSoC6\pdl\middleware\ble/cy_ble_event_handler.h ****      *  was received. The parameter of this event is a structure
 414:Generated_Source\PSoC6\pdl\middleware\ble/cy_ble_event_handler.h ****      *  of the cy_stc_ble_ancs_char_value_t type.
 415:Generated_Source\PSoC6\pdl\middleware\ble/cy_ble_event_handler.h ****      */
 416:Generated_Source\PSoC6\pdl\middleware\ble/cy_ble_event_handler.h ****     CY_BLE_EVT_ANCSS_WRITE_CHAR,
 417:Generated_Source\PSoC6\pdl\middleware\ble/cy_ble_event_handler.h **** 
 418:Generated_Source\PSoC6\pdl\middleware\ble/cy_ble_event_handler.h ****     /** ANCS Client - Apple Notification Center Characteristic Service Notification
 419:Generated_Source\PSoC6\pdl\middleware\ble/cy_ble_event_handler.h ****      *  was received. The parameter of this event is a structure
 420:Generated_Source\PSoC6\pdl\middleware\ble/cy_ble_event_handler.h ****      *  of the cy_stc_ble_ancs_char_value_t type.
 421:Generated_Source\PSoC6\pdl\middleware\ble/cy_ble_event_handler.h ****      */
 422:Generated_Source\PSoC6\pdl\middleware\ble/cy_ble_event_handler.h ****     CY_BLE_EVT_ANCSC_NOTIFICATION,
 423:Generated_Source\PSoC6\pdl\middleware\ble/cy_ble_event_handler.h **** 
 424:Generated_Source\PSoC6\pdl\middleware\ble/cy_ble_event_handler.h ****     /** ANCS Client - Write Response for Write Request for Apple Notification Center Service
 425:Generated_Source\PSoC6\pdl\middleware\ble/cy_ble_event_handler.h ****      *  Characteristic Value. The parameter of this event is a structure of
 426:Generated_Source\PSoC6\pdl\middleware\ble/cy_ble_event_handler.h ****      *  cy_stc_ble_ancs_char_value_t type.
 427:Generated_Source\PSoC6\pdl\middleware\ble/cy_ble_event_handler.h ****      */
 428:Generated_Source\PSoC6\pdl\middleware\ble/cy_ble_event_handler.h ****     CY_BLE_EVT_ANCSC_WRITE_CHAR_RESPONSE,
 429:Generated_Source\PSoC6\pdl\middleware\ble/cy_ble_event_handler.h **** 
 430:Generated_Source\PSoC6\pdl\middleware\ble/cy_ble_event_handler.h ****     /** ANCS Client - Read Response for Read Request for Apple Notification Center Service
 431:Generated_Source\PSoC6\pdl\middleware\ble/cy_ble_event_handler.h ****      *  Characteristic Descriptor Read Request. The parameter of this event is a
ARM GAS  C:\Users\Brian\AppData\Local\Temp\ccRcp4rf.s 			page 16


 432:Generated_Source\PSoC6\pdl\middleware\ble/cy_ble_event_handler.h ****      *  structure of the cy_stc_ble_ancs_descr_value_t type.
 433:Generated_Source\PSoC6\pdl\middleware\ble/cy_ble_event_handler.h ****      */
 434:Generated_Source\PSoC6\pdl\middleware\ble/cy_ble_event_handler.h ****     CY_BLE_EVT_ANCSC_READ_DESCR_RESPONSE,
 435:Generated_Source\PSoC6\pdl\middleware\ble/cy_ble_event_handler.h **** 
 436:Generated_Source\PSoC6\pdl\middleware\ble/cy_ble_event_handler.h ****     /** ANCS Client - Write Response for Write Request for Apple Notification Center Service
 437:Generated_Source\PSoC6\pdl\middleware\ble/cy_ble_event_handler.h ****      *  Client Characteristic Configuration Descriptor Value. The parameter of
 438:Generated_Source\PSoC6\pdl\middleware\ble/cy_ble_event_handler.h ****      *  this event is a structure of the cy_stc_ble_ancs_descr_value_t type.
 439:Generated_Source\PSoC6\pdl\middleware\ble/cy_ble_event_handler.h ****      */
 440:Generated_Source\PSoC6\pdl\middleware\ble/cy_ble_event_handler.h ****     CY_BLE_EVT_ANCSC_WRITE_DESCR_RESPONSE,
 441:Generated_Source\PSoC6\pdl\middleware\ble/cy_ble_event_handler.h **** 
 442:Generated_Source\PSoC6\pdl\middleware\ble/cy_ble_event_handler.h ****     /** ANCS Client - Error Response for Write Request for Apple Notification Center Service
 443:Generated_Source\PSoC6\pdl\middleware\ble/cy_ble_event_handler.h ****      *  Characteristic Value. The parameter of this event is a structure of
 444:Generated_Source\PSoC6\pdl\middleware\ble/cy_ble_event_handler.h ****      *  the cy_stc_ble_ancs_char_value_t type.
 445:Generated_Source\PSoC6\pdl\middleware\ble/cy_ble_event_handler.h ****      */
 446:Generated_Source\PSoC6\pdl\middleware\ble/cy_ble_event_handler.h ****     CY_BLE_EVT_ANCSC_ERROR_RESPONSE,
 447:Generated_Source\PSoC6\pdl\middleware\ble/cy_ble_event_handler.h **** 
 448:Generated_Source\PSoC6\pdl\middleware\ble/cy_ble_event_handler.h **** 
 449:Generated_Source\PSoC6\pdl\middleware\ble/cy_ble_event_handler.h ****     /****************************************
 450:Generated_Source\PSoC6\pdl\middleware\ble/cy_ble_event_handler.h ****      * ANS Service Events
 451:Generated_Source\PSoC6\pdl\middleware\ble/cy_ble_event_handler.h ****      ***************************************/
 452:Generated_Source\PSoC6\pdl\middleware\ble/cy_ble_event_handler.h **** 
 453:Generated_Source\PSoC6\pdl\middleware\ble/cy_ble_event_handler.h ****     /** ANS Server - Notification for Alert Notification Service Characteristic
 454:Generated_Source\PSoC6\pdl\middleware\ble/cy_ble_event_handler.h ****      *  was enabled. The parameter of this event is a structure of
 455:Generated_Source\PSoC6\pdl\middleware\ble/cy_ble_event_handler.h ****      *  the cy_stc_ble_ans_char_value_t type.
 456:Generated_Source\PSoC6\pdl\middleware\ble/cy_ble_event_handler.h ****      */
 457:Generated_Source\PSoC6\pdl\middleware\ble/cy_ble_event_handler.h ****     CY_BLE_EVT_ANSS_NOTIFICATION_ENABLED,
 458:Generated_Source\PSoC6\pdl\middleware\ble/cy_ble_event_handler.h **** 
 459:Generated_Source\PSoC6\pdl\middleware\ble/cy_ble_event_handler.h ****     /** ANS Server - Notification for Alert Notification Service Characteristic
 460:Generated_Source\PSoC6\pdl\middleware\ble/cy_ble_event_handler.h ****      *  was disabled. The parameter of this event is a structure of
 461:Generated_Source\PSoC6\pdl\middleware\ble/cy_ble_event_handler.h ****      *  the cy_stc_ble_ans_char_value_t type.
 462:Generated_Source\PSoC6\pdl\middleware\ble/cy_ble_event_handler.h ****      */
 463:Generated_Source\PSoC6\pdl\middleware\ble/cy_ble_event_handler.h ****     CY_BLE_EVT_ANSS_NOTIFICATION_DISABLED,
 464:Generated_Source\PSoC6\pdl\middleware\ble/cy_ble_event_handler.h **** 
 465:Generated_Source\PSoC6\pdl\middleware\ble/cy_ble_event_handler.h ****     /** ANS Server - Write Request for Alert Notification Service Characteristic
 466:Generated_Source\PSoC6\pdl\middleware\ble/cy_ble_event_handler.h ****      *  was received. The parameter of this event is a structure
 467:Generated_Source\PSoC6\pdl\middleware\ble/cy_ble_event_handler.h ****      *  of the cy_stc_ble_ans_char_value_t type.
 468:Generated_Source\PSoC6\pdl\middleware\ble/cy_ble_event_handler.h ****      */
 469:Generated_Source\PSoC6\pdl\middleware\ble/cy_ble_event_handler.h ****     CY_BLE_EVT_ANSS_WRITE_CHAR,
 470:Generated_Source\PSoC6\pdl\middleware\ble/cy_ble_event_handler.h **** 
 471:Generated_Source\PSoC6\pdl\middleware\ble/cy_ble_event_handler.h ****     /** ANS Client - Alert Notification Characteristic Service Notification
 472:Generated_Source\PSoC6\pdl\middleware\ble/cy_ble_event_handler.h ****      *  was received. The parameter of this event is a structure
 473:Generated_Source\PSoC6\pdl\middleware\ble/cy_ble_event_handler.h ****      *  of the cy_stc_ble_ans_char_value_t type.
 474:Generated_Source\PSoC6\pdl\middleware\ble/cy_ble_event_handler.h ****      */
 475:Generated_Source\PSoC6\pdl\middleware\ble/cy_ble_event_handler.h ****     CY_BLE_EVT_ANSC_NOTIFICATION,
 476:Generated_Source\PSoC6\pdl\middleware\ble/cy_ble_event_handler.h **** 
 477:Generated_Source\PSoC6\pdl\middleware\ble/cy_ble_event_handler.h ****     /** ANS Client - Read Response for Alert Notification Service Characteristic
 478:Generated_Source\PSoC6\pdl\middleware\ble/cy_ble_event_handler.h ****      *  Value. The parameter of this event is a structure of
 479:Generated_Source\PSoC6\pdl\middleware\ble/cy_ble_event_handler.h ****      *  the cy_stc_ble_ans_char_value_t type.
 480:Generated_Source\PSoC6\pdl\middleware\ble/cy_ble_event_handler.h ****      */
 481:Generated_Source\PSoC6\pdl\middleware\ble/cy_ble_event_handler.h ****     CY_BLE_EVT_ANSC_READ_CHAR_RESPONSE,
 482:Generated_Source\PSoC6\pdl\middleware\ble/cy_ble_event_handler.h **** 
 483:Generated_Source\PSoC6\pdl\middleware\ble/cy_ble_event_handler.h ****     /** ANS Client - Write Response for Write Request for Alert Notification Service
 484:Generated_Source\PSoC6\pdl\middleware\ble/cy_ble_event_handler.h ****      *  Characteristic Value. The parameter of this event is a structure of
 485:Generated_Source\PSoC6\pdl\middleware\ble/cy_ble_event_handler.h ****      *  the cy_stc_ble_ans_char_value_t type.
 486:Generated_Source\PSoC6\pdl\middleware\ble/cy_ble_event_handler.h ****      */
 487:Generated_Source\PSoC6\pdl\middleware\ble/cy_ble_event_handler.h ****     CY_BLE_EVT_ANSC_WRITE_CHAR_RESPONSE,
 488:Generated_Source\PSoC6\pdl\middleware\ble/cy_ble_event_handler.h **** 
ARM GAS  C:\Users\Brian\AppData\Local\Temp\ccRcp4rf.s 			page 17


 489:Generated_Source\PSoC6\pdl\middleware\ble/cy_ble_event_handler.h ****     /** ANS Client - Read Response for Read Request for Alert Notification Service
 490:Generated_Source\PSoC6\pdl\middleware\ble/cy_ble_event_handler.h ****      *  Characteristic Descriptor Read Request. The parameter of this event is a
 491:Generated_Source\PSoC6\pdl\middleware\ble/cy_ble_event_handler.h ****      *  structure of the cy_stc_ble_ans_descr_value_t type.
 492:Generated_Source\PSoC6\pdl\middleware\ble/cy_ble_event_handler.h ****      */
 493:Generated_Source\PSoC6\pdl\middleware\ble/cy_ble_event_handler.h ****     CY_BLE_EVT_ANSC_READ_DESCR_RESPONSE,
 494:Generated_Source\PSoC6\pdl\middleware\ble/cy_ble_event_handler.h **** 
 495:Generated_Source\PSoC6\pdl\middleware\ble/cy_ble_event_handler.h ****     /** ANS Client - Write Response for Write Request for Alert Notification Service
 496:Generated_Source\PSoC6\pdl\middleware\ble/cy_ble_event_handler.h ****      *  Client Characteristic Configuration Descriptor Value. The parameter of
 497:Generated_Source\PSoC6\pdl\middleware\ble/cy_ble_event_handler.h ****      *  this event is a structure of the cy_stc_ble_ans_descr_value_t type.
 498:Generated_Source\PSoC6\pdl\middleware\ble/cy_ble_event_handler.h ****      */
 499:Generated_Source\PSoC6\pdl\middleware\ble/cy_ble_event_handler.h ****     CY_BLE_EVT_ANSC_WRITE_DESCR_RESPONSE,
 500:Generated_Source\PSoC6\pdl\middleware\ble/cy_ble_event_handler.h **** 
 501:Generated_Source\PSoC6\pdl\middleware\ble/cy_ble_event_handler.h **** 
 502:Generated_Source\PSoC6\pdl\middleware\ble/cy_ble_event_handler.h ****     /****************************************
 503:Generated_Source\PSoC6\pdl\middleware\ble/cy_ble_event_handler.h ****      * BAS Service Events
 504:Generated_Source\PSoC6\pdl\middleware\ble/cy_ble_event_handler.h ****      ***************************************/
 505:Generated_Source\PSoC6\pdl\middleware\ble/cy_ble_event_handler.h **** 
 506:Generated_Source\PSoC6\pdl\middleware\ble/cy_ble_event_handler.h ****     /** BAS Server - Notification for Battery Level Characteristic was enabled. The
 507:Generated_Source\PSoC6\pdl\middleware\ble/cy_ble_event_handler.h ****      *  parameter of this event is a structure of the cy_stc_ble_bas_char_value_t type.
 508:Generated_Source\PSoC6\pdl\middleware\ble/cy_ble_event_handler.h ****      */
 509:Generated_Source\PSoC6\pdl\middleware\ble/cy_ble_event_handler.h ****     CY_BLE_EVT_BASS_NOTIFICATION_ENABLED,
 510:Generated_Source\PSoC6\pdl\middleware\ble/cy_ble_event_handler.h **** 
 511:Generated_Source\PSoC6\pdl\middleware\ble/cy_ble_event_handler.h ****     /** BAS Server - Notification for Battery Level Characteristic was disabled. The
 512:Generated_Source\PSoC6\pdl\middleware\ble/cy_ble_event_handler.h ****      *  parameter of this event is a structure of the cy_stc_ble_bas_char_value_t type.
 513:Generated_Source\PSoC6\pdl\middleware\ble/cy_ble_event_handler.h ****      */
 514:Generated_Source\PSoC6\pdl\middleware\ble/cy_ble_event_handler.h ****     CY_BLE_EVT_BASS_NOTIFICATION_DISABLED,
 515:Generated_Source\PSoC6\pdl\middleware\ble/cy_ble_event_handler.h **** 
 516:Generated_Source\PSoC6\pdl\middleware\ble/cy_ble_event_handler.h ****     /** BAS Client - Battery Level Characteristic Notification was received. The
 517:Generated_Source\PSoC6\pdl\middleware\ble/cy_ble_event_handler.h ****      *  parameter of this event is a structure of the cy_stc_ble_bas_char_value_t type.
 518:Generated_Source\PSoC6\pdl\middleware\ble/cy_ble_event_handler.h ****      */
 519:Generated_Source\PSoC6\pdl\middleware\ble/cy_ble_event_handler.h ****     CY_BLE_EVT_BASC_NOTIFICATION,
 520:Generated_Source\PSoC6\pdl\middleware\ble/cy_ble_event_handler.h **** 
 521:Generated_Source\PSoC6\pdl\middleware\ble/cy_ble_event_handler.h ****     /** BAS Client - Read Response for Battery Level Characteristic Value. The
 522:Generated_Source\PSoC6\pdl\middleware\ble/cy_ble_event_handler.h ****      *  parameter of this event is a structure of the cy_stc_ble_bas_char_value_t type.
 523:Generated_Source\PSoC6\pdl\middleware\ble/cy_ble_event_handler.h ****      */
 524:Generated_Source\PSoC6\pdl\middleware\ble/cy_ble_event_handler.h ****     CY_BLE_EVT_BASC_READ_CHAR_RESPONSE,
 525:Generated_Source\PSoC6\pdl\middleware\ble/cy_ble_event_handler.h **** 
 526:Generated_Source\PSoC6\pdl\middleware\ble/cy_ble_event_handler.h ****     /** BAS Client - Read Response for Battery Level Characteristic Descriptor Read
 527:Generated_Source\PSoC6\pdl\middleware\ble/cy_ble_event_handler.h ****      *  Request. The parameter of this event is a structure of
 528:Generated_Source\PSoC6\pdl\middleware\ble/cy_ble_event_handler.h ****      *  the cy_stc_ble_bas_descr_value_t type.
 529:Generated_Source\PSoC6\pdl\middleware\ble/cy_ble_event_handler.h ****      */
 530:Generated_Source\PSoC6\pdl\middleware\ble/cy_ble_event_handler.h ****     CY_BLE_EVT_BASC_READ_DESCR_RESPONSE,
 531:Generated_Source\PSoC6\pdl\middleware\ble/cy_ble_event_handler.h **** 
 532:Generated_Source\PSoC6\pdl\middleware\ble/cy_ble_event_handler.h ****     /** BAS Client - Write Response for Battery Level Client Characteristic
 533:Generated_Source\PSoC6\pdl\middleware\ble/cy_ble_event_handler.h ****      *  Configuration Descriptor Value. The parameter of this event is a structure of
 534:Generated_Source\PSoC6\pdl\middleware\ble/cy_ble_event_handler.h ****      *  the cy_stc_ble_bas_descr_value_t type.
 535:Generated_Source\PSoC6\pdl\middleware\ble/cy_ble_event_handler.h ****      */
 536:Generated_Source\PSoC6\pdl\middleware\ble/cy_ble_event_handler.h ****     CY_BLE_EVT_BASC_WRITE_DESCR_RESPONSE,
 537:Generated_Source\PSoC6\pdl\middleware\ble/cy_ble_event_handler.h **** 
 538:Generated_Source\PSoC6\pdl\middleware\ble/cy_ble_event_handler.h **** 
 539:Generated_Source\PSoC6\pdl\middleware\ble/cy_ble_event_handler.h ****     /****************************************
 540:Generated_Source\PSoC6\pdl\middleware\ble/cy_ble_event_handler.h ****      * Body Composition Service Events
 541:Generated_Source\PSoC6\pdl\middleware\ble/cy_ble_event_handler.h ****      ***************************************/
 542:Generated_Source\PSoC6\pdl\middleware\ble/cy_ble_event_handler.h **** 
 543:Generated_Source\PSoC6\pdl\middleware\ble/cy_ble_event_handler.h ****     /** BCS Server - Indication for Body Composition Service Characteristic
 544:Generated_Source\PSoC6\pdl\middleware\ble/cy_ble_event_handler.h ****      *  was enabled. The parameter of this event is a structure
 545:Generated_Source\PSoC6\pdl\middleware\ble/cy_ble_event_handler.h ****      *  of the cy_stc_ble_bcs_char_value_t type.
ARM GAS  C:\Users\Brian\AppData\Local\Temp\ccRcp4rf.s 			page 18


 546:Generated_Source\PSoC6\pdl\middleware\ble/cy_ble_event_handler.h ****      */
 547:Generated_Source\PSoC6\pdl\middleware\ble/cy_ble_event_handler.h ****     CY_BLE_EVT_BCSS_INDICATION_ENABLED,
 548:Generated_Source\PSoC6\pdl\middleware\ble/cy_ble_event_handler.h **** 
 549:Generated_Source\PSoC6\pdl\middleware\ble/cy_ble_event_handler.h ****     /** BCS Server - Indication for Body Composition Service Characteristic
 550:Generated_Source\PSoC6\pdl\middleware\ble/cy_ble_event_handler.h ****      *  was disabled. The parameter of this event is a structure
 551:Generated_Source\PSoC6\pdl\middleware\ble/cy_ble_event_handler.h ****      *  of the cy_stc_ble_bcs_char_value_t type.
 552:Generated_Source\PSoC6\pdl\middleware\ble/cy_ble_event_handler.h ****      */
 553:Generated_Source\PSoC6\pdl\middleware\ble/cy_ble_event_handler.h ****     CY_BLE_EVT_BCSS_INDICATION_DISABLED,
 554:Generated_Source\PSoC6\pdl\middleware\ble/cy_ble_event_handler.h **** 
 555:Generated_Source\PSoC6\pdl\middleware\ble/cy_ble_event_handler.h ****     /** BCS Server - Body Composition Service Characteristic
 556:Generated_Source\PSoC6\pdl\middleware\ble/cy_ble_event_handler.h ****      *  Indication was confirmed. The parameter of this event
 557:Generated_Source\PSoC6\pdl\middleware\ble/cy_ble_event_handler.h ****      *  is a structure of the cy_stc_ble_bcs_char_value_t type.
 558:Generated_Source\PSoC6\pdl\middleware\ble/cy_ble_event_handler.h ****      */
 559:Generated_Source\PSoC6\pdl\middleware\ble/cy_ble_event_handler.h ****     CY_BLE_EVT_BCSS_INDICATION_CONFIRMED,
 560:Generated_Source\PSoC6\pdl\middleware\ble/cy_ble_event_handler.h **** 
 561:Generated_Source\PSoC6\pdl\middleware\ble/cy_ble_event_handler.h ****     /** BCS Client - Body Composition Service Characteristic
 562:Generated_Source\PSoC6\pdl\middleware\ble/cy_ble_event_handler.h ****      *  Indication was received. The parameter of this event
 563:Generated_Source\PSoC6\pdl\middleware\ble/cy_ble_event_handler.h ****      *  is a structure of the cy_stc_ble_bcs_char_value_t type.
 564:Generated_Source\PSoC6\pdl\middleware\ble/cy_ble_event_handler.h ****      */
 565:Generated_Source\PSoC6\pdl\middleware\ble/cy_ble_event_handler.h ****     CY_BLE_EVT_BCSC_INDICATION,
 566:Generated_Source\PSoC6\pdl\middleware\ble/cy_ble_event_handler.h **** 
 567:Generated_Source\PSoC6\pdl\middleware\ble/cy_ble_event_handler.h ****     /** BCS Client - Read Response for Read Request of Body Composition
 568:Generated_Source\PSoC6\pdl\middleware\ble/cy_ble_event_handler.h ****      *  Service Characteristic value. The parameter of this event
 569:Generated_Source\PSoC6\pdl\middleware\ble/cy_ble_event_handler.h ****      *  is a structure of the cy_stc_ble_bcs_char_value_t type.
 570:Generated_Source\PSoC6\pdl\middleware\ble/cy_ble_event_handler.h ****      */
 571:Generated_Source\PSoC6\pdl\middleware\ble/cy_ble_event_handler.h ****     CY_BLE_EVT_BCSC_READ_CHAR_RESPONSE,
 572:Generated_Source\PSoC6\pdl\middleware\ble/cy_ble_event_handler.h **** 
 573:Generated_Source\PSoC6\pdl\middleware\ble/cy_ble_event_handler.h ****     /** BCS Client - Read Response for Read Request of Body Composition
 574:Generated_Source\PSoC6\pdl\middleware\ble/cy_ble_event_handler.h ****      *  Service Characteristic Descriptor Read request. The
 575:Generated_Source\PSoC6\pdl\middleware\ble/cy_ble_event_handler.h ****      *  parameter of this event is a structure of
 576:Generated_Source\PSoC6\pdl\middleware\ble/cy_ble_event_handler.h ****      *  the cy_stc_ble_bcs_descr_value_t type.
 577:Generated_Source\PSoC6\pdl\middleware\ble/cy_ble_event_handler.h ****      */
 578:Generated_Source\PSoC6\pdl\middleware\ble/cy_ble_event_handler.h ****     CY_BLE_EVT_BCSC_READ_DESCR_RESPONSE,
 579:Generated_Source\PSoC6\pdl\middleware\ble/cy_ble_event_handler.h **** 
 580:Generated_Source\PSoC6\pdl\middleware\ble/cy_ble_event_handler.h ****     /** BCS Client - Write Response for Write Request of Body Composition
 581:Generated_Source\PSoC6\pdl\middleware\ble/cy_ble_event_handler.h ****      *  Service Characteristic Configuration Descriptor value.
 582:Generated_Source\PSoC6\pdl\middleware\ble/cy_ble_event_handler.h ****      *  The parameter of this event is a structure of
 583:Generated_Source\PSoC6\pdl\middleware\ble/cy_ble_event_handler.h ****      *  the cy_stc_ble_bcs_descr_value_t type.
 584:Generated_Source\PSoC6\pdl\middleware\ble/cy_ble_event_handler.h ****      */
 585:Generated_Source\PSoC6\pdl\middleware\ble/cy_ble_event_handler.h ****     CY_BLE_EVT_BCSC_WRITE_DESCR_RESPONSE,
 586:Generated_Source\PSoC6\pdl\middleware\ble/cy_ble_event_handler.h **** 
 587:Generated_Source\PSoC6\pdl\middleware\ble/cy_ble_event_handler.h ****     /****************************************
 588:Generated_Source\PSoC6\pdl\middleware\ble/cy_ble_event_handler.h ****      * Blood Pressure Service Events
 589:Generated_Source\PSoC6\pdl\middleware\ble/cy_ble_event_handler.h ****      ***************************************/
 590:Generated_Source\PSoC6\pdl\middleware\ble/cy_ble_event_handler.h **** 
 591:Generated_Source\PSoC6\pdl\middleware\ble/cy_ble_event_handler.h ****     /** BLS Server - Indication for Blood Pressure Service Characteristic was enabled.
 592:Generated_Source\PSoC6\pdl\middleware\ble/cy_ble_event_handler.h ****      *  The parameter of this event is a structure of the cy_stc_ble_bls_char_value_t type.
 593:Generated_Source\PSoC6\pdl\middleware\ble/cy_ble_event_handler.h ****      */
 594:Generated_Source\PSoC6\pdl\middleware\ble/cy_ble_event_handler.h ****     CY_BLE_EVT_BLSS_INDICATION_ENABLED,
 595:Generated_Source\PSoC6\pdl\middleware\ble/cy_ble_event_handler.h **** 
 596:Generated_Source\PSoC6\pdl\middleware\ble/cy_ble_event_handler.h ****     /** BLS Server - Indication for Blood Pressure Service Characteristic was
 597:Generated_Source\PSoC6\pdl\middleware\ble/cy_ble_event_handler.h ****      *  disabled. The parameter of this event is a structure of
 598:Generated_Source\PSoC6\pdl\middleware\ble/cy_ble_event_handler.h ****      *  the cy_stc_ble_bls_char_value_t type.
 599:Generated_Source\PSoC6\pdl\middleware\ble/cy_ble_event_handler.h ****      */
 600:Generated_Source\PSoC6\pdl\middleware\ble/cy_ble_event_handler.h ****     CY_BLE_EVT_BLSS_INDICATION_DISABLED,
 601:Generated_Source\PSoC6\pdl\middleware\ble/cy_ble_event_handler.h **** 
 602:Generated_Source\PSoC6\pdl\middleware\ble/cy_ble_event_handler.h ****     /** BLS Server - Blood Pressure Service Characteristic Indication was confirmed.
ARM GAS  C:\Users\Brian\AppData\Local\Temp\ccRcp4rf.s 			page 19


 603:Generated_Source\PSoC6\pdl\middleware\ble/cy_ble_event_handler.h ****      *  The parameter of this event is a structure of cy_stc_ble_bls_char_value_t type
 604:Generated_Source\PSoC6\pdl\middleware\ble/cy_ble_event_handler.h ****      */
 605:Generated_Source\PSoC6\pdl\middleware\ble/cy_ble_event_handler.h ****     CY_BLE_EVT_BLSS_INDICATION_CONFIRMED,
 606:Generated_Source\PSoC6\pdl\middleware\ble/cy_ble_event_handler.h **** 
 607:Generated_Source\PSoC6\pdl\middleware\ble/cy_ble_event_handler.h ****     /** BLS Server - Notification for Blood Pressure Service Characteristic
 608:Generated_Source\PSoC6\pdl\middleware\ble/cy_ble_event_handler.h ****      *  was enabled. The parameter of this event is a structure of
 609:Generated_Source\PSoC6\pdl\middleware\ble/cy_ble_event_handler.h ****      *  the cy_stc_ble_bls_char_value_t type.
 610:Generated_Source\PSoC6\pdl\middleware\ble/cy_ble_event_handler.h ****      */
 611:Generated_Source\PSoC6\pdl\middleware\ble/cy_ble_event_handler.h ****     CY_BLE_EVT_BLSS_NOTIFICATION_ENABLED,
 612:Generated_Source\PSoC6\pdl\middleware\ble/cy_ble_event_handler.h **** 
 613:Generated_Source\PSoC6\pdl\middleware\ble/cy_ble_event_handler.h ****     /** BLS Server - Notification for Blood Pressure Service Characteristic
 614:Generated_Source\PSoC6\pdl\middleware\ble/cy_ble_event_handler.h ****      *  was disabled. The parameter of this event is a structure of
 615:Generated_Source\PSoC6\pdl\middleware\ble/cy_ble_event_handler.h ****      *  the cy_stc_ble_bls_char_value_t type.
 616:Generated_Source\PSoC6\pdl\middleware\ble/cy_ble_event_handler.h ****      */
 617:Generated_Source\PSoC6\pdl\middleware\ble/cy_ble_event_handler.h ****     CY_BLE_EVT_BLSS_NOTIFICATION_DISABLED,
 618:Generated_Source\PSoC6\pdl\middleware\ble/cy_ble_event_handler.h **** 
 619:Generated_Source\PSoC6\pdl\middleware\ble/cy_ble_event_handler.h ****     /** BLS Client - Blood Pressure Service Characteristic Indication was received.
 620:Generated_Source\PSoC6\pdl\middleware\ble/cy_ble_event_handler.h ****      *  The parameter of this event is a structure of the cy_stc_ble_bls_char_value_t type.
 621:Generated_Source\PSoC6\pdl\middleware\ble/cy_ble_event_handler.h ****      */
 622:Generated_Source\PSoC6\pdl\middleware\ble/cy_ble_event_handler.h ****     CY_BLE_EVT_BLSC_INDICATION,
 623:Generated_Source\PSoC6\pdl\middleware\ble/cy_ble_event_handler.h **** 
 624:Generated_Source\PSoC6\pdl\middleware\ble/cy_ble_event_handler.h ****     /** BLS Client - Blood Pressure Service Characteristic Notification was received.
 625:Generated_Source\PSoC6\pdl\middleware\ble/cy_ble_event_handler.h ****      *  The parameter of this event is a structure of the cy_stc_ble_bls_char_value_t type.
 626:Generated_Source\PSoC6\pdl\middleware\ble/cy_ble_event_handler.h ****      */
 627:Generated_Source\PSoC6\pdl\middleware\ble/cy_ble_event_handler.h ****     CY_BLE_EVT_BLSC_NOTIFICATION,
 628:Generated_Source\PSoC6\pdl\middleware\ble/cy_ble_event_handler.h **** 
 629:Generated_Source\PSoC6\pdl\middleware\ble/cy_ble_event_handler.h ****     /** BLS Client - Read Response for Read Request of Blood Pressure Service
 630:Generated_Source\PSoC6\pdl\middleware\ble/cy_ble_event_handler.h ****      *  Characteristic value. The parameter of this event is a structure of
 631:Generated_Source\PSoC6\pdl\middleware\ble/cy_ble_event_handler.h ****      *  the cy_stc_ble_bls_char_value_t type.
 632:Generated_Source\PSoC6\pdl\middleware\ble/cy_ble_event_handler.h ****      */
 633:Generated_Source\PSoC6\pdl\middleware\ble/cy_ble_event_handler.h ****     CY_BLE_EVT_BLSC_READ_CHAR_RESPONSE,
 634:Generated_Source\PSoC6\pdl\middleware\ble/cy_ble_event_handler.h **** 
 635:Generated_Source\PSoC6\pdl\middleware\ble/cy_ble_event_handler.h ****     /** BLS Client - Read Response for Read Request of Blood Pressure Service
 636:Generated_Source\PSoC6\pdl\middleware\ble/cy_ble_event_handler.h ****      *  Characteristic Descriptor Read request. The parameter of this event is a
 637:Generated_Source\PSoC6\pdl\middleware\ble/cy_ble_event_handler.h ****      *  structure of the cy_stc_ble_bls_descr_value_t type.
 638:Generated_Source\PSoC6\pdl\middleware\ble/cy_ble_event_handler.h ****      */
 639:Generated_Source\PSoC6\pdl\middleware\ble/cy_ble_event_handler.h ****     CY_BLE_EVT_BLSC_READ_DESCR_RESPONSE,
 640:Generated_Source\PSoC6\pdl\middleware\ble/cy_ble_event_handler.h **** 
 641:Generated_Source\PSoC6\pdl\middleware\ble/cy_ble_event_handler.h ****     /** BLS Client - Write Response for Write Request of Blood Pressure Service
 642:Generated_Source\PSoC6\pdl\middleware\ble/cy_ble_event_handler.h ****      *  Characteristic Configuration Descriptor value. The parameter of this event
 643:Generated_Source\PSoC6\pdl\middleware\ble/cy_ble_event_handler.h ****      *  is a structure of the cy_stc_ble_bls_descr_value_t type.
 644:Generated_Source\PSoC6\pdl\middleware\ble/cy_ble_event_handler.h ****      */
 645:Generated_Source\PSoC6\pdl\middleware\ble/cy_ble_event_handler.h ****     CY_BLE_EVT_BLSC_WRITE_DESCR_RESPONSE,
 646:Generated_Source\PSoC6\pdl\middleware\ble/cy_ble_event_handler.h **** 
 647:Generated_Source\PSoC6\pdl\middleware\ble/cy_ble_event_handler.h **** 
 648:Generated_Source\PSoC6\pdl\middleware\ble/cy_ble_event_handler.h ****     /****************************************
 649:Generated_Source\PSoC6\pdl\middleware\ble/cy_ble_event_handler.h ****      * Bond Management Service Events
 650:Generated_Source\PSoC6\pdl\middleware\ble/cy_ble_event_handler.h ****      ***************************************/
 651:Generated_Source\PSoC6\pdl\middleware\ble/cy_ble_event_handler.h **** 
 652:Generated_Source\PSoC6\pdl\middleware\ble/cy_ble_event_handler.h ****     /** BMS Server - Write Request for Bond Management
 653:Generated_Source\PSoC6\pdl\middleware\ble/cy_ble_event_handler.h ****      *  was received. The parameter of this event is a structure
 654:Generated_Source\PSoC6\pdl\middleware\ble/cy_ble_event_handler.h ****      *  of the cy_stc_ble_bms_char_value_t type.
 655:Generated_Source\PSoC6\pdl\middleware\ble/cy_ble_event_handler.h ****      */
 656:Generated_Source\PSoC6\pdl\middleware\ble/cy_ble_event_handler.h ****     CY_BLE_EVT_BMSS_WRITE_CHAR,
 657:Generated_Source\PSoC6\pdl\middleware\ble/cy_ble_event_handler.h **** 
 658:Generated_Source\PSoC6\pdl\middleware\ble/cy_ble_event_handler.h ****     /** BMS Client - Read Response for Read Request of Bond Management Service
 659:Generated_Source\PSoC6\pdl\middleware\ble/cy_ble_event_handler.h ****      *  Characteristic value. The parameter of this event is a structure of
ARM GAS  C:\Users\Brian\AppData\Local\Temp\ccRcp4rf.s 			page 20


 660:Generated_Source\PSoC6\pdl\middleware\ble/cy_ble_event_handler.h ****      *  the cy_stc_ble_bms_char_value_t type.
 661:Generated_Source\PSoC6\pdl\middleware\ble/cy_ble_event_handler.h ****      */
 662:Generated_Source\PSoC6\pdl\middleware\ble/cy_ble_event_handler.h ****     CY_BLE_EVT_BMSC_READ_CHAR_RESPONSE,
 663:Generated_Source\PSoC6\pdl\middleware\ble/cy_ble_event_handler.h **** 
 664:Generated_Source\PSoC6\pdl\middleware\ble/cy_ble_event_handler.h ****     /** BMS Client - Write Response for Write Request of Bond Management
 665:Generated_Source\PSoC6\pdl\middleware\ble/cy_ble_event_handler.h ****      *  Service Characteristic value. The
 666:Generated_Source\PSoC6\pdl\middleware\ble/cy_ble_event_handler.h ****      *  parameter of this event is a structure of
 667:Generated_Source\PSoC6\pdl\middleware\ble/cy_ble_event_handler.h ****      *  the cy_stc_ble_bms_char_value_t type.
 668:Generated_Source\PSoC6\pdl\middleware\ble/cy_ble_event_handler.h ****      */
 669:Generated_Source\PSoC6\pdl\middleware\ble/cy_ble_event_handler.h ****     CY_BLE_EVT_BMSC_WRITE_CHAR_RESPONSE,
 670:Generated_Source\PSoC6\pdl\middleware\ble/cy_ble_event_handler.h **** 
 671:Generated_Source\PSoC6\pdl\middleware\ble/cy_ble_event_handler.h ****     /** BMS Client - Read Response for Read Request of Bond Management Service
 672:Generated_Source\PSoC6\pdl\middleware\ble/cy_ble_event_handler.h ****      *  Characteristic Descriptor Read request. The parameter of this event is a
 673:Generated_Source\PSoC6\pdl\middleware\ble/cy_ble_event_handler.h ****      *  structure of cy_stc_ble_bms_descr_value_t type.
 674:Generated_Source\PSoC6\pdl\middleware\ble/cy_ble_event_handler.h ****      */
 675:Generated_Source\PSoC6\pdl\middleware\ble/cy_ble_event_handler.h ****     CY_BLE_EVT_BMSC_READ_DESCR_RESPONSE,
 676:Generated_Source\PSoC6\pdl\middleware\ble/cy_ble_event_handler.h **** 
 677:Generated_Source\PSoC6\pdl\middleware\ble/cy_ble_event_handler.h **** 
 678:Generated_Source\PSoC6\pdl\middleware\ble/cy_ble_event_handler.h ****     /****************************************
 679:Generated_Source\PSoC6\pdl\middleware\ble/cy_ble_event_handler.h ****      * CGM Service Events
 680:Generated_Source\PSoC6\pdl\middleware\ble/cy_ble_event_handler.h ****      ***************************************/
 681:Generated_Source\PSoC6\pdl\middleware\ble/cy_ble_event_handler.h **** 
 682:Generated_Source\PSoC6\pdl\middleware\ble/cy_ble_event_handler.h ****     /** CGMS Server - Indication for Continuous Glucose Monitoring Service Characteristic
 683:Generated_Source\PSoC6\pdl\middleware\ble/cy_ble_event_handler.h ****      *  was enabled. The parameter of this event is a structure
 684:Generated_Source\PSoC6\pdl\middleware\ble/cy_ble_event_handler.h ****      *  of the cy_stc_ble_cgms_char_value_t type.
 685:Generated_Source\PSoC6\pdl\middleware\ble/cy_ble_event_handler.h ****      */
 686:Generated_Source\PSoC6\pdl\middleware\ble/cy_ble_event_handler.h ****     CY_BLE_EVT_CGMSS_INDICATION_ENABLED,
 687:Generated_Source\PSoC6\pdl\middleware\ble/cy_ble_event_handler.h **** 
 688:Generated_Source\PSoC6\pdl\middleware\ble/cy_ble_event_handler.h ****     /** CGMS Server - Indication for Continuous Glucose Monitoring Service Characteristic
 689:Generated_Source\PSoC6\pdl\middleware\ble/cy_ble_event_handler.h ****      *  was disabled. The parameter of this event is a structure
 690:Generated_Source\PSoC6\pdl\middleware\ble/cy_ble_event_handler.h ****      *  of the cy_stc_ble_cgms_char_value_t type.
 691:Generated_Source\PSoC6\pdl\middleware\ble/cy_ble_event_handler.h ****      */
 692:Generated_Source\PSoC6\pdl\middleware\ble/cy_ble_event_handler.h ****     CY_BLE_EVT_CGMSS_INDICATION_DISABLED,
 693:Generated_Source\PSoC6\pdl\middleware\ble/cy_ble_event_handler.h **** 
 694:Generated_Source\PSoC6\pdl\middleware\ble/cy_ble_event_handler.h ****     /** CGMS Server - Continuous Glucose Monitoring Service Characteristic
 695:Generated_Source\PSoC6\pdl\middleware\ble/cy_ble_event_handler.h ****      *  Indication was confirmed. The parameter of this event
 696:Generated_Source\PSoC6\pdl\middleware\ble/cy_ble_event_handler.h ****      *  is a structure of the cy_stc_ble_cgms_char_value_t type.
 697:Generated_Source\PSoC6\pdl\middleware\ble/cy_ble_event_handler.h ****      */
 698:Generated_Source\PSoC6\pdl\middleware\ble/cy_ble_event_handler.h ****     CY_BLE_EVT_CGMSS_INDICATION_CONFIRMED,
 699:Generated_Source\PSoC6\pdl\middleware\ble/cy_ble_event_handler.h **** 
 700:Generated_Source\PSoC6\pdl\middleware\ble/cy_ble_event_handler.h ****     /** CGMS Server - Notification for Continuous Glucose Monitoring Service Characteristic
 701:Generated_Source\PSoC6\pdl\middleware\ble/cy_ble_event_handler.h ****      *  was enabled. The parameter of this event is a structure of
 702:Generated_Source\PSoC6\pdl\middleware\ble/cy_ble_event_handler.h ****      *  the cy_stc_ble_cgms_char_value_t type.
 703:Generated_Source\PSoC6\pdl\middleware\ble/cy_ble_event_handler.h ****      */
 704:Generated_Source\PSoC6\pdl\middleware\ble/cy_ble_event_handler.h ****     CY_BLE_EVT_CGMSS_NOTIFICATION_ENABLED,
 705:Generated_Source\PSoC6\pdl\middleware\ble/cy_ble_event_handler.h **** 
 706:Generated_Source\PSoC6\pdl\middleware\ble/cy_ble_event_handler.h ****     /** CGMS Server - Notification for Continuous Glucose Monitoring Service Characteristic
 707:Generated_Source\PSoC6\pdl\middleware\ble/cy_ble_event_handler.h ****      *  was disabled. The parameter of this event is a structure
 708:Generated_Source\PSoC6\pdl\middleware\ble/cy_ble_event_handler.h ****      *  of the cy_stc_ble_cgms_char_value_t type.
 709:Generated_Source\PSoC6\pdl\middleware\ble/cy_ble_event_handler.h ****      */
 710:Generated_Source\PSoC6\pdl\middleware\ble/cy_ble_event_handler.h ****     CY_BLE_EVT_CGMSS_NOTIFICATION_DISABLED,
 711:Generated_Source\PSoC6\pdl\middleware\ble/cy_ble_event_handler.h **** 
 712:Generated_Source\PSoC6\pdl\middleware\ble/cy_ble_event_handler.h ****     /** CGMS Server - Write Request for Continuous Glucose Monitoring Service
 713:Generated_Source\PSoC6\pdl\middleware\ble/cy_ble_event_handler.h ****      *  was received. The parameter of this event is a structure
 714:Generated_Source\PSoC6\pdl\middleware\ble/cy_ble_event_handler.h ****      *  of the cy_stc_ble_cgms_char_value_t type.
 715:Generated_Source\PSoC6\pdl\middleware\ble/cy_ble_event_handler.h ****      */
 716:Generated_Source\PSoC6\pdl\middleware\ble/cy_ble_event_handler.h ****     CY_BLE_EVT_CGMSS_WRITE_CHAR,
ARM GAS  C:\Users\Brian\AppData\Local\Temp\ccRcp4rf.s 			page 21


 717:Generated_Source\PSoC6\pdl\middleware\ble/cy_ble_event_handler.h **** 
 718:Generated_Source\PSoC6\pdl\middleware\ble/cy_ble_event_handler.h ****     /** CGMS Client - Continuous Glucose Monitoring Service Characteristic
 719:Generated_Source\PSoC6\pdl\middleware\ble/cy_ble_event_handler.h ****      *  Indication was received. The parameter of this event
 720:Generated_Source\PSoC6\pdl\middleware\ble/cy_ble_event_handler.h ****      *  is a structure of the cy_stc_ble_cgms_char_value_t type.
 721:Generated_Source\PSoC6\pdl\middleware\ble/cy_ble_event_handler.h ****      */
 722:Generated_Source\PSoC6\pdl\middleware\ble/cy_ble_event_handler.h ****     CY_BLE_EVT_CGMSC_INDICATION,
 723:Generated_Source\PSoC6\pdl\middleware\ble/cy_ble_event_handler.h **** 
 724:Generated_Source\PSoC6\pdl\middleware\ble/cy_ble_event_handler.h ****     /** CGMS Client - Continuous Glucose Monitoring Service Characteristic
 725:Generated_Source\PSoC6\pdl\middleware\ble/cy_ble_event_handler.h ****      *  Notification was received. The parameter of this event
 726:Generated_Source\PSoC6\pdl\middleware\ble/cy_ble_event_handler.h ****      *  is a structure of the cy_stc_ble_cgms_char_value_t type.
 727:Generated_Source\PSoC6\pdl\middleware\ble/cy_ble_event_handler.h ****      */
 728:Generated_Source\PSoC6\pdl\middleware\ble/cy_ble_event_handler.h ****     CY_BLE_EVT_CGMSC_NOTIFICATION,
 729:Generated_Source\PSoC6\pdl\middleware\ble/cy_ble_event_handler.h **** 
 730:Generated_Source\PSoC6\pdl\middleware\ble/cy_ble_event_handler.h ****     /** CGMS Client - Read Response for Read Request of Continuous Glucose Monitoring
 731:Generated_Source\PSoC6\pdl\middleware\ble/cy_ble_event_handler.h ****      *  Service Characteristic value. The parameter of this event
 732:Generated_Source\PSoC6\pdl\middleware\ble/cy_ble_event_handler.h ****      *  is a structure of the cy_stc_ble_cgms_char_value_t type.
 733:Generated_Source\PSoC6\pdl\middleware\ble/cy_ble_event_handler.h ****      */
 734:Generated_Source\PSoC6\pdl\middleware\ble/cy_ble_event_handler.h ****     CY_BLE_EVT_CGMSC_READ_CHAR_RESPONSE,
 735:Generated_Source\PSoC6\pdl\middleware\ble/cy_ble_event_handler.h **** 
 736:Generated_Source\PSoC6\pdl\middleware\ble/cy_ble_event_handler.h ****     /** CGMS Client - Write Response for Write Request of Continuous Glucose Monitoring
 737:Generated_Source\PSoC6\pdl\middleware\ble/cy_ble_event_handler.h ****      *  Service Characteristic value. The
 738:Generated_Source\PSoC6\pdl\middleware\ble/cy_ble_event_handler.h ****      *  parameter of this event is a structure of
 739:Generated_Source\PSoC6\pdl\middleware\ble/cy_ble_event_handler.h ****      *  the cy_stc_ble_cgms_char_value_t type.
 740:Generated_Source\PSoC6\pdl\middleware\ble/cy_ble_event_handler.h ****      */
 741:Generated_Source\PSoC6\pdl\middleware\ble/cy_ble_event_handler.h ****     CY_BLE_EVT_CGMSC_WRITE_CHAR_RESPONSE,
 742:Generated_Source\PSoC6\pdl\middleware\ble/cy_ble_event_handler.h **** 
 743:Generated_Source\PSoC6\pdl\middleware\ble/cy_ble_event_handler.h ****     /** CGMS Client - Read Response for Read Request of Continuous Glucose Monitoring
 744:Generated_Source\PSoC6\pdl\middleware\ble/cy_ble_event_handler.h ****      *  Service Characteristic Descriptor Read request. The
 745:Generated_Source\PSoC6\pdl\middleware\ble/cy_ble_event_handler.h ****      *  parameter of this event is a structure of
 746:Generated_Source\PSoC6\pdl\middleware\ble/cy_ble_event_handler.h ****      *  the cy_stc_ble_cgms_descr_value_t type.
 747:Generated_Source\PSoC6\pdl\middleware\ble/cy_ble_event_handler.h ****      */
 748:Generated_Source\PSoC6\pdl\middleware\ble/cy_ble_event_handler.h ****     CY_BLE_EVT_CGMSC_READ_DESCR_RESPONSE,
 749:Generated_Source\PSoC6\pdl\middleware\ble/cy_ble_event_handler.h **** 
 750:Generated_Source\PSoC6\pdl\middleware\ble/cy_ble_event_handler.h ****     /** CGMS Client - Write Response for Write Request of Continuous Glucose Monitoring
 751:Generated_Source\PSoC6\pdl\middleware\ble/cy_ble_event_handler.h ****      *  Service Characteristic Configuration Descriptor value.
 752:Generated_Source\PSoC6\pdl\middleware\ble/cy_ble_event_handler.h ****      *  The parameter of this event is a structure of
 753:Generated_Source\PSoC6\pdl\middleware\ble/cy_ble_event_handler.h ****      *  the cy_stc_ble_cgms_descr_value_t type.
 754:Generated_Source\PSoC6\pdl\middleware\ble/cy_ble_event_handler.h ****      */
 755:Generated_Source\PSoC6\pdl\middleware\ble/cy_ble_event_handler.h ****     CY_BLE_EVT_CGMSC_WRITE_DESCR_RESPONSE,
 756:Generated_Source\PSoC6\pdl\middleware\ble/cy_ble_event_handler.h **** 
 757:Generated_Source\PSoC6\pdl\middleware\ble/cy_ble_event_handler.h **** 
 758:Generated_Source\PSoC6\pdl\middleware\ble/cy_ble_event_handler.h ****     /****************************************
 759:Generated_Source\PSoC6\pdl\middleware\ble/cy_ble_event_handler.h ****      * CPS Service Events
 760:Generated_Source\PSoC6\pdl\middleware\ble/cy_ble_event_handler.h ****      ***************************************/
 761:Generated_Source\PSoC6\pdl\middleware\ble/cy_ble_event_handler.h **** 
 762:Generated_Source\PSoC6\pdl\middleware\ble/cy_ble_event_handler.h ****     /** CPS Server - Notification for Cycling Power Service Characteristic
 763:Generated_Source\PSoC6\pdl\middleware\ble/cy_ble_event_handler.h ****      *  was enabled. The parameter of this event is a structure of
 764:Generated_Source\PSoC6\pdl\middleware\ble/cy_ble_event_handler.h ****      *  the cy_stc_ble_cps_char_value_t type.
 765:Generated_Source\PSoC6\pdl\middleware\ble/cy_ble_event_handler.h ****      */
 766:Generated_Source\PSoC6\pdl\middleware\ble/cy_ble_event_handler.h ****     CY_BLE_EVT_CPSS_NOTIFICATION_ENABLED,
 767:Generated_Source\PSoC6\pdl\middleware\ble/cy_ble_event_handler.h **** 
 768:Generated_Source\PSoC6\pdl\middleware\ble/cy_ble_event_handler.h ****     /** CPS Server - Notification for Cycling Power Service Characteristic
 769:Generated_Source\PSoC6\pdl\middleware\ble/cy_ble_event_handler.h ****      *  was disabled. The parameter of this event is a structure
 770:Generated_Source\PSoC6\pdl\middleware\ble/cy_ble_event_handler.h ****      *  of the cy_stc_ble_cps_char_value_t type.
 771:Generated_Source\PSoC6\pdl\middleware\ble/cy_ble_event_handler.h ****      */
 772:Generated_Source\PSoC6\pdl\middleware\ble/cy_ble_event_handler.h ****     CY_BLE_EVT_CPSS_NOTIFICATION_DISABLED,
 773:Generated_Source\PSoC6\pdl\middleware\ble/cy_ble_event_handler.h **** 
ARM GAS  C:\Users\Brian\AppData\Local\Temp\ccRcp4rf.s 			page 22


 774:Generated_Source\PSoC6\pdl\middleware\ble/cy_ble_event_handler.h ****     /** CPS Server - Indication for Cycling Power Service Characteristic
 775:Generated_Source\PSoC6\pdl\middleware\ble/cy_ble_event_handler.h ****      *  was enabled. The parameter of this event is a structure
 776:Generated_Source\PSoC6\pdl\middleware\ble/cy_ble_event_handler.h ****      *  of the cy_stc_ble_cps_char_value_t type.
 777:Generated_Source\PSoC6\pdl\middleware\ble/cy_ble_event_handler.h ****      */
 778:Generated_Source\PSoC6\pdl\middleware\ble/cy_ble_event_handler.h ****     CY_BLE_EVT_CPSS_INDICATION_ENABLED,
 779:Generated_Source\PSoC6\pdl\middleware\ble/cy_ble_event_handler.h **** 
 780:Generated_Source\PSoC6\pdl\middleware\ble/cy_ble_event_handler.h ****     /** CPS Server - Indication for Cycling Power Service Characteristic
 781:Generated_Source\PSoC6\pdl\middleware\ble/cy_ble_event_handler.h ****      *  was disabled. The parameter of this event is a structure
 782:Generated_Source\PSoC6\pdl\middleware\ble/cy_ble_event_handler.h ****      *  of the cy_stc_ble_cps_char_value_t type.
 783:Generated_Source\PSoC6\pdl\middleware\ble/cy_ble_event_handler.h ****      */
 784:Generated_Source\PSoC6\pdl\middleware\ble/cy_ble_event_handler.h ****     CY_BLE_EVT_CPSS_INDICATION_DISABLED,
 785:Generated_Source\PSoC6\pdl\middleware\ble/cy_ble_event_handler.h **** 
 786:Generated_Source\PSoC6\pdl\middleware\ble/cy_ble_event_handler.h ****     /** CPS Server - Cycling Power Service Characteristic
 787:Generated_Source\PSoC6\pdl\middleware\ble/cy_ble_event_handler.h ****      *  Indication was confirmed. The parameter of this event
 788:Generated_Source\PSoC6\pdl\middleware\ble/cy_ble_event_handler.h ****      *  is a structure of the cy_stc_ble_cps_char_value_t type.
 789:Generated_Source\PSoC6\pdl\middleware\ble/cy_ble_event_handler.h ****      */
 790:Generated_Source\PSoC6\pdl\middleware\ble/cy_ble_event_handler.h ****     CY_BLE_EVT_CPSS_INDICATION_CONFIRMED,
 791:Generated_Source\PSoC6\pdl\middleware\ble/cy_ble_event_handler.h **** 
 792:Generated_Source\PSoC6\pdl\middleware\ble/cy_ble_event_handler.h ****     /** CPS Server - Broadcast for Cycling Power Service Characteristic
 793:Generated_Source\PSoC6\pdl\middleware\ble/cy_ble_event_handler.h ****      *  was enabled. The parameter of this event
 794:Generated_Source\PSoC6\pdl\middleware\ble/cy_ble_event_handler.h ****      *  is a structure of the cy_stc_ble_cps_char_value_t type.
 795:Generated_Source\PSoC6\pdl\middleware\ble/cy_ble_event_handler.h ****      */
 796:Generated_Source\PSoC6\pdl\middleware\ble/cy_ble_event_handler.h ****     CY_BLE_EVT_CPSS_BROADCAST_ENABLED,
 797:Generated_Source\PSoC6\pdl\middleware\ble/cy_ble_event_handler.h **** 
 798:Generated_Source\PSoC6\pdl\middleware\ble/cy_ble_event_handler.h ****     /** CPS Server - Broadcast for Cycling Power Service Characteristic
 799:Generated_Source\PSoC6\pdl\middleware\ble/cy_ble_event_handler.h ****      *  was disabled. The parameter of this event
 800:Generated_Source\PSoC6\pdl\middleware\ble/cy_ble_event_handler.h ****      *  is a structure of the cy_stc_ble_cps_char_value_t type.
 801:Generated_Source\PSoC6\pdl\middleware\ble/cy_ble_event_handler.h ****      */
 802:Generated_Source\PSoC6\pdl\middleware\ble/cy_ble_event_handler.h ****     CY_BLE_EVT_CPSS_BROADCAST_DISABLED,
 803:Generated_Source\PSoC6\pdl\middleware\ble/cy_ble_event_handler.h **** 
 804:Generated_Source\PSoC6\pdl\middleware\ble/cy_ble_event_handler.h ****     /** CPS Server - Write Request for Cycling Power Service Characteristic
 805:Generated_Source\PSoC6\pdl\middleware\ble/cy_ble_event_handler.h ****      *  was received. The parameter of this event is a structure
 806:Generated_Source\PSoC6\pdl\middleware\ble/cy_ble_event_handler.h ****      *  of the cy_stc_ble_cps_char_value_t type.
 807:Generated_Source\PSoC6\pdl\middleware\ble/cy_ble_event_handler.h ****      */
 808:Generated_Source\PSoC6\pdl\middleware\ble/cy_ble_event_handler.h ****     CY_BLE_EVT_CPSS_WRITE_CHAR,
 809:Generated_Source\PSoC6\pdl\middleware\ble/cy_ble_event_handler.h **** 
 810:Generated_Source\PSoC6\pdl\middleware\ble/cy_ble_event_handler.h ****     /** CPS Client - Cycling Power Service Characteristic
 811:Generated_Source\PSoC6\pdl\middleware\ble/cy_ble_event_handler.h ****      *  Notification was received. The parameter of this event
 812:Generated_Source\PSoC6\pdl\middleware\ble/cy_ble_event_handler.h ****      *  is a structure of the cy_stc_ble_cps_char_value_t type.
 813:Generated_Source\PSoC6\pdl\middleware\ble/cy_ble_event_handler.h ****      */
 814:Generated_Source\PSoC6\pdl\middleware\ble/cy_ble_event_handler.h ****     CY_BLE_EVT_CPSC_NOTIFICATION,
 815:Generated_Source\PSoC6\pdl\middleware\ble/cy_ble_event_handler.h **** 
 816:Generated_Source\PSoC6\pdl\middleware\ble/cy_ble_event_handler.h ****     /** CPS Client - Cycling Power Service Characteristic
 817:Generated_Source\PSoC6\pdl\middleware\ble/cy_ble_event_handler.h ****      *  Indication was received. The parameter of this event
 818:Generated_Source\PSoC6\pdl\middleware\ble/cy_ble_event_handler.h ****      *  is a structure of the cy_stc_ble_cps_char_value_t type.
 819:Generated_Source\PSoC6\pdl\middleware\ble/cy_ble_event_handler.h ****      */
 820:Generated_Source\PSoC6\pdl\middleware\ble/cy_ble_event_handler.h ****     CY_BLE_EVT_CPSC_INDICATION,
 821:Generated_Source\PSoC6\pdl\middleware\ble/cy_ble_event_handler.h **** 
 822:Generated_Source\PSoC6\pdl\middleware\ble/cy_ble_event_handler.h ****     /** CPS Client - Read Response for Read Request of Cycling Power Service
 823:Generated_Source\PSoC6\pdl\middleware\ble/cy_ble_event_handler.h ****      *  Characteristic value. The parameter of this event
 824:Generated_Source\PSoC6\pdl\middleware\ble/cy_ble_event_handler.h ****      *  is a structure of the cy_stc_ble_cps_char_value_t type.
 825:Generated_Source\PSoC6\pdl\middleware\ble/cy_ble_event_handler.h ****      */
 826:Generated_Source\PSoC6\pdl\middleware\ble/cy_ble_event_handler.h ****     CY_BLE_EVT_CPSC_READ_CHAR_RESPONSE,
 827:Generated_Source\PSoC6\pdl\middleware\ble/cy_ble_event_handler.h **** 
 828:Generated_Source\PSoC6\pdl\middleware\ble/cy_ble_event_handler.h ****     /** CPS Client - Write Response for Write Request of Cycling Power Service
 829:Generated_Source\PSoC6\pdl\middleware\ble/cy_ble_event_handler.h ****      *  Characteristic value. The parameter of this event
 830:Generated_Source\PSoC6\pdl\middleware\ble/cy_ble_event_handler.h ****      *  is a structure of the cy_stc_ble_cps_char_value_t type.
ARM GAS  C:\Users\Brian\AppData\Local\Temp\ccRcp4rf.s 			page 23


 831:Generated_Source\PSoC6\pdl\middleware\ble/cy_ble_event_handler.h ****      */
 832:Generated_Source\PSoC6\pdl\middleware\ble/cy_ble_event_handler.h ****     CY_BLE_EVT_CPSC_WRITE_CHAR_RESPONSE,
 833:Generated_Source\PSoC6\pdl\middleware\ble/cy_ble_event_handler.h **** 
 834:Generated_Source\PSoC6\pdl\middleware\ble/cy_ble_event_handler.h ****     /** CPS Client - Read Response for Read Request of Cycling Power
 835:Generated_Source\PSoC6\pdl\middleware\ble/cy_ble_event_handler.h ****      *  Service Characteristic Descriptor Read request. The
 836:Generated_Source\PSoC6\pdl\middleware\ble/cy_ble_event_handler.h ****      *  parameter of this event is a structure of
 837:Generated_Source\PSoC6\pdl\middleware\ble/cy_ble_event_handler.h ****      *  the cy_stc_ble_cps_descr_value_t type.
 838:Generated_Source\PSoC6\pdl\middleware\ble/cy_ble_event_handler.h ****      */
 839:Generated_Source\PSoC6\pdl\middleware\ble/cy_ble_event_handler.h ****     CY_BLE_EVT_CPSC_READ_DESCR_RESPONSE,
 840:Generated_Source\PSoC6\pdl\middleware\ble/cy_ble_event_handler.h **** 
 841:Generated_Source\PSoC6\pdl\middleware\ble/cy_ble_event_handler.h ****     /** CPS Client - Write Response for Write Request of Cycling Power
 842:Generated_Source\PSoC6\pdl\middleware\ble/cy_ble_event_handler.h ****      *  Service Characteristic Configuration Descriptor value.
 843:Generated_Source\PSoC6\pdl\middleware\ble/cy_ble_event_handler.h ****      *  The parameter of this event is a structure of
 844:Generated_Source\PSoC6\pdl\middleware\ble/cy_ble_event_handler.h ****      *  the cy_stc_ble_cps_descr_value_t type.
 845:Generated_Source\PSoC6\pdl\middleware\ble/cy_ble_event_handler.h ****      */
 846:Generated_Source\PSoC6\pdl\middleware\ble/cy_ble_event_handler.h ****     CY_BLE_EVT_CPSC_WRITE_DESCR_RESPONSE,
 847:Generated_Source\PSoC6\pdl\middleware\ble/cy_ble_event_handler.h **** 
 848:Generated_Source\PSoC6\pdl\middleware\ble/cy_ble_event_handler.h ****     /** CPS Client - This event is triggered every time a device receive
 849:Generated_Source\PSoC6\pdl\middleware\ble/cy_ble_event_handler.h ****      *  non-connectable undirected advertising event.
 850:Generated_Source\PSoC6\pdl\middleware\ble/cy_ble_event_handler.h ****      *  The parameter of this event is a structure of
 851:Generated_Source\PSoC6\pdl\middleware\ble/cy_ble_event_handler.h ****      *  the cy_stc_ble_cps_char_value_t type.
 852:Generated_Source\PSoC6\pdl\middleware\ble/cy_ble_event_handler.h ****      */
 853:Generated_Source\PSoC6\pdl\middleware\ble/cy_ble_event_handler.h ****     CY_BLE_EVT_CPSC_SCAN_PROGRESS_RESULT,
 854:Generated_Source\PSoC6\pdl\middleware\ble/cy_ble_event_handler.h **** 
 855:Generated_Source\PSoC6\pdl\middleware\ble/cy_ble_event_handler.h ****     /** CPS Client - Cycling Power CP procedure timeout was received. The parameter
 856:Generated_Source\PSoC6\pdl\middleware\ble/cy_ble_event_handler.h ****      *  of this event is a structure of the cy_stc_ble_cps_char_value_t type.
 857:Generated_Source\PSoC6\pdl\middleware\ble/cy_ble_event_handler.h ****      */
 858:Generated_Source\PSoC6\pdl\middleware\ble/cy_ble_event_handler.h ****     CY_BLE_EVT_CPSC_TIMEOUT,
 859:Generated_Source\PSoC6\pdl\middleware\ble/cy_ble_event_handler.h **** 
 860:Generated_Source\PSoC6\pdl\middleware\ble/cy_ble_event_handler.h ****     /****************************************
 861:Generated_Source\PSoC6\pdl\middleware\ble/cy_ble_event_handler.h ****      * Cycling Speed and Cadence Service Events
 862:Generated_Source\PSoC6\pdl\middleware\ble/cy_ble_event_handler.h ****      ***************************************/
 863:Generated_Source\PSoC6\pdl\middleware\ble/cy_ble_event_handler.h **** 
 864:Generated_Source\PSoC6\pdl\middleware\ble/cy_ble_event_handler.h ****     /** CSCS Server - Notification for Cycling Speed and Cadence Service
 865:Generated_Source\PSoC6\pdl\middleware\ble/cy_ble_event_handler.h ****      *  Characteristic was enabled. The parameter of this event is a structure of
 866:Generated_Source\PSoC6\pdl\middleware\ble/cy_ble_event_handler.h ****      *  the cy_stc_ble_cscs_char_value_t type.
 867:Generated_Source\PSoC6\pdl\middleware\ble/cy_ble_event_handler.h ****      */
 868:Generated_Source\PSoC6\pdl\middleware\ble/cy_ble_event_handler.h ****     CY_BLE_EVT_CSCSS_NOTIFICATION_ENABLED,
 869:Generated_Source\PSoC6\pdl\middleware\ble/cy_ble_event_handler.h **** 
 870:Generated_Source\PSoC6\pdl\middleware\ble/cy_ble_event_handler.h ****     /** CSCS Server - Notification for Cycling Speed and Cadence Service
 871:Generated_Source\PSoC6\pdl\middleware\ble/cy_ble_event_handler.h ****      *  Characteristic was disabled. The parameter of this event is a structure of
 872:Generated_Source\PSoC6\pdl\middleware\ble/cy_ble_event_handler.h ****      *  the cy_stc_ble_cscs_char_value_t type.
 873:Generated_Source\PSoC6\pdl\middleware\ble/cy_ble_event_handler.h ****      */
 874:Generated_Source\PSoC6\pdl\middleware\ble/cy_ble_event_handler.h ****     CY_BLE_EVT_CSCSS_NOTIFICATION_DISABLED,
 875:Generated_Source\PSoC6\pdl\middleware\ble/cy_ble_event_handler.h **** 
 876:Generated_Source\PSoC6\pdl\middleware\ble/cy_ble_event_handler.h ****     /** CSCS Server - Indication for Cycling Speed and Cadence Service Characteristic
 877:Generated_Source\PSoC6\pdl\middleware\ble/cy_ble_event_handler.h ****      *  was enabled. The parameter of this event is a structure of
 878:Generated_Source\PSoC6\pdl\middleware\ble/cy_ble_event_handler.h ****      *  the cy_stc_ble_cscs_char_value_t type.
 879:Generated_Source\PSoC6\pdl\middleware\ble/cy_ble_event_handler.h ****      */
 880:Generated_Source\PSoC6\pdl\middleware\ble/cy_ble_event_handler.h ****     CY_BLE_EVT_CSCSS_INDICATION_ENABLED,
 881:Generated_Source\PSoC6\pdl\middleware\ble/cy_ble_event_handler.h **** 
 882:Generated_Source\PSoC6\pdl\middleware\ble/cy_ble_event_handler.h ****     /** CSCS Server - Indication for Cycling Speed and Cadence Service Characteristic
 883:Generated_Source\PSoC6\pdl\middleware\ble/cy_ble_event_handler.h ****      *  was disabled. The parameter of this event is a structure of
 884:Generated_Source\PSoC6\pdl\middleware\ble/cy_ble_event_handler.h ****      *  the cy_stc_ble_cscs_char_value_t type.
 885:Generated_Source\PSoC6\pdl\middleware\ble/cy_ble_event_handler.h ****      */
 886:Generated_Source\PSoC6\pdl\middleware\ble/cy_ble_event_handler.h ****     CY_BLE_EVT_CSCSS_INDICATION_DISABLED,
 887:Generated_Source\PSoC6\pdl\middleware\ble/cy_ble_event_handler.h **** 
ARM GAS  C:\Users\Brian\AppData\Local\Temp\ccRcp4rf.s 			page 24


 888:Generated_Source\PSoC6\pdl\middleware\ble/cy_ble_event_handler.h ****     /** CSCS Server - Cycling Speed and Cadence Service Characteristic
 889:Generated_Source\PSoC6\pdl\middleware\ble/cy_ble_event_handler.h ****      *  Indication was confirmed. The parameter of this event is a structure of
 890:Generated_Source\PSoC6\pdl\middleware\ble/cy_ble_event_handler.h ****      *  the cy_stc_ble_cscs_char_value_t type.
 891:Generated_Source\PSoC6\pdl\middleware\ble/cy_ble_event_handler.h ****      */
 892:Generated_Source\PSoC6\pdl\middleware\ble/cy_ble_event_handler.h ****     CY_BLE_EVT_CSCSS_INDICATION_CONFIRMATION,
 893:Generated_Source\PSoC6\pdl\middleware\ble/cy_ble_event_handler.h **** 
 894:Generated_Source\PSoC6\pdl\middleware\ble/cy_ble_event_handler.h ****     /** CSCS Server - Write Request for Cycling Speed and Cadence Service
 895:Generated_Source\PSoC6\pdl\middleware\ble/cy_ble_event_handler.h ****      *  Characteristic was received. The parameter of this event is a structure of
 896:Generated_Source\PSoC6\pdl\middleware\ble/cy_ble_event_handler.h ****      *  the cy_stc_ble_cscs_char_value_t type.
 897:Generated_Source\PSoC6\pdl\middleware\ble/cy_ble_event_handler.h ****      */
 898:Generated_Source\PSoC6\pdl\middleware\ble/cy_ble_event_handler.h ****     CY_BLE_EVT_CSCSS_WRITE_CHAR,
 899:Generated_Source\PSoC6\pdl\middleware\ble/cy_ble_event_handler.h **** 
 900:Generated_Source\PSoC6\pdl\middleware\ble/cy_ble_event_handler.h ****     /** CSCS Client - Cycling Speed and Cadence Service Characteristic
 901:Generated_Source\PSoC6\pdl\middleware\ble/cy_ble_event_handler.h ****      *  Notification was received. The parameter of this event is a structure of
 902:Generated_Source\PSoC6\pdl\middleware\ble/cy_ble_event_handler.h ****      *  the cy_stc_ble_cscs_char_value_t type.
 903:Generated_Source\PSoC6\pdl\middleware\ble/cy_ble_event_handler.h ****      */
 904:Generated_Source\PSoC6\pdl\middleware\ble/cy_ble_event_handler.h ****     CY_BLE_EVT_CSCSC_NOTIFICATION,
 905:Generated_Source\PSoC6\pdl\middleware\ble/cy_ble_event_handler.h **** 
 906:Generated_Source\PSoC6\pdl\middleware\ble/cy_ble_event_handler.h ****     /** CSCS Client - Cycling Speed and Cadence Service Characteristic
 907:Generated_Source\PSoC6\pdl\middleware\ble/cy_ble_event_handler.h ****      *  Indication was received. The parameter of this event is a structure of
 908:Generated_Source\PSoC6\pdl\middleware\ble/cy_ble_event_handler.h ****      *  the cy_stc_ble_cscs_char_value_t type.
 909:Generated_Source\PSoC6\pdl\middleware\ble/cy_ble_event_handler.h ****      */
 910:Generated_Source\PSoC6\pdl\middleware\ble/cy_ble_event_handler.h ****     CY_BLE_EVT_CSCSC_INDICATION,
 911:Generated_Source\PSoC6\pdl\middleware\ble/cy_ble_event_handler.h **** 
 912:Generated_Source\PSoC6\pdl\middleware\ble/cy_ble_event_handler.h ****     /** CSCS Client - Read Response for Read Request of Cycling Speed and Cadence
 913:Generated_Source\PSoC6\pdl\middleware\ble/cy_ble_event_handler.h ****      *  Service Characteristic value. The parameter of this event is a structure of
 914:Generated_Source\PSoC6\pdl\middleware\ble/cy_ble_event_handler.h ****      *  the cy_stc_ble_cscs_char_value_t type.
 915:Generated_Source\PSoC6\pdl\middleware\ble/cy_ble_event_handler.h ****      */
 916:Generated_Source\PSoC6\pdl\middleware\ble/cy_ble_event_handler.h ****     CY_BLE_EVT_CSCSC_READ_CHAR_RESPONSE,
 917:Generated_Source\PSoC6\pdl\middleware\ble/cy_ble_event_handler.h **** 
 918:Generated_Source\PSoC6\pdl\middleware\ble/cy_ble_event_handler.h ****     /** CSCS Client - Write Response for Write Request of Cycling Speed and Cadence
 919:Generated_Source\PSoC6\pdl\middleware\ble/cy_ble_event_handler.h ****      *  Service Characteristic value. The parameter of this event is a structure of
 920:Generated_Source\PSoC6\pdl\middleware\ble/cy_ble_event_handler.h ****      *  the cy_stc_ble_cscs_char_value_t type.
 921:Generated_Source\PSoC6\pdl\middleware\ble/cy_ble_event_handler.h ****      */
 922:Generated_Source\PSoC6\pdl\middleware\ble/cy_ble_event_handler.h ****     CY_BLE_EVT_CSCSC_WRITE_CHAR_RESPONSE,
 923:Generated_Source\PSoC6\pdl\middleware\ble/cy_ble_event_handler.h **** 
 924:Generated_Source\PSoC6\pdl\middleware\ble/cy_ble_event_handler.h ****     /** CSCS Client - Read Response for Read Request of Cycling Speed and Cadence
 925:Generated_Source\PSoC6\pdl\middleware\ble/cy_ble_event_handler.h ****      *  Service Characteristic Descriptor Read request. The parameter of this event
 926:Generated_Source\PSoC6\pdl\middleware\ble/cy_ble_event_handler.h ****      *  is a structure of the cy_stc_ble_cscs_descr_value_t type.
 927:Generated_Source\PSoC6\pdl\middleware\ble/cy_ble_event_handler.h ****      */
 928:Generated_Source\PSoC6\pdl\middleware\ble/cy_ble_event_handler.h ****     CY_BLE_EVT_CSCSC_READ_DESCR_RESPONSE,
 929:Generated_Source\PSoC6\pdl\middleware\ble/cy_ble_event_handler.h **** 
 930:Generated_Source\PSoC6\pdl\middleware\ble/cy_ble_event_handler.h ****     /** CSCS Client - Write Response for Write Request of Cycling Speed and Cadence
 931:Generated_Source\PSoC6\pdl\middleware\ble/cy_ble_event_handler.h ****      *  Service Characteristic Configuration Descriptor value. The parameter of
 932:Generated_Source\PSoC6\pdl\middleware\ble/cy_ble_event_handler.h ****      *  this event is a structure of  the cy_stc_ble_cscs_descr_value_t type.
 933:Generated_Source\PSoC6\pdl\middleware\ble/cy_ble_event_handler.h ****      */
 934:Generated_Source\PSoC6\pdl\middleware\ble/cy_ble_event_handler.h ****     CY_BLE_EVT_CSCSC_WRITE_DESCR_RESPONSE,
 935:Generated_Source\PSoC6\pdl\middleware\ble/cy_ble_event_handler.h **** 
 936:Generated_Source\PSoC6\pdl\middleware\ble/cy_ble_event_handler.h **** 
 937:Generated_Source\PSoC6\pdl\middleware\ble/cy_ble_event_handler.h ****     /****************************************
 938:Generated_Source\PSoC6\pdl\middleware\ble/cy_ble_event_handler.h ****      * Current Time Service Events
 939:Generated_Source\PSoC6\pdl\middleware\ble/cy_ble_event_handler.h ****      ***************************************/
 940:Generated_Source\PSoC6\pdl\middleware\ble/cy_ble_event_handler.h **** 
 941:Generated_Source\PSoC6\pdl\middleware\ble/cy_ble_event_handler.h ****     /** CTS Server - Notification for Current Time Characteristic was enabled. The
 942:Generated_Source\PSoC6\pdl\middleware\ble/cy_ble_event_handler.h ****      *  parameter of this event is a structure of the cy_stc_ble_cts_char_value_t type.
 943:Generated_Source\PSoC6\pdl\middleware\ble/cy_ble_event_handler.h ****      */
 944:Generated_Source\PSoC6\pdl\middleware\ble/cy_ble_event_handler.h ****     CY_BLE_EVT_CTSS_NOTIFICATION_ENABLED,
ARM GAS  C:\Users\Brian\AppData\Local\Temp\ccRcp4rf.s 			page 25


 945:Generated_Source\PSoC6\pdl\middleware\ble/cy_ble_event_handler.h **** 
 946:Generated_Source\PSoC6\pdl\middleware\ble/cy_ble_event_handler.h ****     /** CTS Server - Notification for Current Time Characteristic was disabled. The
 947:Generated_Source\PSoC6\pdl\middleware\ble/cy_ble_event_handler.h ****      *  parameter of this event is a structure of the cy_stc_ble_cts_char_value_t type.
 948:Generated_Source\PSoC6\pdl\middleware\ble/cy_ble_event_handler.h ****      */
 949:Generated_Source\PSoC6\pdl\middleware\ble/cy_ble_event_handler.h ****     CY_BLE_EVT_CTSS_NOTIFICATION_DISABLED,
 950:Generated_Source\PSoC6\pdl\middleware\ble/cy_ble_event_handler.h **** 
 951:Generated_Source\PSoC6\pdl\middleware\ble/cy_ble_event_handler.h ****     /** CTS Server - Write Request for Current Time Service
 952:Generated_Source\PSoC6\pdl\middleware\ble/cy_ble_event_handler.h ****      *  Characteristic was received. The parameter of this event is a structure of
 953:Generated_Source\PSoC6\pdl\middleware\ble/cy_ble_event_handler.h ****      *  the cy_stc_ble_cts_char_value_t type. When this event is received, the user is
 954:Generated_Source\PSoC6\pdl\middleware\ble/cy_ble_event_handler.h ****      *  responsible for performing any kind of data verification and writing the
 955:Generated_Source\PSoC6\pdl\middleware\ble/cy_ble_event_handler.h ****      *  data to the GATT database in case of successful verification or setting
 956:Generated_Source\PSoC6\pdl\middleware\ble/cy_ble_event_handler.h ****      *  the error if data verification fails.
 957:Generated_Source\PSoC6\pdl\middleware\ble/cy_ble_event_handler.h ****      */
 958:Generated_Source\PSoC6\pdl\middleware\ble/cy_ble_event_handler.h ****     CY_BLE_EVT_CTSS_WRITE_CHAR,
 959:Generated_Source\PSoC6\pdl\middleware\ble/cy_ble_event_handler.h **** 
 960:Generated_Source\PSoC6\pdl\middleware\ble/cy_ble_event_handler.h ****     /** CTS Client - Current Time Characteristic Notification was received. The
 961:Generated_Source\PSoC6\pdl\middleware\ble/cy_ble_event_handler.h ****      *  parameter of this event is a structure of the cy_stc_ble_cts_char_value_t type.
 962:Generated_Source\PSoC6\pdl\middleware\ble/cy_ble_event_handler.h ****      */
 963:Generated_Source\PSoC6\pdl\middleware\ble/cy_ble_event_handler.h ****     CY_BLE_EVT_CTSC_NOTIFICATION,
 964:Generated_Source\PSoC6\pdl\middleware\ble/cy_ble_event_handler.h **** 
 965:Generated_Source\PSoC6\pdl\middleware\ble/cy_ble_event_handler.h ****     /** CTS Client - Read Response for Current Time Characteristic
 966:Generated_Source\PSoC6\pdl\middleware\ble/cy_ble_event_handler.h ****      *  Value Read Request. The parameter of this event is a
 967:Generated_Source\PSoC6\pdl\middleware\ble/cy_ble_event_handler.h ****      *  structure of the cy_stc_ble_cts_char_value_t type.
 968:Generated_Source\PSoC6\pdl\middleware\ble/cy_ble_event_handler.h ****      */
 969:Generated_Source\PSoC6\pdl\middleware\ble/cy_ble_event_handler.h ****     CY_BLE_EVT_CTSC_READ_CHAR_RESPONSE,
 970:Generated_Source\PSoC6\pdl\middleware\ble/cy_ble_event_handler.h **** 
 971:Generated_Source\PSoC6\pdl\middleware\ble/cy_ble_event_handler.h ****     /** CTS Client - Read Response for Current Time Client
 972:Generated_Source\PSoC6\pdl\middleware\ble/cy_ble_event_handler.h ****      *  Characteristic Configuration Descriptor Value Read
 973:Generated_Source\PSoC6\pdl\middleware\ble/cy_ble_event_handler.h ****      *  Request. The parameter of this event is a
 974:Generated_Source\PSoC6\pdl\middleware\ble/cy_ble_event_handler.h ****      *  structure of the cy_stc_ble_cts_descr_value_t type.
 975:Generated_Source\PSoC6\pdl\middleware\ble/cy_ble_event_handler.h ****      */
 976:Generated_Source\PSoC6\pdl\middleware\ble/cy_ble_event_handler.h ****     CY_BLE_EVT_CTSC_READ_DESCR_RESPONSE,
 977:Generated_Source\PSoC6\pdl\middleware\ble/cy_ble_event_handler.h **** 
 978:Generated_Source\PSoC6\pdl\middleware\ble/cy_ble_event_handler.h ****     /** CTS Client - Write Response for Current Time Characteristic
 979:Generated_Source\PSoC6\pdl\middleware\ble/cy_ble_event_handler.h ****      *  Configuration Descriptor Value. The parameter of this
 980:Generated_Source\PSoC6\pdl\middleware\ble/cy_ble_event_handler.h ****      *  event is a structure of the cy_stc_ble_cts_descr_value_t type.
 981:Generated_Source\PSoC6\pdl\middleware\ble/cy_ble_event_handler.h ****      */
 982:Generated_Source\PSoC6\pdl\middleware\ble/cy_ble_event_handler.h ****     CY_BLE_EVT_CTSC_WRITE_DESCR_RESPONSE,
 983:Generated_Source\PSoC6\pdl\middleware\ble/cy_ble_event_handler.h **** 
 984:Generated_Source\PSoC6\pdl\middleware\ble/cy_ble_event_handler.h ****     /** CTS Client - Write Response for Current Time or Local
 985:Generated_Source\PSoC6\pdl\middleware\ble/cy_ble_event_handler.h ****      *  Time Information Characteristic Value. The parameter of this
 986:Generated_Source\PSoC6\pdl\middleware\ble/cy_ble_event_handler.h ****      *  event is a structure of the cy_stc_ble_cts_descr_value_t type.
 987:Generated_Source\PSoC6\pdl\middleware\ble/cy_ble_event_handler.h ****      */
 988:Generated_Source\PSoC6\pdl\middleware\ble/cy_ble_event_handler.h ****     CY_BLE_EVT_CTSC_WRITE_CHAR_RESPONSE,
 989:Generated_Source\PSoC6\pdl\middleware\ble/cy_ble_event_handler.h **** 
 990:Generated_Source\PSoC6\pdl\middleware\ble/cy_ble_event_handler.h ****     /****************************************
 991:Generated_Source\PSoC6\pdl\middleware\ble/cy_ble_event_handler.h ****      * DIS Service Events
 992:Generated_Source\PSoC6\pdl\middleware\ble/cy_ble_event_handler.h ****      ***************************************/
 993:Generated_Source\PSoC6\pdl\middleware\ble/cy_ble_event_handler.h **** 
 994:Generated_Source\PSoC6\pdl\middleware\ble/cy_ble_event_handler.h ****     /** DIS Client - Read Response for a Read Request for a
 995:Generated_Source\PSoC6\pdl\middleware\ble/cy_ble_event_handler.h ****      *  Device Information Service Characteristic. The parameter of this
 996:Generated_Source\PSoC6\pdl\middleware\ble/cy_ble_event_handler.h ****      *  event is a structure of the cy_stc_ble_dis_char_value_t type.
 997:Generated_Source\PSoC6\pdl\middleware\ble/cy_ble_event_handler.h ****      */
 998:Generated_Source\PSoC6\pdl\middleware\ble/cy_ble_event_handler.h ****     CY_BLE_EVT_DISC_READ_CHAR_RESPONSE,
 999:Generated_Source\PSoC6\pdl\middleware\ble/cy_ble_event_handler.h **** 
1000:Generated_Source\PSoC6\pdl\middleware\ble/cy_ble_event_handler.h **** 
1001:Generated_Source\PSoC6\pdl\middleware\ble/cy_ble_event_handler.h ****     /****************************************
ARM GAS  C:\Users\Brian\AppData\Local\Temp\ccRcp4rf.s 			page 26


1002:Generated_Source\PSoC6\pdl\middleware\ble/cy_ble_event_handler.h ****      * Environmental Sensing Service Events
1003:Generated_Source\PSoC6\pdl\middleware\ble/cy_ble_event_handler.h ****      ***************************************/
1004:Generated_Source\PSoC6\pdl\middleware\ble/cy_ble_event_handler.h **** 
1005:Generated_Source\PSoC6\pdl\middleware\ble/cy_ble_event_handler.h ****     /** ESS Server - Notification for Environmental Sensing Service
1006:Generated_Source\PSoC6\pdl\middleware\ble/cy_ble_event_handler.h ****      *  Characteristic was enabled. The parameter of this event is a structure of
1007:Generated_Source\PSoC6\pdl\middleware\ble/cy_ble_event_handler.h ****      *  cy_stc_ble_ess_char_value_t type.
1008:Generated_Source\PSoC6\pdl\middleware\ble/cy_ble_event_handler.h ****      */
1009:Generated_Source\PSoC6\pdl\middleware\ble/cy_ble_event_handler.h ****     CY_BLE_EVT_ESSS_NOTIFICATION_ENABLED,
1010:Generated_Source\PSoC6\pdl\middleware\ble/cy_ble_event_handler.h **** 
1011:Generated_Source\PSoC6\pdl\middleware\ble/cy_ble_event_handler.h ****     /** ESS Server - Notification for Environmental Sensing Service
1012:Generated_Source\PSoC6\pdl\middleware\ble/cy_ble_event_handler.h ****      *  Characteristic was disabled. The parameter of this event is a structure of
1013:Generated_Source\PSoC6\pdl\middleware\ble/cy_ble_event_handler.h ****      *  cy_stc_ble_ess_char_value_t type.
1014:Generated_Source\PSoC6\pdl\middleware\ble/cy_ble_event_handler.h ****      */
1015:Generated_Source\PSoC6\pdl\middleware\ble/cy_ble_event_handler.h ****     CY_BLE_EVT_ESSS_NOTIFICATION_DISABLED,
1016:Generated_Source\PSoC6\pdl\middleware\ble/cy_ble_event_handler.h **** 
1017:Generated_Source\PSoC6\pdl\middleware\ble/cy_ble_event_handler.h ****     /** ESS Server - Indication for Environmental Sensing Service Characteristic
1018:Generated_Source\PSoC6\pdl\middleware\ble/cy_ble_event_handler.h ****      *  was enabled. The parameter of this event is a structure of
1019:Generated_Source\PSoC6\pdl\middleware\ble/cy_ble_event_handler.h ****      *  the cy_stc_ble_ess_char_value_t type.
1020:Generated_Source\PSoC6\pdl\middleware\ble/cy_ble_event_handler.h ****      */
1021:Generated_Source\PSoC6\pdl\middleware\ble/cy_ble_event_handler.h ****     CY_BLE_EVT_ESSS_INDICATION_ENABLED,
1022:Generated_Source\PSoC6\pdl\middleware\ble/cy_ble_event_handler.h **** 
1023:Generated_Source\PSoC6\pdl\middleware\ble/cy_ble_event_handler.h ****     /** ESS Server - Indication for Environmental Sensing Service Characteristic
1024:Generated_Source\PSoC6\pdl\middleware\ble/cy_ble_event_handler.h ****      *  was disabled. The parameter of this event is a structure of
1025:Generated_Source\PSoC6\pdl\middleware\ble/cy_ble_event_handler.h ****      *  cy_stc_ble_ess_char_value_t type.
1026:Generated_Source\PSoC6\pdl\middleware\ble/cy_ble_event_handler.h ****      */
1027:Generated_Source\PSoC6\pdl\middleware\ble/cy_ble_event_handler.h ****     CY_BLE_EVT_ESSS_INDICATION_DISABLED,
1028:Generated_Source\PSoC6\pdl\middleware\ble/cy_ble_event_handler.h **** 
1029:Generated_Source\PSoC6\pdl\middleware\ble/cy_ble_event_handler.h ****     /** ESS Server - Environmental Sensing Service Characteristic
1030:Generated_Source\PSoC6\pdl\middleware\ble/cy_ble_event_handler.h ****      *  Indication was confirmed. The parameter of this event is a structure of
1031:Generated_Source\PSoC6\pdl\middleware\ble/cy_ble_event_handler.h ****      *  cy_stc_ble_ess_char_value_t type.
1032:Generated_Source\PSoC6\pdl\middleware\ble/cy_ble_event_handler.h ****      */
1033:Generated_Source\PSoC6\pdl\middleware\ble/cy_ble_event_handler.h ****     CY_BLE_EVT_ESSS_INDICATION_CONFIRMATION,
1034:Generated_Source\PSoC6\pdl\middleware\ble/cy_ble_event_handler.h **** 
1035:Generated_Source\PSoC6\pdl\middleware\ble/cy_ble_event_handler.h ****     /** ESS Server - Write Request for Environmental Sensing Service
1036:Generated_Source\PSoC6\pdl\middleware\ble/cy_ble_event_handler.h ****      *  Characteristic was received. The parameter of this event is a structure of
1037:Generated_Source\PSoC6\pdl\middleware\ble/cy_ble_event_handler.h ****      *  the cy_stc_ble_ess_char_value_t type.
1038:Generated_Source\PSoC6\pdl\middleware\ble/cy_ble_event_handler.h ****      */
1039:Generated_Source\PSoC6\pdl\middleware\ble/cy_ble_event_handler.h ****     CY_BLE_EVT_ESSS_WRITE_CHAR,
1040:Generated_Source\PSoC6\pdl\middleware\ble/cy_ble_event_handler.h **** 
1041:Generated_Source\PSoC6\pdl\middleware\ble/cy_ble_event_handler.h ****     /** ESS Server - Write Request for Environmental Sensing Service
1042:Generated_Source\PSoC6\pdl\middleware\ble/cy_ble_event_handler.h ****      *  Characteristic Descriptor was received. The parameter of this event is a structure of
1043:Generated_Source\PSoC6\pdl\middleware\ble/cy_ble_event_handler.h ****      *  the cy_stc_ble_ess_descr_value_t type. This event is generated only when write for
1044:Generated_Source\PSoC6\pdl\middleware\ble/cy_ble_event_handler.h ****      *  #CY_BLE_ESS_ES_TRIGGER_SETTINGS_DESCR1, #CY_BLE_ESS_ES_TRIGGER_SETTINGS_DESCR2, 
1045:Generated_Source\PSoC6\pdl\middleware\ble/cy_ble_event_handler.h ****      *  #CY_BLE_ESS_ES_TRIGGER_SETTINGS_DESCR3 or CY_BLE_ESS_ES_CONFIG_DESCR occurs.
1046:Generated_Source\PSoC6\pdl\middleware\ble/cy_ble_event_handler.h ****      */
1047:Generated_Source\PSoC6\pdl\middleware\ble/cy_ble_event_handler.h ****     CY_BLE_EVT_ESSS_DESCR_WRITE,
1048:Generated_Source\PSoC6\pdl\middleware\ble/cy_ble_event_handler.h **** 
1049:Generated_Source\PSoC6\pdl\middleware\ble/cy_ble_event_handler.h ****     /** ESS Client - Environmental Sensing Service Characteristic
1050:Generated_Source\PSoC6\pdl\middleware\ble/cy_ble_event_handler.h ****      *  Notification was received. The parameter of this event is a structure of
1051:Generated_Source\PSoC6\pdl\middleware\ble/cy_ble_event_handler.h ****      *  the cy_stc_ble_ess_char_value_t type.
1052:Generated_Source\PSoC6\pdl\middleware\ble/cy_ble_event_handler.h ****      */
1053:Generated_Source\PSoC6\pdl\middleware\ble/cy_ble_event_handler.h ****     CY_BLE_EVT_ESSC_NOTIFICATION,
1054:Generated_Source\PSoC6\pdl\middleware\ble/cy_ble_event_handler.h **** 
1055:Generated_Source\PSoC6\pdl\middleware\ble/cy_ble_event_handler.h ****     /** ESS Client - Environmental Sensing Service Characteristic
1056:Generated_Source\PSoC6\pdl\middleware\ble/cy_ble_event_handler.h ****      *  Indication was received. The parameter of this event is a structure of
1057:Generated_Source\PSoC6\pdl\middleware\ble/cy_ble_event_handler.h ****      *  cy_stc_ble_ess_char_value_t type.
1058:Generated_Source\PSoC6\pdl\middleware\ble/cy_ble_event_handler.h ****      */
ARM GAS  C:\Users\Brian\AppData\Local\Temp\ccRcp4rf.s 			page 27


1059:Generated_Source\PSoC6\pdl\middleware\ble/cy_ble_event_handler.h ****     CY_BLE_EVT_ESSC_INDICATION,
1060:Generated_Source\PSoC6\pdl\middleware\ble/cy_ble_event_handler.h **** 
1061:Generated_Source\PSoC6\pdl\middleware\ble/cy_ble_event_handler.h ****     /** ESS Client - Read Response for Read Request of Environmental Sensing
1062:Generated_Source\PSoC6\pdl\middleware\ble/cy_ble_event_handler.h ****      *  Service Characteristic value. The parameter of this event is a structure of
1063:Generated_Source\PSoC6\pdl\middleware\ble/cy_ble_event_handler.h ****      *  the cy_stc_ble_ess_char_value_t type.
1064:Generated_Source\PSoC6\pdl\middleware\ble/cy_ble_event_handler.h ****      */
1065:Generated_Source\PSoC6\pdl\middleware\ble/cy_ble_event_handler.h ****     CY_BLE_EVT_ESSC_READ_CHAR_RESPONSE,
1066:Generated_Source\PSoC6\pdl\middleware\ble/cy_ble_event_handler.h **** 
1067:Generated_Source\PSoC6\pdl\middleware\ble/cy_ble_event_handler.h ****     /** ESS Client - Write Response for Write Request of Environmental Sensing
1068:Generated_Source\PSoC6\pdl\middleware\ble/cy_ble_event_handler.h ****      *  Service Characteristic value. The parameter of this event is a structure of
1069:Generated_Source\PSoC6\pdl\middleware\ble/cy_ble_event_handler.h ****      *  the cy_stc_ble_ess_char_value_t type.
1070:Generated_Source\PSoC6\pdl\middleware\ble/cy_ble_event_handler.h ****      */
1071:Generated_Source\PSoC6\pdl\middleware\ble/cy_ble_event_handler.h ****     CY_BLE_EVT_ESSC_WRITE_CHAR_RESPONSE,
1072:Generated_Source\PSoC6\pdl\middleware\ble/cy_ble_event_handler.h **** 
1073:Generated_Source\PSoC6\pdl\middleware\ble/cy_ble_event_handler.h ****     /** ESS Client - Read Response for Read Request of Environmental Sensing
1074:Generated_Source\PSoC6\pdl\middleware\ble/cy_ble_event_handler.h ****      *  Service Characteristic Descriptor Read request. The parameter of this event
1075:Generated_Source\PSoC6\pdl\middleware\ble/cy_ble_event_handler.h ****      *  is a structure of the cy_stc_ble_ess_descr_value_t type.
1076:Generated_Source\PSoC6\pdl\middleware\ble/cy_ble_event_handler.h ****      */
1077:Generated_Source\PSoC6\pdl\middleware\ble/cy_ble_event_handler.h ****     CY_BLE_EVT_ESSC_READ_DESCR_RESPONSE,
1078:Generated_Source\PSoC6\pdl\middleware\ble/cy_ble_event_handler.h **** 
1079:Generated_Source\PSoC6\pdl\middleware\ble/cy_ble_event_handler.h ****     /** ESS Client - Write Response for Write Request of Environmental Sensing
1080:Generated_Source\PSoC6\pdl\middleware\ble/cy_ble_event_handler.h ****      *  Service Characteristic Configuration Descriptor value. The parameter of
1081:Generated_Source\PSoC6\pdl\middleware\ble/cy_ble_event_handler.h ****      *  this event is a structure of the cy_stc_ble_ess_descr_value_t type.
1082:Generated_Source\PSoC6\pdl\middleware\ble/cy_ble_event_handler.h ****      */
1083:Generated_Source\PSoC6\pdl\middleware\ble/cy_ble_event_handler.h ****     CY_BLE_EVT_ESSC_WRITE_DESCR_RESPONSE,
1084:Generated_Source\PSoC6\pdl\middleware\ble/cy_ble_event_handler.h **** 
1085:Generated_Source\PSoC6\pdl\middleware\ble/cy_ble_event_handler.h **** 
1086:Generated_Source\PSoC6\pdl\middleware\ble/cy_ble_event_handler.h ****     /****************************************
1087:Generated_Source\PSoC6\pdl\middleware\ble/cy_ble_event_handler.h ****      * Glucose Service Events
1088:Generated_Source\PSoC6\pdl\middleware\ble/cy_ble_event_handler.h ****      ***************************************/
1089:Generated_Source\PSoC6\pdl\middleware\ble/cy_ble_event_handler.h **** 
1090:Generated_Source\PSoC6\pdl\middleware\ble/cy_ble_event_handler.h ****     /** GLS Server - Indication for Glucose Service Characteristic
1091:Generated_Source\PSoC6\pdl\middleware\ble/cy_ble_event_handler.h ****      *  was enabled. The parameter of this event is a structure
1092:Generated_Source\PSoC6\pdl\middleware\ble/cy_ble_event_handler.h ****      *  of cy_stc_ble_gls_char_value_t type.
1093:Generated_Source\PSoC6\pdl\middleware\ble/cy_ble_event_handler.h ****      */
1094:Generated_Source\PSoC6\pdl\middleware\ble/cy_ble_event_handler.h ****     CY_BLE_EVT_GLSS_INDICATION_ENABLED,
1095:Generated_Source\PSoC6\pdl\middleware\ble/cy_ble_event_handler.h **** 
1096:Generated_Source\PSoC6\pdl\middleware\ble/cy_ble_event_handler.h ****     /** GLS Server - Indication for Glucose Service Characteristic
1097:Generated_Source\PSoC6\pdl\middleware\ble/cy_ble_event_handler.h ****      *  was disabled. The parameter of this event is a structure
1098:Generated_Source\PSoC6\pdl\middleware\ble/cy_ble_event_handler.h ****      *  of the cy_stc_ble_gls_char_value_t type.
1099:Generated_Source\PSoC6\pdl\middleware\ble/cy_ble_event_handler.h ****      */
1100:Generated_Source\PSoC6\pdl\middleware\ble/cy_ble_event_handler.h ****     CY_BLE_EVT_GLSS_INDICATION_DISABLED,
1101:Generated_Source\PSoC6\pdl\middleware\ble/cy_ble_event_handler.h **** 
1102:Generated_Source\PSoC6\pdl\middleware\ble/cy_ble_event_handler.h ****     /** GLS Server - Glucose Service Characteristic
1103:Generated_Source\PSoC6\pdl\middleware\ble/cy_ble_event_handler.h ****      *  Indication was confirmed. The parameter of this event
1104:Generated_Source\PSoC6\pdl\middleware\ble/cy_ble_event_handler.h ****      *  is a structure of the cy_stc_ble_gls_char_value_t type.
1105:Generated_Source\PSoC6\pdl\middleware\ble/cy_ble_event_handler.h ****      */
1106:Generated_Source\PSoC6\pdl\middleware\ble/cy_ble_event_handler.h ****     CY_BLE_EVT_GLSS_INDICATION_CONFIRMED,
1107:Generated_Source\PSoC6\pdl\middleware\ble/cy_ble_event_handler.h **** 
1108:Generated_Source\PSoC6\pdl\middleware\ble/cy_ble_event_handler.h ****     /** GLS Server - Notification for Glucose Service Characteristic
1109:Generated_Source\PSoC6\pdl\middleware\ble/cy_ble_event_handler.h ****      *  was enabled. The parameter of this event is a structure of
1110:Generated_Source\PSoC6\pdl\middleware\ble/cy_ble_event_handler.h ****      *  the cy_stc_ble_gls_char_value_t type.
1111:Generated_Source\PSoC6\pdl\middleware\ble/cy_ble_event_handler.h ****      */
1112:Generated_Source\PSoC6\pdl\middleware\ble/cy_ble_event_handler.h ****     CY_BLE_EVT_GLSS_NOTIFICATION_ENABLED,
1113:Generated_Source\PSoC6\pdl\middleware\ble/cy_ble_event_handler.h **** 
1114:Generated_Source\PSoC6\pdl\middleware\ble/cy_ble_event_handler.h ****     /** GLS Server - Notification for Glucose Service Characteristic
1115:Generated_Source\PSoC6\pdl\middleware\ble/cy_ble_event_handler.h ****      *  was disabled. The parameter of this event is a structure
ARM GAS  C:\Users\Brian\AppData\Local\Temp\ccRcp4rf.s 			page 28


1116:Generated_Source\PSoC6\pdl\middleware\ble/cy_ble_event_handler.h ****      *  of the cy_stc_ble_gls_char_value_t type.
1117:Generated_Source\PSoC6\pdl\middleware\ble/cy_ble_event_handler.h ****      */
1118:Generated_Source\PSoC6\pdl\middleware\ble/cy_ble_event_handler.h ****     CY_BLE_EVT_GLSS_NOTIFICATION_DISABLED,
1119:Generated_Source\PSoC6\pdl\middleware\ble/cy_ble_event_handler.h **** 
1120:Generated_Source\PSoC6\pdl\middleware\ble/cy_ble_event_handler.h ****     /** GLS Server - Write Request for Glucose Service
1121:Generated_Source\PSoC6\pdl\middleware\ble/cy_ble_event_handler.h ****      *  was received. The parameter of this event is a structure
1122:Generated_Source\PSoC6\pdl\middleware\ble/cy_ble_event_handler.h ****      *  of cy_stc_ble_gls_char_value_t type.
1123:Generated_Source\PSoC6\pdl\middleware\ble/cy_ble_event_handler.h ****      */
1124:Generated_Source\PSoC6\pdl\middleware\ble/cy_ble_event_handler.h ****     CY_BLE_EVT_GLSS_WRITE_CHAR,
1125:Generated_Source\PSoC6\pdl\middleware\ble/cy_ble_event_handler.h **** 
1126:Generated_Source\PSoC6\pdl\middleware\ble/cy_ble_event_handler.h ****     /** GLS Client - Glucose Service Characteristic
1127:Generated_Source\PSoC6\pdl\middleware\ble/cy_ble_event_handler.h ****      *  Indication was received. The parameter of this event
1128:Generated_Source\PSoC6\pdl\middleware\ble/cy_ble_event_handler.h ****      *  is a structure of the cy_stc_ble_gls_char_value_t type.
1129:Generated_Source\PSoC6\pdl\middleware\ble/cy_ble_event_handler.h ****      */
1130:Generated_Source\PSoC6\pdl\middleware\ble/cy_ble_event_handler.h ****     CY_BLE_EVT_GLSC_INDICATION,
1131:Generated_Source\PSoC6\pdl\middleware\ble/cy_ble_event_handler.h **** 
1132:Generated_Source\PSoC6\pdl\middleware\ble/cy_ble_event_handler.h ****     /** GLS Client - Glucose Service Characteristic
1133:Generated_Source\PSoC6\pdl\middleware\ble/cy_ble_event_handler.h ****      *  Notification was received. The parameter of this event
1134:Generated_Source\PSoC6\pdl\middleware\ble/cy_ble_event_handler.h ****      *  is a structure of the cy_stc_ble_gls_char_value_t type.
1135:Generated_Source\PSoC6\pdl\middleware\ble/cy_ble_event_handler.h ****      */
1136:Generated_Source\PSoC6\pdl\middleware\ble/cy_ble_event_handler.h ****     CY_BLE_EVT_GLSC_NOTIFICATION,
1137:Generated_Source\PSoC6\pdl\middleware\ble/cy_ble_event_handler.h **** 
1138:Generated_Source\PSoC6\pdl\middleware\ble/cy_ble_event_handler.h ****     /** GLS Client - Read Response for Read Request of Glucose
1139:Generated_Source\PSoC6\pdl\middleware\ble/cy_ble_event_handler.h ****      *  Service Characteristic value. The parameter of this event
1140:Generated_Source\PSoC6\pdl\middleware\ble/cy_ble_event_handler.h ****      *  is a structure of the cy_stc_ble_gls_char_value_t type.
1141:Generated_Source\PSoC6\pdl\middleware\ble/cy_ble_event_handler.h ****      */
1142:Generated_Source\PSoC6\pdl\middleware\ble/cy_ble_event_handler.h ****     CY_BLE_EVT_GLSC_READ_CHAR_RESPONSE,
1143:Generated_Source\PSoC6\pdl\middleware\ble/cy_ble_event_handler.h **** 
1144:Generated_Source\PSoC6\pdl\middleware\ble/cy_ble_event_handler.h ****     /** GLS Client - Write Response for Write Request of Glucose
1145:Generated_Source\PSoC6\pdl\middleware\ble/cy_ble_event_handler.h ****      *  Service Characteristic value. The
1146:Generated_Source\PSoC6\pdl\middleware\ble/cy_ble_event_handler.h ****      *  parameter of this event is a structure of
1147:Generated_Source\PSoC6\pdl\middleware\ble/cy_ble_event_handler.h ****      *  the cy_stc_ble_gls_char_value_t type.
1148:Generated_Source\PSoC6\pdl\middleware\ble/cy_ble_event_handler.h ****      */
1149:Generated_Source\PSoC6\pdl\middleware\ble/cy_ble_event_handler.h ****     CY_BLE_EVT_GLSC_WRITE_CHAR_RESPONSE,
1150:Generated_Source\PSoC6\pdl\middleware\ble/cy_ble_event_handler.h **** 
1151:Generated_Source\PSoC6\pdl\middleware\ble/cy_ble_event_handler.h ****     /** GLS Client - Read Response for Read Request of Glucose
1152:Generated_Source\PSoC6\pdl\middleware\ble/cy_ble_event_handler.h ****      *  Service Characteristic Descriptor Read request. The
1153:Generated_Source\PSoC6\pdl\middleware\ble/cy_ble_event_handler.h ****      *  parameter of this event is a structure of
1154:Generated_Source\PSoC6\pdl\middleware\ble/cy_ble_event_handler.h ****      *  the cy_stc_ble_gls_descr_value_t type.
1155:Generated_Source\PSoC6\pdl\middleware\ble/cy_ble_event_handler.h ****      */
1156:Generated_Source\PSoC6\pdl\middleware\ble/cy_ble_event_handler.h ****     CY_BLE_EVT_GLSC_READ_DESCR_RESPONSE,
1157:Generated_Source\PSoC6\pdl\middleware\ble/cy_ble_event_handler.h **** 
1158:Generated_Source\PSoC6\pdl\middleware\ble/cy_ble_event_handler.h ****     /** GLS Client - Write Response for Write Request of Glucose
1159:Generated_Source\PSoC6\pdl\middleware\ble/cy_ble_event_handler.h ****      *  Service Characteristic Configuration Descriptor value.
1160:Generated_Source\PSoC6\pdl\middleware\ble/cy_ble_event_handler.h ****      *  The parameter of this event is a structure of
1161:Generated_Source\PSoC6\pdl\middleware\ble/cy_ble_event_handler.h ****      *  the cy_stc_ble_gls_descr_value_t type.
1162:Generated_Source\PSoC6\pdl\middleware\ble/cy_ble_event_handler.h ****      */
1163:Generated_Source\PSoC6\pdl\middleware\ble/cy_ble_event_handler.h ****     CY_BLE_EVT_GLSC_WRITE_DESCR_RESPONSE,
1164:Generated_Source\PSoC6\pdl\middleware\ble/cy_ble_event_handler.h **** 
1165:Generated_Source\PSoC6\pdl\middleware\ble/cy_ble_event_handler.h **** 
1166:Generated_Source\PSoC6\pdl\middleware\ble/cy_ble_event_handler.h ****     /****************************************
1167:Generated_Source\PSoC6\pdl\middleware\ble/cy_ble_event_handler.h ****      * HIDS Service Events
1168:Generated_Source\PSoC6\pdl\middleware\ble/cy_ble_event_handler.h ****      ***************************************/
1169:Generated_Source\PSoC6\pdl\middleware\ble/cy_ble_event_handler.h **** 
1170:Generated_Source\PSoC6\pdl\middleware\ble/cy_ble_event_handler.h ****     /** HIDS Server - Notification for HID service was
1171:Generated_Source\PSoC6\pdl\middleware\ble/cy_ble_event_handler.h ****      *  enabled. The parameter of this event is a
1172:Generated_Source\PSoC6\pdl\middleware\ble/cy_ble_event_handler.h ****      *  structure of the cy_stc_ble_hids_char_value_t type.
ARM GAS  C:\Users\Brian\AppData\Local\Temp\ccRcp4rf.s 			page 29


1173:Generated_Source\PSoC6\pdl\middleware\ble/cy_ble_event_handler.h ****      */
1174:Generated_Source\PSoC6\pdl\middleware\ble/cy_ble_event_handler.h ****     CY_BLE_EVT_HIDSS_NOTIFICATION_ENABLED,
1175:Generated_Source\PSoC6\pdl\middleware\ble/cy_ble_event_handler.h **** 
1176:Generated_Source\PSoC6\pdl\middleware\ble/cy_ble_event_handler.h ****     /** HIDS Server - Notification for HID service was
1177:Generated_Source\PSoC6\pdl\middleware\ble/cy_ble_event_handler.h ****      *  disabled. The parameter of this event is a
1178:Generated_Source\PSoC6\pdl\middleware\ble/cy_ble_event_handler.h ****      *  structure of the cy_stc_ble_hids_char_value_t type.
1179:Generated_Source\PSoC6\pdl\middleware\ble/cy_ble_event_handler.h ****      */
1180:Generated_Source\PSoC6\pdl\middleware\ble/cy_ble_event_handler.h ****     CY_BLE_EVT_HIDSS_NOTIFICATION_DISABLED,
1181:Generated_Source\PSoC6\pdl\middleware\ble/cy_ble_event_handler.h **** 
1182:Generated_Source\PSoC6\pdl\middleware\ble/cy_ble_event_handler.h ****     /** HIDS Server - Enter boot mode request. The
1183:Generated_Source\PSoC6\pdl\middleware\ble/cy_ble_event_handler.h ****      *  parameter of this event is a structure of
1184:Generated_Source\PSoC6\pdl\middleware\ble/cy_ble_event_handler.h ****      *  the cy_stc_ble_hids_char_value_t type.
1185:Generated_Source\PSoC6\pdl\middleware\ble/cy_ble_event_handler.h ****      */
1186:Generated_Source\PSoC6\pdl\middleware\ble/cy_ble_event_handler.h ****     CY_BLE_EVT_HIDSS_BOOT_MODE_ENTER,
1187:Generated_Source\PSoC6\pdl\middleware\ble/cy_ble_event_handler.h **** 
1188:Generated_Source\PSoC6\pdl\middleware\ble/cy_ble_event_handler.h ****     /** HIDS Server - Enter report mode request. The
1189:Generated_Source\PSoC6\pdl\middleware\ble/cy_ble_event_handler.h ****      *  parameter of this event is a structure of
1190:Generated_Source\PSoC6\pdl\middleware\ble/cy_ble_event_handler.h ****      *  the cy_stc_ble_hids_char_value_t type.
1191:Generated_Source\PSoC6\pdl\middleware\ble/cy_ble_event_handler.h ****      */
1192:Generated_Source\PSoC6\pdl\middleware\ble/cy_ble_event_handler.h ****     CY_BLE_EVT_HIDSS_REPORT_MODE_ENTER,
1193:Generated_Source\PSoC6\pdl\middleware\ble/cy_ble_event_handler.h **** 
1194:Generated_Source\PSoC6\pdl\middleware\ble/cy_ble_event_handler.h ****     /** HIDS Server - Enter suspend mode request. The
1195:Generated_Source\PSoC6\pdl\middleware\ble/cy_ble_event_handler.h ****      *  parameter of this event is a structure of
1196:Generated_Source\PSoC6\pdl\middleware\ble/cy_ble_event_handler.h ****      *  cy_stc_ble_hids_char_value_t type.
1197:Generated_Source\PSoC6\pdl\middleware\ble/cy_ble_event_handler.h ****      */
1198:Generated_Source\PSoC6\pdl\middleware\ble/cy_ble_event_handler.h ****     CY_BLE_EVT_HIDSS_SUSPEND,
1199:Generated_Source\PSoC6\pdl\middleware\ble/cy_ble_event_handler.h **** 
1200:Generated_Source\PSoC6\pdl\middleware\ble/cy_ble_event_handler.h ****     /** HIDS Server - Exit suspend mode request. The
1201:Generated_Source\PSoC6\pdl\middleware\ble/cy_ble_event_handler.h ****      *  parameter of this event is a structure of
1202:Generated_Source\PSoC6\pdl\middleware\ble/cy_ble_event_handler.h ****      *  the cy_stc_ble_hids_char_value_t type.
1203:Generated_Source\PSoC6\pdl\middleware\ble/cy_ble_event_handler.h ****      */
1204:Generated_Source\PSoC6\pdl\middleware\ble/cy_ble_event_handler.h ****     CY_BLE_EVT_HIDSS_EXIT_SUSPEND,
1205:Generated_Source\PSoC6\pdl\middleware\ble/cy_ble_event_handler.h **** 
1206:Generated_Source\PSoC6\pdl\middleware\ble/cy_ble_event_handler.h ****     /** HIDS Server - Write Report Characteristic
1207:Generated_Source\PSoC6\pdl\middleware\ble/cy_ble_event_handler.h ****      *  request. The parameter of this event is a
1208:Generated_Source\PSoC6\pdl\middleware\ble/cy_ble_event_handler.h ****      *  structure of the cy_stc_ble_hids_char_value_t type.
1209:Generated_Source\PSoC6\pdl\middleware\ble/cy_ble_event_handler.h ****      */
1210:Generated_Source\PSoC6\pdl\middleware\ble/cy_ble_event_handler.h ****     CY_BLE_EVT_HIDSS_REPORT_WRITE_CHAR,
1211:Generated_Source\PSoC6\pdl\middleware\ble/cy_ble_event_handler.h **** 
1212:Generated_Source\PSoC6\pdl\middleware\ble/cy_ble_event_handler.h ****     /** HIDS Client - HID Service Characteristic
1213:Generated_Source\PSoC6\pdl\middleware\ble/cy_ble_event_handler.h ****      *  Notification was received. The parameter of this
1214:Generated_Source\PSoC6\pdl\middleware\ble/cy_ble_event_handler.h ****      *  event is a structure of the cy_stc_ble_hids_char_value_t type.
1215:Generated_Source\PSoC6\pdl\middleware\ble/cy_ble_event_handler.h ****      */
1216:Generated_Source\PSoC6\pdl\middleware\ble/cy_ble_event_handler.h ****     CY_BLE_EVT_HIDSC_NOTIFICATION,
1217:Generated_Source\PSoC6\pdl\middleware\ble/cy_ble_event_handler.h **** 
1218:Generated_Source\PSoC6\pdl\middleware\ble/cy_ble_event_handler.h ****     /** HIDS Client - Read Response for Read Request of HID
1219:Generated_Source\PSoC6\pdl\middleware\ble/cy_ble_event_handler.h ****      *  Service Characteristic value. The parameter of this
1220:Generated_Source\PSoC6\pdl\middleware\ble/cy_ble_event_handler.h ****      *  event is a structure of the cy_stc_ble_hids_descr_value_t type.
1221:Generated_Source\PSoC6\pdl\middleware\ble/cy_ble_event_handler.h ****      */
1222:Generated_Source\PSoC6\pdl\middleware\ble/cy_ble_event_handler.h ****     CY_BLE_EVT_HIDSC_READ_CHAR_RESPONSE,
1223:Generated_Source\PSoC6\pdl\middleware\ble/cy_ble_event_handler.h **** 
1224:Generated_Source\PSoC6\pdl\middleware\ble/cy_ble_event_handler.h ****     /** HIDS Client - Write Response for Write Request of
1225:Generated_Source\PSoC6\pdl\middleware\ble/cy_ble_event_handler.h ****      *  HID Service Characteristic value. The parameter
1226:Generated_Source\PSoC6\pdl\middleware\ble/cy_ble_event_handler.h ****      *  of this event is a structure of
1227:Generated_Source\PSoC6\pdl\middleware\ble/cy_ble_event_handler.h ****      *  the cy_stc_ble_hids_char_value_t type.
1228:Generated_Source\PSoC6\pdl\middleware\ble/cy_ble_event_handler.h ****      */
1229:Generated_Source\PSoC6\pdl\middleware\ble/cy_ble_event_handler.h ****     CY_BLE_EVT_HIDSC_WRITE_CHAR_RESPONSE,
ARM GAS  C:\Users\Brian\AppData\Local\Temp\ccRcp4rf.s 			page 30


1230:Generated_Source\PSoC6\pdl\middleware\ble/cy_ble_event_handler.h **** 
1231:Generated_Source\PSoC6\pdl\middleware\ble/cy_ble_event_handler.h ****     /** HIDS Client - Read Response for Read Request of HID
1232:Generated_Source\PSoC6\pdl\middleware\ble/cy_ble_event_handler.h ****      *  Service Characteristic Descriptor Read request. The
1233:Generated_Source\PSoC6\pdl\middleware\ble/cy_ble_event_handler.h ****      *  parameter of this event is a structure of
1234:Generated_Source\PSoC6\pdl\middleware\ble/cy_ble_event_handler.h ****      *  the cy_stc_ble_hids_descr_value_t type.
1235:Generated_Source\PSoC6\pdl\middleware\ble/cy_ble_event_handler.h ****      */
1236:Generated_Source\PSoC6\pdl\middleware\ble/cy_ble_event_handler.h ****     CY_BLE_EVT_HIDSC_READ_DESCR_RESPONSE,
1237:Generated_Source\PSoC6\pdl\middleware\ble/cy_ble_event_handler.h **** 
1238:Generated_Source\PSoC6\pdl\middleware\ble/cy_ble_event_handler.h ****     /** HIDS Client - Write Response for Write Request of HID
1239:Generated_Source\PSoC6\pdl\middleware\ble/cy_ble_event_handler.h ****      *  Service Characteristic Configuration Descriptor value.
1240:Generated_Source\PSoC6\pdl\middleware\ble/cy_ble_event_handler.h ****      *  The parameter of this event is a structure of
1241:Generated_Source\PSoC6\pdl\middleware\ble/cy_ble_event_handler.h ****      *  the cy_stc_ble_hids_char_value_t type.
1242:Generated_Source\PSoC6\pdl\middleware\ble/cy_ble_event_handler.h ****      */
1243:Generated_Source\PSoC6\pdl\middleware\ble/cy_ble_event_handler.h ****     CY_BLE_EVT_HIDSC_WRITE_DESCR_RESPONSE,
1244:Generated_Source\PSoC6\pdl\middleware\ble/cy_ble_event_handler.h **** 
1245:Generated_Source\PSoC6\pdl\middleware\ble/cy_ble_event_handler.h **** 
1246:Generated_Source\PSoC6\pdl\middleware\ble/cy_ble_event_handler.h ****     /****************************************
1247:Generated_Source\PSoC6\pdl\middleware\ble/cy_ble_event_handler.h ****      *  HTTP Proxy Service Events
1248:Generated_Source\PSoC6\pdl\middleware\ble/cy_ble_event_handler.h ****      ***************************************/
1249:Generated_Source\PSoC6\pdl\middleware\ble/cy_ble_event_handler.h **** 
1250:Generated_Source\PSoC6\pdl\middleware\ble/cy_ble_event_handler.h ****     /** HPS Server - Notification for HTTP Proxy Service Characteristic
1251:Generated_Source\PSoC6\pdl\middleware\ble/cy_ble_event_handler.h ****      *  was enabled. The parameter of this event is a structure
1252:Generated_Source\PSoC6\pdl\middleware\ble/cy_ble_event_handler.h ****      *  of the cy_stc_ble_hps_char_value_t type.
1253:Generated_Source\PSoC6\pdl\middleware\ble/cy_ble_event_handler.h ****      */
1254:Generated_Source\PSoC6\pdl\middleware\ble/cy_ble_event_handler.h ****     CY_BLE_EVT_HPSS_NOTIFICATION_ENABLED,
1255:Generated_Source\PSoC6\pdl\middleware\ble/cy_ble_event_handler.h **** 
1256:Generated_Source\PSoC6\pdl\middleware\ble/cy_ble_event_handler.h ****     /** HPS Server - Notification for HTTP Proxy Service Characteristic
1257:Generated_Source\PSoC6\pdl\middleware\ble/cy_ble_event_handler.h ****      *  was disabled. The parameter of this event is a structure
1258:Generated_Source\PSoC6\pdl\middleware\ble/cy_ble_event_handler.h ****      *  of the cy_stc_ble_hps_char_value_t type.
1259:Generated_Source\PSoC6\pdl\middleware\ble/cy_ble_event_handler.h ****      */
1260:Generated_Source\PSoC6\pdl\middleware\ble/cy_ble_event_handler.h ****     CY_BLE_EVT_HPSS_NOTIFICATION_DISABLED,
1261:Generated_Source\PSoC6\pdl\middleware\ble/cy_ble_event_handler.h **** 
1262:Generated_Source\PSoC6\pdl\middleware\ble/cy_ble_event_handler.h ****     /** HPS Server - Write Request for HTTP Proxy Service
1263:Generated_Source\PSoC6\pdl\middleware\ble/cy_ble_event_handler.h ****      *  Characteristic was received. The parameter of this event is a structure of
1264:Generated_Source\PSoC6\pdl\middleware\ble/cy_ble_event_handler.h ****      *  the cy_stc_ble_hps_char_value_t type.
1265:Generated_Source\PSoC6\pdl\middleware\ble/cy_ble_event_handler.h ****      */
1266:Generated_Source\PSoC6\pdl\middleware\ble/cy_ble_event_handler.h ****     CY_BLE_EVT_HPSS_WRITE_CHAR,
1267:Generated_Source\PSoC6\pdl\middleware\ble/cy_ble_event_handler.h **** 
1268:Generated_Source\PSoC6\pdl\middleware\ble/cy_ble_event_handler.h ****     /** HPS Client - HTTP Proxy Service Characteristic
1269:Generated_Source\PSoC6\pdl\middleware\ble/cy_ble_event_handler.h ****      *  Notification was received. The parameter of this event
1270:Generated_Source\PSoC6\pdl\middleware\ble/cy_ble_event_handler.h ****      *  is a structure of the cy_stc_ble_hps_char_value_t type.
1271:Generated_Source\PSoC6\pdl\middleware\ble/cy_ble_event_handler.h ****      */
1272:Generated_Source\PSoC6\pdl\middleware\ble/cy_ble_event_handler.h ****     CY_BLE_EVT_HPSC_NOTIFICATION,
1273:Generated_Source\PSoC6\pdl\middleware\ble/cy_ble_event_handler.h **** 
1274:Generated_Source\PSoC6\pdl\middleware\ble/cy_ble_event_handler.h ****     /** HPS Client - Read Response for Read Request of HTTP Proxy
1275:Generated_Source\PSoC6\pdl\middleware\ble/cy_ble_event_handler.h ****      *  Service Characteristic value. The parameter of this event
1276:Generated_Source\PSoC6\pdl\middleware\ble/cy_ble_event_handler.h ****      *  is a structure of the cy_stc_ble_hps_char_value_t type.
1277:Generated_Source\PSoC6\pdl\middleware\ble/cy_ble_event_handler.h ****      */
1278:Generated_Source\PSoC6\pdl\middleware\ble/cy_ble_event_handler.h ****     CY_BLE_EVT_HPSC_READ_CHAR_RESPONSE,
1279:Generated_Source\PSoC6\pdl\middleware\ble/cy_ble_event_handler.h **** 
1280:Generated_Source\PSoC6\pdl\middleware\ble/cy_ble_event_handler.h ****     /** HPS Client - Read Response for Read Request of HTTP Proxy
1281:Generated_Source\PSoC6\pdl\middleware\ble/cy_ble_event_handler.h ****      *  Service Characteristic Descriptor Read request. The
1282:Generated_Source\PSoC6\pdl\middleware\ble/cy_ble_event_handler.h ****      *  parameter of this event is a structure of
1283:Generated_Source\PSoC6\pdl\middleware\ble/cy_ble_event_handler.h ****      *  the cy_stc_ble_hps_descr_value_t type.
1284:Generated_Source\PSoC6\pdl\middleware\ble/cy_ble_event_handler.h ****      */
1285:Generated_Source\PSoC6\pdl\middleware\ble/cy_ble_event_handler.h ****     CY_BLE_EVT_HPSC_READ_DESCR_RESPONSE,
1286:Generated_Source\PSoC6\pdl\middleware\ble/cy_ble_event_handler.h **** 
ARM GAS  C:\Users\Brian\AppData\Local\Temp\ccRcp4rf.s 			page 31


1287:Generated_Source\PSoC6\pdl\middleware\ble/cy_ble_event_handler.h ****     /** HPS Client - Write Response for Write Request of HTTP Proxy
1288:Generated_Source\PSoC6\pdl\middleware\ble/cy_ble_event_handler.h ****      *  Service Characteristic Configuration Descriptor value.
1289:Generated_Source\PSoC6\pdl\middleware\ble/cy_ble_event_handler.h ****      *  The parameter of this event is a structure of
1290:Generated_Source\PSoC6\pdl\middleware\ble/cy_ble_event_handler.h ****      *  the cy_stc_ble_hps_descr_value_t type.
1291:Generated_Source\PSoC6\pdl\middleware\ble/cy_ble_event_handler.h ****      */
1292:Generated_Source\PSoC6\pdl\middleware\ble/cy_ble_event_handler.h ****     CY_BLE_EVT_HPSC_WRITE_DESCR_RESPONSE,
1293:Generated_Source\PSoC6\pdl\middleware\ble/cy_ble_event_handler.h **** 
1294:Generated_Source\PSoC6\pdl\middleware\ble/cy_ble_event_handler.h ****     /** HPS Client - Write Response for Write Request of HPS
1295:Generated_Source\PSoC6\pdl\middleware\ble/cy_ble_event_handler.h ****      *  Service Characteristic value. The parameter of this event
1296:Generated_Source\PSoC6\pdl\middleware\ble/cy_ble_event_handler.h ****      *  is a structure of the cy_stc_ble_hps_char_value_t type.
1297:Generated_Source\PSoC6\pdl\middleware\ble/cy_ble_event_handler.h ****      */
1298:Generated_Source\PSoC6\pdl\middleware\ble/cy_ble_event_handler.h ****     CY_BLE_EVT_HPSC_WRITE_CHAR_RESPONSE,
1299:Generated_Source\PSoC6\pdl\middleware\ble/cy_ble_event_handler.h **** 
1300:Generated_Source\PSoC6\pdl\middleware\ble/cy_ble_event_handler.h ****     /****************************************
1301:Generated_Source\PSoC6\pdl\middleware\ble/cy_ble_event_handler.h ****      * HRS Service Events
1302:Generated_Source\PSoC6\pdl\middleware\ble/cy_ble_event_handler.h ****      ***************************************/
1303:Generated_Source\PSoC6\pdl\middleware\ble/cy_ble_event_handler.h **** 
1304:Generated_Source\PSoC6\pdl\middleware\ble/cy_ble_event_handler.h ****     /** HRS Server - Reset Energy Expended. The parameter of
1305:Generated_Source\PSoC6\pdl\middleware\ble/cy_ble_event_handler.h ****      *  this event is a structure of the cy_stc_ble_hrs_char_value_t type.
1306:Generated_Source\PSoC6\pdl\middleware\ble/cy_ble_event_handler.h ****      */
1307:Generated_Source\PSoC6\pdl\middleware\ble/cy_ble_event_handler.h ****     CY_BLE_EVT_HRSS_ENERGY_EXPENDED_RESET,
1308:Generated_Source\PSoC6\pdl\middleware\ble/cy_ble_event_handler.h **** 
1309:Generated_Source\PSoC6\pdl\middleware\ble/cy_ble_event_handler.h ****     /** HRS Server - Notification for Heart Rate Measurement
1310:Generated_Source\PSoC6\pdl\middleware\ble/cy_ble_event_handler.h ****      *  Characteristic was enabled. The parameter of this
1311:Generated_Source\PSoC6\pdl\middleware\ble/cy_ble_event_handler.h ****      *  event is a structure of the cy_stc_ble_hrs_char_value_t type.
1312:Generated_Source\PSoC6\pdl\middleware\ble/cy_ble_event_handler.h ****      */
1313:Generated_Source\PSoC6\pdl\middleware\ble/cy_ble_event_handler.h **** 
1314:Generated_Source\PSoC6\pdl\middleware\ble/cy_ble_event_handler.h ****     CY_BLE_EVT_HRSS_NOTIFICATION_ENABLED,
1315:Generated_Source\PSoC6\pdl\middleware\ble/cy_ble_event_handler.h **** 
1316:Generated_Source\PSoC6\pdl\middleware\ble/cy_ble_event_handler.h ****     /** HRS Server - Notification for Heart Rate Measurement
1317:Generated_Source\PSoC6\pdl\middleware\ble/cy_ble_event_handler.h ****      *  Characteristic was disabled. The parameter of this
1318:Generated_Source\PSoC6\pdl\middleware\ble/cy_ble_event_handler.h ****      *  event is a structure of the cy_stc_ble_hrs_char_value_t type.
1319:Generated_Source\PSoC6\pdl\middleware\ble/cy_ble_event_handler.h ****      */
1320:Generated_Source\PSoC6\pdl\middleware\ble/cy_ble_event_handler.h ****     CY_BLE_EVT_HRSS_NOTIFICATION_DISABLED,
1321:Generated_Source\PSoC6\pdl\middleware\ble/cy_ble_event_handler.h **** 
1322:Generated_Source\PSoC6\pdl\middleware\ble/cy_ble_event_handler.h ****     /** HRS Client - Heart Rate Measurement Characteristic
1323:Generated_Source\PSoC6\pdl\middleware\ble/cy_ble_event_handler.h ****      *  Notification was received. The parameter of this event
1324:Generated_Source\PSoC6\pdl\middleware\ble/cy_ble_event_handler.h ****      *  is a structure of the cy_stc_ble_hrs_char_value_t type.
1325:Generated_Source\PSoC6\pdl\middleware\ble/cy_ble_event_handler.h ****      */
1326:Generated_Source\PSoC6\pdl\middleware\ble/cy_ble_event_handler.h ****     CY_BLE_EVT_HRSC_NOTIFICATION,
1327:Generated_Source\PSoC6\pdl\middleware\ble/cy_ble_event_handler.h **** 
1328:Generated_Source\PSoC6\pdl\middleware\ble/cy_ble_event_handler.h ****     /** HRS Client - Read Response for Read Request of HRS
1329:Generated_Source\PSoC6\pdl\middleware\ble/cy_ble_event_handler.h ****      *  Service Characteristic value. The parameter of this event
1330:Generated_Source\PSoC6\pdl\middleware\ble/cy_ble_event_handler.h ****      *  is a structure of the cy_stc_ble_hrs_char_value_t type.
1331:Generated_Source\PSoC6\pdl\middleware\ble/cy_ble_event_handler.h ****      */
1332:Generated_Source\PSoC6\pdl\middleware\ble/cy_ble_event_handler.h ****     CY_BLE_EVT_HRSC_READ_CHAR_RESPONSE,
1333:Generated_Source\PSoC6\pdl\middleware\ble/cy_ble_event_handler.h **** 
1334:Generated_Source\PSoC6\pdl\middleware\ble/cy_ble_event_handler.h ****     /** HRS Client - Write Response for Write Request of HRS
1335:Generated_Source\PSoC6\pdl\middleware\ble/cy_ble_event_handler.h ****      *  Service Characteristic value. The parameter of this event
1336:Generated_Source\PSoC6\pdl\middleware\ble/cy_ble_event_handler.h ****      *  is a structure of the cy_stc_ble_hrs_char_value_t type.
1337:Generated_Source\PSoC6\pdl\middleware\ble/cy_ble_event_handler.h ****      */
1338:Generated_Source\PSoC6\pdl\middleware\ble/cy_ble_event_handler.h ****     CY_BLE_EVT_HRSC_WRITE_CHAR_RESPONSE,
1339:Generated_Source\PSoC6\pdl\middleware\ble/cy_ble_event_handler.h **** 
1340:Generated_Source\PSoC6\pdl\middleware\ble/cy_ble_event_handler.h ****     /** HRS Client - Read Response for Read Request of HRS
1341:Generated_Source\PSoC6\pdl\middleware\ble/cy_ble_event_handler.h ****      *  Service Characteristic Descriptor Read request. The
1342:Generated_Source\PSoC6\pdl\middleware\ble/cy_ble_event_handler.h ****      *  parameter of this event is a structure of
1343:Generated_Source\PSoC6\pdl\middleware\ble/cy_ble_event_handler.h ****      *  the cy_stc_ble_hrs_char_value_t type.
ARM GAS  C:\Users\Brian\AppData\Local\Temp\ccRcp4rf.s 			page 32


1344:Generated_Source\PSoC6\pdl\middleware\ble/cy_ble_event_handler.h ****      */
1345:Generated_Source\PSoC6\pdl\middleware\ble/cy_ble_event_handler.h ****     CY_BLE_EVT_HRSC_READ_DESCR_RESPONSE,
1346:Generated_Source\PSoC6\pdl\middleware\ble/cy_ble_event_handler.h **** 
1347:Generated_Source\PSoC6\pdl\middleware\ble/cy_ble_event_handler.h ****     /** HRS Client - Write Response for Write Request of HRS
1348:Generated_Source\PSoC6\pdl\middleware\ble/cy_ble_event_handler.h ****      *  Service Characteristic Configuration Descriptor value.
1349:Generated_Source\PSoC6\pdl\middleware\ble/cy_ble_event_handler.h ****      *  The parameter of this event is a structure of
1350:Generated_Source\PSoC6\pdl\middleware\ble/cy_ble_event_handler.h ****      *  the cy_stc_ble_hrs_char_value_t type.
1351:Generated_Source\PSoC6\pdl\middleware\ble/cy_ble_event_handler.h ****      */
1352:Generated_Source\PSoC6\pdl\middleware\ble/cy_ble_event_handler.h ****     CY_BLE_EVT_HRSC_WRITE_DESCR_RESPONSE,
1353:Generated_Source\PSoC6\pdl\middleware\ble/cy_ble_event_handler.h **** 
1354:Generated_Source\PSoC6\pdl\middleware\ble/cy_ble_event_handler.h **** 
1355:Generated_Source\PSoC6\pdl\middleware\ble/cy_ble_event_handler.h ****     /****************************************
1356:Generated_Source\PSoC6\pdl\middleware\ble/cy_ble_event_handler.h ****      * HTS Service Events
1357:Generated_Source\PSoC6\pdl\middleware\ble/cy_ble_event_handler.h ****      ***************************************/
1358:Generated_Source\PSoC6\pdl\middleware\ble/cy_ble_event_handler.h **** 
1359:Generated_Source\PSoC6\pdl\middleware\ble/cy_ble_event_handler.h ****     /** HTS Server - Notification for Health Thermometer Service Characteristic
1360:Generated_Source\PSoC6\pdl\middleware\ble/cy_ble_event_handler.h ****      *  was enabled. The parameter of this event is a structure of
1361:Generated_Source\PSoC6\pdl\middleware\ble/cy_ble_event_handler.h ****      *  the cy_stc_ble_hts_char_value_t type.
1362:Generated_Source\PSoC6\pdl\middleware\ble/cy_ble_event_handler.h ****      */
1363:Generated_Source\PSoC6\pdl\middleware\ble/cy_ble_event_handler.h ****     CY_BLE_EVT_HTSS_NOTIFICATION_ENABLED,
1364:Generated_Source\PSoC6\pdl\middleware\ble/cy_ble_event_handler.h **** 
1365:Generated_Source\PSoC6\pdl\middleware\ble/cy_ble_event_handler.h ****     /** HTS Server - Notification for Health Thermometer Service Characteristic
1366:Generated_Source\PSoC6\pdl\middleware\ble/cy_ble_event_handler.h ****      *  was disabled. The parameter of this event is a structure
1367:Generated_Source\PSoC6\pdl\middleware\ble/cy_ble_event_handler.h ****      *  of the cy_stc_ble_hts_char_value_t type.
1368:Generated_Source\PSoC6\pdl\middleware\ble/cy_ble_event_handler.h ****      */
1369:Generated_Source\PSoC6\pdl\middleware\ble/cy_ble_event_handler.h ****     CY_BLE_EVT_HTSS_NOTIFICATION_DISABLED,
1370:Generated_Source\PSoC6\pdl\middleware\ble/cy_ble_event_handler.h **** 
1371:Generated_Source\PSoC6\pdl\middleware\ble/cy_ble_event_handler.h ****     /** HTS Server - Indication for Health Thermometer Service Characteristic
1372:Generated_Source\PSoC6\pdl\middleware\ble/cy_ble_event_handler.h ****      *  was enabled. The parameter of this event is a structure
1373:Generated_Source\PSoC6\pdl\middleware\ble/cy_ble_event_handler.h ****      *  of the cy_stc_ble_hts_char_value_t type.
1374:Generated_Source\PSoC6\pdl\middleware\ble/cy_ble_event_handler.h ****      */
1375:Generated_Source\PSoC6\pdl\middleware\ble/cy_ble_event_handler.h ****     CY_BLE_EVT_HTSS_INDICATION_ENABLED,
1376:Generated_Source\PSoC6\pdl\middleware\ble/cy_ble_event_handler.h **** 
1377:Generated_Source\PSoC6\pdl\middleware\ble/cy_ble_event_handler.h ****     /** HTS Server - Indication for Health Thermometer Service Characteristic
1378:Generated_Source\PSoC6\pdl\middleware\ble/cy_ble_event_handler.h ****      *  was disabled. The parameter of this event is a structure
1379:Generated_Source\PSoC6\pdl\middleware\ble/cy_ble_event_handler.h ****      *  of the cy_stc_ble_hts_char_value_t type.
1380:Generated_Source\PSoC6\pdl\middleware\ble/cy_ble_event_handler.h ****      */
1381:Generated_Source\PSoC6\pdl\middleware\ble/cy_ble_event_handler.h ****     CY_BLE_EVT_HTSS_INDICATION_DISABLED,
1382:Generated_Source\PSoC6\pdl\middleware\ble/cy_ble_event_handler.h **** 
1383:Generated_Source\PSoC6\pdl\middleware\ble/cy_ble_event_handler.h ****     /** HTS Server - Health Thermometer Service Characteristic
1384:Generated_Source\PSoC6\pdl\middleware\ble/cy_ble_event_handler.h ****      *  Indication was confirmed. The parameter of this event
1385:Generated_Source\PSoC6\pdl\middleware\ble/cy_ble_event_handler.h ****      *  is a structure of the cy_stc_ble_hts_char_value_t type.
1386:Generated_Source\PSoC6\pdl\middleware\ble/cy_ble_event_handler.h ****      */
1387:Generated_Source\PSoC6\pdl\middleware\ble/cy_ble_event_handler.h ****     CY_BLE_EVT_HTSS_INDICATION_CONFIRMED,
1388:Generated_Source\PSoC6\pdl\middleware\ble/cy_ble_event_handler.h **** 
1389:Generated_Source\PSoC6\pdl\middleware\ble/cy_ble_event_handler.h ****     /** HTS Server - Write Request for Health Thermometer Service Characteristic
1390:Generated_Source\PSoC6\pdl\middleware\ble/cy_ble_event_handler.h ****      *  was received. The parameter of this event is a structure
1391:Generated_Source\PSoC6\pdl\middleware\ble/cy_ble_event_handler.h ****      *  of the cy_stc_ble_hts_char_value_t type.
1392:Generated_Source\PSoC6\pdl\middleware\ble/cy_ble_event_handler.h ****      */
1393:Generated_Source\PSoC6\pdl\middleware\ble/cy_ble_event_handler.h ****     CY_BLE_EVT_HTSS_WRITE_CHAR,
1394:Generated_Source\PSoC6\pdl\middleware\ble/cy_ble_event_handler.h **** 
1395:Generated_Source\PSoC6\pdl\middleware\ble/cy_ble_event_handler.h ****     /** HTS Client - Health Thermometer Service Characteristic
1396:Generated_Source\PSoC6\pdl\middleware\ble/cy_ble_event_handler.h ****      *  Notification was received. The parameter of this event
1397:Generated_Source\PSoC6\pdl\middleware\ble/cy_ble_event_handler.h ****      *  is a structure of the cy_stc_ble_hts_char_value_t type.
1398:Generated_Source\PSoC6\pdl\middleware\ble/cy_ble_event_handler.h ****      */
1399:Generated_Source\PSoC6\pdl\middleware\ble/cy_ble_event_handler.h ****     CY_BLE_EVT_HTSC_NOTIFICATION,
1400:Generated_Source\PSoC6\pdl\middleware\ble/cy_ble_event_handler.h **** 
ARM GAS  C:\Users\Brian\AppData\Local\Temp\ccRcp4rf.s 			page 33


1401:Generated_Source\PSoC6\pdl\middleware\ble/cy_ble_event_handler.h ****     /** HTS Client - Health Thermometer Service Characteristic
1402:Generated_Source\PSoC6\pdl\middleware\ble/cy_ble_event_handler.h ****      *  Indication was received. The parameter of this event
1403:Generated_Source\PSoC6\pdl\middleware\ble/cy_ble_event_handler.h ****      *  is a structure of the cy_stc_ble_hts_char_value_t type.
1404:Generated_Source\PSoC6\pdl\middleware\ble/cy_ble_event_handler.h ****      */
1405:Generated_Source\PSoC6\pdl\middleware\ble/cy_ble_event_handler.h ****     CY_BLE_EVT_HTSC_INDICATION,
1406:Generated_Source\PSoC6\pdl\middleware\ble/cy_ble_event_handler.h **** 
1407:Generated_Source\PSoC6\pdl\middleware\ble/cy_ble_event_handler.h ****     /** HTS Client - Read Response for Read Request of Health Thermometer
1408:Generated_Source\PSoC6\pdl\middleware\ble/cy_ble_event_handler.h ****      *  Service Characteristic value. The parameter of this event
1409:Generated_Source\PSoC6\pdl\middleware\ble/cy_ble_event_handler.h ****      *  is a structure of the cy_stc_ble_hts_char_value_t type.
1410:Generated_Source\PSoC6\pdl\middleware\ble/cy_ble_event_handler.h ****      */
1411:Generated_Source\PSoC6\pdl\middleware\ble/cy_ble_event_handler.h ****     CY_BLE_EVT_HTSC_READ_CHAR_RESPONSE,
1412:Generated_Source\PSoC6\pdl\middleware\ble/cy_ble_event_handler.h **** 
1413:Generated_Source\PSoC6\pdl\middleware\ble/cy_ble_event_handler.h ****     /** HTS Client - Write Response for Write Request of Health Thermometer
1414:Generated_Source\PSoC6\pdl\middleware\ble/cy_ble_event_handler.h ****      *  Service Characteristic value. The parameter of this event
1415:Generated_Source\PSoC6\pdl\middleware\ble/cy_ble_event_handler.h ****      *  is a structure of the cy_stc_ble_hts_char_value_t type.
1416:Generated_Source\PSoC6\pdl\middleware\ble/cy_ble_event_handler.h ****      */
1417:Generated_Source\PSoC6\pdl\middleware\ble/cy_ble_event_handler.h ****     CY_BLE_EVT_HTSC_WRITE_CHAR_RESPONSE,
1418:Generated_Source\PSoC6\pdl\middleware\ble/cy_ble_event_handler.h **** 
1419:Generated_Source\PSoC6\pdl\middleware\ble/cy_ble_event_handler.h ****     /** HTS Client - Read Response for Read Request of Health Thermometer
1420:Generated_Source\PSoC6\pdl\middleware\ble/cy_ble_event_handler.h ****      *  Service Characteristic Descriptor Read request. The
1421:Generated_Source\PSoC6\pdl\middleware\ble/cy_ble_event_handler.h ****      *  parameter of this event is a structure of
1422:Generated_Source\PSoC6\pdl\middleware\ble/cy_ble_event_handler.h ****      *  the cy_stc_ble_hts_descr_value_t type.
1423:Generated_Source\PSoC6\pdl\middleware\ble/cy_ble_event_handler.h ****      */
1424:Generated_Source\PSoC6\pdl\middleware\ble/cy_ble_event_handler.h ****     CY_BLE_EVT_HTSC_READ_DESCR_RESPONSE,
1425:Generated_Source\PSoC6\pdl\middleware\ble/cy_ble_event_handler.h **** 
1426:Generated_Source\PSoC6\pdl\middleware\ble/cy_ble_event_handler.h ****     /** HTS Client - Write Response for Write Request of Health Thermometer
1427:Generated_Source\PSoC6\pdl\middleware\ble/cy_ble_event_handler.h ****      *  Service Characteristic Configuration Descriptor value.
1428:Generated_Source\PSoC6\pdl\middleware\ble/cy_ble_event_handler.h ****      *  The parameter of this event is a structure of
1429:Generated_Source\PSoC6\pdl\middleware\ble/cy_ble_event_handler.h ****      *  the cy_stc_ble_hts_descr_value_t type.
1430:Generated_Source\PSoC6\pdl\middleware\ble/cy_ble_event_handler.h ****      */
1431:Generated_Source\PSoC6\pdl\middleware\ble/cy_ble_event_handler.h ****     CY_BLE_EVT_HTSC_WRITE_DESCR_RESPONSE,
1432:Generated_Source\PSoC6\pdl\middleware\ble/cy_ble_event_handler.h **** 
1433:Generated_Source\PSoC6\pdl\middleware\ble/cy_ble_event_handler.h **** 
1434:Generated_Source\PSoC6\pdl\middleware\ble/cy_ble_event_handler.h ****     /****************************************
1435:Generated_Source\PSoC6\pdl\middleware\ble/cy_ble_event_handler.h ****      * Immediate Alert Service Events
1436:Generated_Source\PSoC6\pdl\middleware\ble/cy_ble_event_handler.h ****      ***************************************/
1437:Generated_Source\PSoC6\pdl\middleware\ble/cy_ble_event_handler.h **** 
1438:Generated_Source\PSoC6\pdl\middleware\ble/cy_ble_event_handler.h ****     /** IAS Server - Write Command Request for Alert Level
1439:Generated_Source\PSoC6\pdl\middleware\ble/cy_ble_event_handler.h ****      *  Characteristic. The parameter of this event
1440:Generated_Source\PSoC6\pdl\middleware\ble/cy_ble_event_handler.h ****      *  is a structure of the cy_stc_ble_ias_char_value_t type.
1441:Generated_Source\PSoC6\pdl\middleware\ble/cy_ble_event_handler.h ****      */
1442:Generated_Source\PSoC6\pdl\middleware\ble/cy_ble_event_handler.h ****     CY_BLE_EVT_IASS_WRITE_CHAR_CMD,
1443:Generated_Source\PSoC6\pdl\middleware\ble/cy_ble_event_handler.h **** 
1444:Generated_Source\PSoC6\pdl\middleware\ble/cy_ble_event_handler.h ****     /****************************************
1445:Generated_Source\PSoC6\pdl\middleware\ble/cy_ble_event_handler.h ****      * Indoor Positioning Service Events
1446:Generated_Source\PSoC6\pdl\middleware\ble/cy_ble_event_handler.h ****      ***************************************/
1447:Generated_Source\PSoC6\pdl\middleware\ble/cy_ble_event_handler.h **** 
1448:Generated_Source\PSoC6\pdl\middleware\ble/cy_ble_event_handler.h ****     /** IPS Server - Read Request for Indoor Positioning Service Characteristic
1449:Generated_Source\PSoC6\pdl\middleware\ble/cy_ble_event_handler.h ****      *  was received. The parameter of this event is a structure
1450:Generated_Source\PSoC6\pdl\middleware\ble/cy_ble_event_handler.h ****      *  of the cy_stc_ble_ips_char_value_t type.
1451:Generated_Source\PSoC6\pdl\middleware\ble/cy_ble_event_handler.h ****      */
1452:Generated_Source\PSoC6\pdl\middleware\ble/cy_ble_event_handler.h ****     CY_BLE_EVT_IPSS_READ_CHAR,
1453:Generated_Source\PSoC6\pdl\middleware\ble/cy_ble_event_handler.h **** 
1454:Generated_Source\PSoC6\pdl\middleware\ble/cy_ble_event_handler.h ****     /** IPS Server - Write Request for Indoor Positioning Service Characteristic
1455:Generated_Source\PSoC6\pdl\middleware\ble/cy_ble_event_handler.h ****      *  was received. The parameter of this event is a structure
1456:Generated_Source\PSoC6\pdl\middleware\ble/cy_ble_event_handler.h ****      *  of cy_stc_ble_ips_char_value_t type.
1457:Generated_Source\PSoC6\pdl\middleware\ble/cy_ble_event_handler.h ****      */
ARM GAS  C:\Users\Brian\AppData\Local\Temp\ccRcp4rf.s 			page 34


1458:Generated_Source\PSoC6\pdl\middleware\ble/cy_ble_event_handler.h ****     CY_BLE_EVT_IPSS_WRITE_CHAR,
1459:Generated_Source\PSoC6\pdl\middleware\ble/cy_ble_event_handler.h **** 
1460:Generated_Source\PSoC6\pdl\middleware\ble/cy_ble_event_handler.h ****     /** IPS Server - Write command request for Indoor Positioning Service
1461:Generated_Source\PSoC6\pdl\middleware\ble/cy_ble_event_handler.h ****      *  Characteristic. The parameter of this event
1462:Generated_Source\PSoC6\pdl\middleware\ble/cy_ble_event_handler.h ****      *  is a structure of the cy_stc_ble_ips_char_value_t type.
1463:Generated_Source\PSoC6\pdl\middleware\ble/cy_ble_event_handler.h ****      */
1464:Generated_Source\PSoC6\pdl\middleware\ble/cy_ble_event_handler.h ****     CY_BLE_EVT_IPSS_WRITE_CHAR_CMD,
1465:Generated_Source\PSoC6\pdl\middleware\ble/cy_ble_event_handler.h **** 
1466:Generated_Source\PSoC6\pdl\middleware\ble/cy_ble_event_handler.h ****     /** IPS Client - Read Response for Read Request of Indoor Positioning
1467:Generated_Source\PSoC6\pdl\middleware\ble/cy_ble_event_handler.h ****      *  Service Characteristic value. The parameter of this event
1468:Generated_Source\PSoC6\pdl\middleware\ble/cy_ble_event_handler.h ****      *  is a structure of the cy_stc_ble_ips_char_value_t type.
1469:Generated_Source\PSoC6\pdl\middleware\ble/cy_ble_event_handler.h ****      */
1470:Generated_Source\PSoC6\pdl\middleware\ble/cy_ble_event_handler.h ****     CY_BLE_EVT_IPSC_READ_CHAR_RESPONSE,
1471:Generated_Source\PSoC6\pdl\middleware\ble/cy_ble_event_handler.h **** 
1472:Generated_Source\PSoC6\pdl\middleware\ble/cy_ble_event_handler.h ****     /** IPS Client - Read Multiple Response for Read Multiple Request of
1473:Generated_Source\PSoC6\pdl\middleware\ble/cy_ble_event_handler.h ****      *  Indoor Positioning Service Characteristic value. The parameter
1474:Generated_Source\PSoC6\pdl\middleware\ble/cy_ble_event_handler.h ****      *  of this event is a structure of the cy_stc_ble_ips_char_value_t type.
1475:Generated_Source\PSoC6\pdl\middleware\ble/cy_ble_event_handler.h ****      */
1476:Generated_Source\PSoC6\pdl\middleware\ble/cy_ble_event_handler.h ****     CY_BLE_EVT_IPSC_READ_MULTIPLE_CHAR_RESPONSE,
1477:Generated_Source\PSoC6\pdl\middleware\ble/cy_ble_event_handler.h **** 
1478:Generated_Source\PSoC6\pdl\middleware\ble/cy_ble_event_handler.h ****     /** IPS Client - Write Response for Write Request of Indoor Positioning
1479:Generated_Source\PSoC6\pdl\middleware\ble/cy_ble_event_handler.h ****      *  Service Characteristic value. The parameter of this event
1480:Generated_Source\PSoC6\pdl\middleware\ble/cy_ble_event_handler.h ****      *  is a structure of the cy_stc_ble_ips_char_value_t type.
1481:Generated_Source\PSoC6\pdl\middleware\ble/cy_ble_event_handler.h ****      */
1482:Generated_Source\PSoC6\pdl\middleware\ble/cy_ble_event_handler.h ****     CY_BLE_EVT_IPSC_WRITE_CHAR_RESPONSE,
1483:Generated_Source\PSoC6\pdl\middleware\ble/cy_ble_event_handler.h **** 
1484:Generated_Source\PSoC6\pdl\middleware\ble/cy_ble_event_handler.h ****     /** IPS Client - Read Response for Read Request of Indoor Positioning
1485:Generated_Source\PSoC6\pdl\middleware\ble/cy_ble_event_handler.h ****      *  Service Characteristic Descriptor Read request. The
1486:Generated_Source\PSoC6\pdl\middleware\ble/cy_ble_event_handler.h ****      *  parameter of this event is a structure of
1487:Generated_Source\PSoC6\pdl\middleware\ble/cy_ble_event_handler.h ****      *  the cy_stc_ble_ips_descr_value_t type.
1488:Generated_Source\PSoC6\pdl\middleware\ble/cy_ble_event_handler.h ****      */
1489:Generated_Source\PSoC6\pdl\middleware\ble/cy_ble_event_handler.h ****     CY_BLE_EVT_IPSC_READ_DESCR_RESPONSE,
1490:Generated_Source\PSoC6\pdl\middleware\ble/cy_ble_event_handler.h **** 
1491:Generated_Source\PSoC6\pdl\middleware\ble/cy_ble_event_handler.h ****     /** IPS Client - Write Response for Write Request of Indoor Positioning
1492:Generated_Source\PSoC6\pdl\middleware\ble/cy_ble_event_handler.h ****      *  Service Characteristic Configuration Descriptor value.
1493:Generated_Source\PSoC6\pdl\middleware\ble/cy_ble_event_handler.h ****      *  The parameter of this event is a structure of
1494:Generated_Source\PSoC6\pdl\middleware\ble/cy_ble_event_handler.h ****      *  the cy_stc_ble_ips_descr_value_t type.
1495:Generated_Source\PSoC6\pdl\middleware\ble/cy_ble_event_handler.h ****      */
1496:Generated_Source\PSoC6\pdl\middleware\ble/cy_ble_event_handler.h ****     CY_BLE_EVT_IPSC_WRITE_DESCR_RESPONSE,
1497:Generated_Source\PSoC6\pdl\middleware\ble/cy_ble_event_handler.h **** 
1498:Generated_Source\PSoC6\pdl\middleware\ble/cy_ble_event_handler.h ****     /** IPS Client - Error Response for Write Request for Indoor Positioning
1499:Generated_Source\PSoC6\pdl\middleware\ble/cy_ble_event_handler.h ****      *  Service Characteristic Value. The parameter of this event is a structure of
1500:Generated_Source\PSoC6\pdl\middleware\ble/cy_ble_event_handler.h ****      *  the cy_stc_ble_ips_char_value_t type.
1501:Generated_Source\PSoC6\pdl\middleware\ble/cy_ble_event_handler.h ****      */
1502:Generated_Source\PSoC6\pdl\middleware\ble/cy_ble_event_handler.h ****     CY_BLE_EVT_IPSC_ERROR_RESPONSE,
1503:Generated_Source\PSoC6\pdl\middleware\ble/cy_ble_event_handler.h **** 
1504:Generated_Source\PSoC6\pdl\middleware\ble/cy_ble_event_handler.h ****     /** IPS Client - Read Response for Long Read Request of Indoor Positioning
1505:Generated_Source\PSoC6\pdl\middleware\ble/cy_ble_event_handler.h ****      *  Service Characteristic value. The parameter of this event
1506:Generated_Source\PSoC6\pdl\middleware\ble/cy_ble_event_handler.h ****      *  is a structure of the cy_stc_ble_ips_char_value_t type.
1507:Generated_Source\PSoC6\pdl\middleware\ble/cy_ble_event_handler.h ****      */
1508:Generated_Source\PSoC6\pdl\middleware\ble/cy_ble_event_handler.h ****     CY_BLE_EVT_IPSC_READ_BLOB_RSP,
1509:Generated_Source\PSoC6\pdl\middleware\ble/cy_ble_event_handler.h **** 
1510:Generated_Source\PSoC6\pdl\middleware\ble/cy_ble_event_handler.h ****     /****************************************
1511:Generated_Source\PSoC6\pdl\middleware\ble/cy_ble_event_handler.h ****      * Link Loss Service Events
1512:Generated_Source\PSoC6\pdl\middleware\ble/cy_ble_event_handler.h ****      ***************************************/
1513:Generated_Source\PSoC6\pdl\middleware\ble/cy_ble_event_handler.h **** 
1514:Generated_Source\PSoC6\pdl\middleware\ble/cy_ble_event_handler.h ****     /** LLS Server - Write request for Alert Level Characteristic.
ARM GAS  C:\Users\Brian\AppData\Local\Temp\ccRcp4rf.s 			page 35


1515:Generated_Source\PSoC6\pdl\middleware\ble/cy_ble_event_handler.h ****      *  The parameter of this event is a structure of
1516:Generated_Source\PSoC6\pdl\middleware\ble/cy_ble_event_handler.h ****      *  the cy_stc_ble_lls_char_value_t type.
1517:Generated_Source\PSoC6\pdl\middleware\ble/cy_ble_event_handler.h ****      */
1518:Generated_Source\PSoC6\pdl\middleware\ble/cy_ble_event_handler.h ****     CY_BLE_EVT_LLSS_WRITE_CHAR_REQ,
1519:Generated_Source\PSoC6\pdl\middleware\ble/cy_ble_event_handler.h **** 
1520:Generated_Source\PSoC6\pdl\middleware\ble/cy_ble_event_handler.h ****     /** LLS Client - Read response for Alert Level Characteristic.
1521:Generated_Source\PSoC6\pdl\middleware\ble/cy_ble_event_handler.h ****      *  The parameter of this event is a structure of
1522:Generated_Source\PSoC6\pdl\middleware\ble/cy_ble_event_handler.h ****      *  the cy_stc_ble_lls_char_value_t type.
1523:Generated_Source\PSoC6\pdl\middleware\ble/cy_ble_event_handler.h ****      */
1524:Generated_Source\PSoC6\pdl\middleware\ble/cy_ble_event_handler.h ****     CY_BLE_EVT_LLSC_READ_CHAR_RESPONSE,
1525:Generated_Source\PSoC6\pdl\middleware\ble/cy_ble_event_handler.h **** 
1526:Generated_Source\PSoC6\pdl\middleware\ble/cy_ble_event_handler.h ****     /** LLS Client - Write response for write request of Alert
1527:Generated_Source\PSoC6\pdl\middleware\ble/cy_ble_event_handler.h ****      *  Level Characteristic. The parameter of this event is a
1528:Generated_Source\PSoC6\pdl\middleware\ble/cy_ble_event_handler.h ****      *  structure of the cy_stc_ble_lls_char_value_t type.
1529:Generated_Source\PSoC6\pdl\middleware\ble/cy_ble_event_handler.h ****      */
1530:Generated_Source\PSoC6\pdl\middleware\ble/cy_ble_event_handler.h ****     CY_BLE_EVT_LLSC_WRITE_CHAR_RESPONSE,
1531:Generated_Source\PSoC6\pdl\middleware\ble/cy_ble_event_handler.h **** 
1532:Generated_Source\PSoC6\pdl\middleware\ble/cy_ble_event_handler.h **** 
1533:Generated_Source\PSoC6\pdl\middleware\ble/cy_ble_event_handler.h ****     /****************************************
1534:Generated_Source\PSoC6\pdl\middleware\ble/cy_ble_event_handler.h ****      * Location and Navigation Service Events
1535:Generated_Source\PSoC6\pdl\middleware\ble/cy_ble_event_handler.h ****      ***************************************/
1536:Generated_Source\PSoC6\pdl\middleware\ble/cy_ble_event_handler.h **** 
1537:Generated_Source\PSoC6\pdl\middleware\ble/cy_ble_event_handler.h ****     /** LNS Server - Indication for Location and Navigation Service Characteristic
1538:Generated_Source\PSoC6\pdl\middleware\ble/cy_ble_event_handler.h ****      *  was enabled. The parameter of this event is a structure
1539:Generated_Source\PSoC6\pdl\middleware\ble/cy_ble_event_handler.h ****      *  of the cy_stc_ble_lns_char_value_t type.
1540:Generated_Source\PSoC6\pdl\middleware\ble/cy_ble_event_handler.h ****      */
1541:Generated_Source\PSoC6\pdl\middleware\ble/cy_ble_event_handler.h ****     CY_BLE_EVT_LNSS_INDICATION_ENABLED,
1542:Generated_Source\PSoC6\pdl\middleware\ble/cy_ble_event_handler.h **** 
1543:Generated_Source\PSoC6\pdl\middleware\ble/cy_ble_event_handler.h ****     /** LNS Server - Indication for Location and Navigation Service Characteristic
1544:Generated_Source\PSoC6\pdl\middleware\ble/cy_ble_event_handler.h ****      *  was disabled. The parameter of this event is a structure
1545:Generated_Source\PSoC6\pdl\middleware\ble/cy_ble_event_handler.h ****      *  of the cy_stc_ble_lns_char_value_t type.
1546:Generated_Source\PSoC6\pdl\middleware\ble/cy_ble_event_handler.h ****      */
1547:Generated_Source\PSoC6\pdl\middleware\ble/cy_ble_event_handler.h ****     CY_BLE_EVT_LNSS_INDICATION_DISABLED,
1548:Generated_Source\PSoC6\pdl\middleware\ble/cy_ble_event_handler.h **** 
1549:Generated_Source\PSoC6\pdl\middleware\ble/cy_ble_event_handler.h ****     /** LNS Server - Location and Navigation Service Characteristic
1550:Generated_Source\PSoC6\pdl\middleware\ble/cy_ble_event_handler.h ****      *  Indication was confirmed. The parameter of this event
1551:Generated_Source\PSoC6\pdl\middleware\ble/cy_ble_event_handler.h ****      *  is a structure of the cy_stc_ble_lns_char_value_t type.
1552:Generated_Source\PSoC6\pdl\middleware\ble/cy_ble_event_handler.h ****      */
1553:Generated_Source\PSoC6\pdl\middleware\ble/cy_ble_event_handler.h ****     CY_BLE_EVT_LNSS_INDICATION_CONFIRMED,
1554:Generated_Source\PSoC6\pdl\middleware\ble/cy_ble_event_handler.h **** 
1555:Generated_Source\PSoC6\pdl\middleware\ble/cy_ble_event_handler.h ****     /** LNS Server - Notification for Location and Navigation Service Characteristic
1556:Generated_Source\PSoC6\pdl\middleware\ble/cy_ble_event_handler.h ****      *  was enabled. The parameter of this event is a structure of
1557:Generated_Source\PSoC6\pdl\middleware\ble/cy_ble_event_handler.h ****      *  the cy_stc_ble_lns_char_value_t type.
1558:Generated_Source\PSoC6\pdl\middleware\ble/cy_ble_event_handler.h ****      */
1559:Generated_Source\PSoC6\pdl\middleware\ble/cy_ble_event_handler.h ****     CY_BLE_EVT_LNSS_NOTIFICATION_ENABLED,
1560:Generated_Source\PSoC6\pdl\middleware\ble/cy_ble_event_handler.h **** 
1561:Generated_Source\PSoC6\pdl\middleware\ble/cy_ble_event_handler.h ****     /** LNS Server - Notification for Location and Navigation Service Characteristic
1562:Generated_Source\PSoC6\pdl\middleware\ble/cy_ble_event_handler.h ****      *  was disabled. The parameter of this event is a structure
1563:Generated_Source\PSoC6\pdl\middleware\ble/cy_ble_event_handler.h ****      *  of the cy_stc_ble_lns_char_value_t type.
1564:Generated_Source\PSoC6\pdl\middleware\ble/cy_ble_event_handler.h ****      */
1565:Generated_Source\PSoC6\pdl\middleware\ble/cy_ble_event_handler.h ****     CY_BLE_EVT_LNSS_NOTIFICATION_DISABLED,
1566:Generated_Source\PSoC6\pdl\middleware\ble/cy_ble_event_handler.h **** 
1567:Generated_Source\PSoC6\pdl\middleware\ble/cy_ble_event_handler.h ****     /** LNS Server - Write Request for Location and Navigation Service Characteristic
1568:Generated_Source\PSoC6\pdl\middleware\ble/cy_ble_event_handler.h ****      *  was received. The parameter of this event is a structure
1569:Generated_Source\PSoC6\pdl\middleware\ble/cy_ble_event_handler.h ****      *  of the cy_stc_ble_lns_char_value_t type.
1570:Generated_Source\PSoC6\pdl\middleware\ble/cy_ble_event_handler.h ****      */
1571:Generated_Source\PSoC6\pdl\middleware\ble/cy_ble_event_handler.h ****     CY_BLE_EVT_LNSS_WRITE_CHAR,
ARM GAS  C:\Users\Brian\AppData\Local\Temp\ccRcp4rf.s 			page 36


1572:Generated_Source\PSoC6\pdl\middleware\ble/cy_ble_event_handler.h **** 
1573:Generated_Source\PSoC6\pdl\middleware\ble/cy_ble_event_handler.h ****     /** LNS Client - Location and Navigation Service Characteristic
1574:Generated_Source\PSoC6\pdl\middleware\ble/cy_ble_event_handler.h ****      *  Indication was received. The parameter of this event
1575:Generated_Source\PSoC6\pdl\middleware\ble/cy_ble_event_handler.h ****      *  is a structure of the cy_stc_ble_lns_char_value_t type.
1576:Generated_Source\PSoC6\pdl\middleware\ble/cy_ble_event_handler.h ****      */
1577:Generated_Source\PSoC6\pdl\middleware\ble/cy_ble_event_handler.h ****     CY_BLE_EVT_LNSC_INDICATION,
1578:Generated_Source\PSoC6\pdl\middleware\ble/cy_ble_event_handler.h **** 
1579:Generated_Source\PSoC6\pdl\middleware\ble/cy_ble_event_handler.h ****     /** LNS Client - Location and Navigation Service Characteristic
1580:Generated_Source\PSoC6\pdl\middleware\ble/cy_ble_event_handler.h ****      *  Notification was received. The parameter of this event
1581:Generated_Source\PSoC6\pdl\middleware\ble/cy_ble_event_handler.h ****      *  is a structure of the cy_stc_ble_lns_char_value_t type.
1582:Generated_Source\PSoC6\pdl\middleware\ble/cy_ble_event_handler.h ****      */
1583:Generated_Source\PSoC6\pdl\middleware\ble/cy_ble_event_handler.h ****     CY_BLE_EVT_LNSC_NOTIFICATION,
1584:Generated_Source\PSoC6\pdl\middleware\ble/cy_ble_event_handler.h **** 
1585:Generated_Source\PSoC6\pdl\middleware\ble/cy_ble_event_handler.h ****     /** LNS Client - Read Response for Read Request of Location and Navigation
1586:Generated_Source\PSoC6\pdl\middleware\ble/cy_ble_event_handler.h ****      *  Service Characteristic value. The parameter of this event
1587:Generated_Source\PSoC6\pdl\middleware\ble/cy_ble_event_handler.h ****      *  is a structure of the cy_stc_ble_lns_char_value_t type.
1588:Generated_Source\PSoC6\pdl\middleware\ble/cy_ble_event_handler.h ****      */
1589:Generated_Source\PSoC6\pdl\middleware\ble/cy_ble_event_handler.h ****     CY_BLE_EVT_LNSC_READ_CHAR_RESPONSE,
1590:Generated_Source\PSoC6\pdl\middleware\ble/cy_ble_event_handler.h **** 
1591:Generated_Source\PSoC6\pdl\middleware\ble/cy_ble_event_handler.h ****     /** LNS Client - Write Response for Write Request of Location and Navigation
1592:Generated_Source\PSoC6\pdl\middleware\ble/cy_ble_event_handler.h ****      *  Service Characteristic value. The parameter of this event
1593:Generated_Source\PSoC6\pdl\middleware\ble/cy_ble_event_handler.h ****      *  is a structure of the cy_stc_ble_lns_char_value_t type.
1594:Generated_Source\PSoC6\pdl\middleware\ble/cy_ble_event_handler.h ****      */
1595:Generated_Source\PSoC6\pdl\middleware\ble/cy_ble_event_handler.h ****     CY_BLE_EVT_LNSC_WRITE_CHAR_RESPONSE,
1596:Generated_Source\PSoC6\pdl\middleware\ble/cy_ble_event_handler.h **** 
1597:Generated_Source\PSoC6\pdl\middleware\ble/cy_ble_event_handler.h ****     /** LNS Client - Read Response for Read Request of Location and Navigation
1598:Generated_Source\PSoC6\pdl\middleware\ble/cy_ble_event_handler.h ****      *  Service Characteristic Descriptor Read request. The
1599:Generated_Source\PSoC6\pdl\middleware\ble/cy_ble_event_handler.h ****      *  parameter of this event is a structure of
1600:Generated_Source\PSoC6\pdl\middleware\ble/cy_ble_event_handler.h ****      *  the cy_stc_ble_lns_descr_value_t type.
1601:Generated_Source\PSoC6\pdl\middleware\ble/cy_ble_event_handler.h ****      */
1602:Generated_Source\PSoC6\pdl\middleware\ble/cy_ble_event_handler.h ****     CY_BLE_EVT_LNSC_READ_DESCR_RESPONSE,
1603:Generated_Source\PSoC6\pdl\middleware\ble/cy_ble_event_handler.h **** 
1604:Generated_Source\PSoC6\pdl\middleware\ble/cy_ble_event_handler.h ****     /** LNS Client - Write Response for Write Request of Location and Navigation
1605:Generated_Source\PSoC6\pdl\middleware\ble/cy_ble_event_handler.h ****      *  Service Characteristic Configuration Descriptor value.
1606:Generated_Source\PSoC6\pdl\middleware\ble/cy_ble_event_handler.h ****      *  The parameter of this event is a structure of
1607:Generated_Source\PSoC6\pdl\middleware\ble/cy_ble_event_handler.h ****      *  the cy_stc_ble_lns_descr_value_t type.
1608:Generated_Source\PSoC6\pdl\middleware\ble/cy_ble_event_handler.h ****      */
1609:Generated_Source\PSoC6\pdl\middleware\ble/cy_ble_event_handler.h ****     CY_BLE_EVT_LNSC_WRITE_DESCR_RESPONSE,
1610:Generated_Source\PSoC6\pdl\middleware\ble/cy_ble_event_handler.h **** 
1611:Generated_Source\PSoC6\pdl\middleware\ble/cy_ble_event_handler.h **** 
1612:Generated_Source\PSoC6\pdl\middleware\ble/cy_ble_event_handler.h ****     /****************************************
1613:Generated_Source\PSoC6\pdl\middleware\ble/cy_ble_event_handler.h ****      * Next DST Change Service Events
1614:Generated_Source\PSoC6\pdl\middleware\ble/cy_ble_event_handler.h ****      ***************************************/
1615:Generated_Source\PSoC6\pdl\middleware\ble/cy_ble_event_handler.h **** 
1616:Generated_Source\PSoC6\pdl\middleware\ble/cy_ble_event_handler.h ****     /** NDCS Client - Read Response for Read Request of Next DST Change
1617:Generated_Source\PSoC6\pdl\middleware\ble/cy_ble_event_handler.h ****      * Service Characteristic value. The parameter of this event
1618:Generated_Source\PSoC6\pdl\middleware\ble/cy_ble_event_handler.h ****      * is a structure of the cy_stc_ble_ndcs_char_value_t type.
1619:Generated_Source\PSoC6\pdl\middleware\ble/cy_ble_event_handler.h ****      */
1620:Generated_Source\PSoC6\pdl\middleware\ble/cy_ble_event_handler.h ****     CY_BLE_EVT_NDCSC_READ_CHAR_RESPONSE,
1621:Generated_Source\PSoC6\pdl\middleware\ble/cy_ble_event_handler.h **** 
1622:Generated_Source\PSoC6\pdl\middleware\ble/cy_ble_event_handler.h **** 
1623:Generated_Source\PSoC6\pdl\middleware\ble/cy_ble_event_handler.h ****     /****************************************
1624:Generated_Source\PSoC6\pdl\middleware\ble/cy_ble_event_handler.h ****      * Phone Alert Status Service Events
1625:Generated_Source\PSoC6\pdl\middleware\ble/cy_ble_event_handler.h ****      ***************************************/
1626:Generated_Source\PSoC6\pdl\middleware\ble/cy_ble_event_handler.h **** 
1627:Generated_Source\PSoC6\pdl\middleware\ble/cy_ble_event_handler.h ****     /** PASS Server - Notification for Phone Alert Status Service Characteristic
1628:Generated_Source\PSoC6\pdl\middleware\ble/cy_ble_event_handler.h ****      *  was enabled. The parameter of this event is a structure of
ARM GAS  C:\Users\Brian\AppData\Local\Temp\ccRcp4rf.s 			page 37


1629:Generated_Source\PSoC6\pdl\middleware\ble/cy_ble_event_handler.h ****      *  the cy_stc_ble_pass_char_value_t type.
1630:Generated_Source\PSoC6\pdl\middleware\ble/cy_ble_event_handler.h ****      */
1631:Generated_Source\PSoC6\pdl\middleware\ble/cy_ble_event_handler.h ****     CY_BLE_EVT_PASSS_NOTIFICATION_ENABLED,
1632:Generated_Source\PSoC6\pdl\middleware\ble/cy_ble_event_handler.h **** 
1633:Generated_Source\PSoC6\pdl\middleware\ble/cy_ble_event_handler.h ****     /** PASS Server - Notification for Phone Alert Status Service Characteristic
1634:Generated_Source\PSoC6\pdl\middleware\ble/cy_ble_event_handler.h ****      *  was disabled. The parameter of this event is a structure
1635:Generated_Source\PSoC6\pdl\middleware\ble/cy_ble_event_handler.h ****      *  of the cy_stc_ble_pass_char_value_t type.
1636:Generated_Source\PSoC6\pdl\middleware\ble/cy_ble_event_handler.h ****      */
1637:Generated_Source\PSoC6\pdl\middleware\ble/cy_ble_event_handler.h ****     CY_BLE_EVT_PASSS_NOTIFICATION_DISABLED,
1638:Generated_Source\PSoC6\pdl\middleware\ble/cy_ble_event_handler.h **** 
1639:Generated_Source\PSoC6\pdl\middleware\ble/cy_ble_event_handler.h ****     /** PASS Server - Write Request for Phone Alert Status Service Characteristic
1640:Generated_Source\PSoC6\pdl\middleware\ble/cy_ble_event_handler.h ****      *  was received. The parameter of this event is a structure
1641:Generated_Source\PSoC6\pdl\middleware\ble/cy_ble_event_handler.h ****      *  of the cy_stc_ble_pass_char_value_t type.
1642:Generated_Source\PSoC6\pdl\middleware\ble/cy_ble_event_handler.h ****      */
1643:Generated_Source\PSoC6\pdl\middleware\ble/cy_ble_event_handler.h ****     CY_BLE_EVT_PASSS_WRITE_CHAR,
1644:Generated_Source\PSoC6\pdl\middleware\ble/cy_ble_event_handler.h **** 
1645:Generated_Source\PSoC6\pdl\middleware\ble/cy_ble_event_handler.h ****     /** PASS Client - Phone Alert Status Service Characteristic
1646:Generated_Source\PSoC6\pdl\middleware\ble/cy_ble_event_handler.h ****      *  Notification was received. The parameter of this event
1647:Generated_Source\PSoC6\pdl\middleware\ble/cy_ble_event_handler.h ****      *  is a structure of the cy_stc_ble_pass_char_value_t type.
1648:Generated_Source\PSoC6\pdl\middleware\ble/cy_ble_event_handler.h ****      */
1649:Generated_Source\PSoC6\pdl\middleware\ble/cy_ble_event_handler.h ****     CY_BLE_EVT_PASSC_NOTIFICATION,
1650:Generated_Source\PSoC6\pdl\middleware\ble/cy_ble_event_handler.h **** 
1651:Generated_Source\PSoC6\pdl\middleware\ble/cy_ble_event_handler.h ****     /** PASS Client - Read Response for Read Request of Phone Alert Status
1652:Generated_Source\PSoC6\pdl\middleware\ble/cy_ble_event_handler.h ****      *  Service Characteristic value. The parameter of this event
1653:Generated_Source\PSoC6\pdl\middleware\ble/cy_ble_event_handler.h ****      *  is a structure of cy_stc_ble_pass_char_value_t type.
1654:Generated_Source\PSoC6\pdl\middleware\ble/cy_ble_event_handler.h ****      */
1655:Generated_Source\PSoC6\pdl\middleware\ble/cy_ble_event_handler.h ****     CY_BLE_EVT_PASSC_READ_CHAR_RESPONSE,
1656:Generated_Source\PSoC6\pdl\middleware\ble/cy_ble_event_handler.h **** 
1657:Generated_Source\PSoC6\pdl\middleware\ble/cy_ble_event_handler.h ****     /** PASS Client - Read Response for Read Request of Phone Alert Status
1658:Generated_Source\PSoC6\pdl\middleware\ble/cy_ble_event_handler.h ****      *  Service Characteristic Descriptor Read request. The
1659:Generated_Source\PSoC6\pdl\middleware\ble/cy_ble_event_handler.h ****      *  parameter of this event is a structure of
1660:Generated_Source\PSoC6\pdl\middleware\ble/cy_ble_event_handler.h ****      *  the cy_stc_ble_pass_descr_value_t type.
1661:Generated_Source\PSoC6\pdl\middleware\ble/cy_ble_event_handler.h ****      */
1662:Generated_Source\PSoC6\pdl\middleware\ble/cy_ble_event_handler.h ****     CY_BLE_EVT_PASSC_READ_DESCR_RESPONSE,
1663:Generated_Source\PSoC6\pdl\middleware\ble/cy_ble_event_handler.h **** 
1664:Generated_Source\PSoC6\pdl\middleware\ble/cy_ble_event_handler.h ****     /** PASS Client - Write Response for Write Request of Phone Alert Status
1665:Generated_Source\PSoC6\pdl\middleware\ble/cy_ble_event_handler.h ****      *  Service Characteristic Configuration Descriptor value.
1666:Generated_Source\PSoC6\pdl\middleware\ble/cy_ble_event_handler.h ****      *  The parameter of this event is a structure of
1667:Generated_Source\PSoC6\pdl\middleware\ble/cy_ble_event_handler.h ****      *  the cy_stc_ble_pass_descr_value_t type.
1668:Generated_Source\PSoC6\pdl\middleware\ble/cy_ble_event_handler.h ****      */
1669:Generated_Source\PSoC6\pdl\middleware\ble/cy_ble_event_handler.h ****     CY_BLE_EVT_PASSC_WRITE_DESCR_RESPONSE,
1670:Generated_Source\PSoC6\pdl\middleware\ble/cy_ble_event_handler.h **** 
1671:Generated_Source\PSoC6\pdl\middleware\ble/cy_ble_event_handler.h **** 
1672:Generated_Source\PSoC6\pdl\middleware\ble/cy_ble_event_handler.h ****     /****************************************
1673:Generated_Source\PSoC6\pdl\middleware\ble/cy_ble_event_handler.h ****      * Pulse Oximeter Service Events
1674:Generated_Source\PSoC6\pdl\middleware\ble/cy_ble_event_handler.h ****      ***************************************/
1675:Generated_Source\PSoC6\pdl\middleware\ble/cy_ble_event_handler.h **** 
1676:Generated_Source\PSoC6\pdl\middleware\ble/cy_ble_event_handler.h ****     /** PLXS Server - Indication for Pulse Oximeter Service Characteristic
1677:Generated_Source\PSoC6\pdl\middleware\ble/cy_ble_event_handler.h ****      *  was enabled. The parameter of this event is a structure
1678:Generated_Source\PSoC6\pdl\middleware\ble/cy_ble_event_handler.h ****      *  of cy_stc_ble_plxs_char_value_t type.
1679:Generated_Source\PSoC6\pdl\middleware\ble/cy_ble_event_handler.h ****      */
1680:Generated_Source\PSoC6\pdl\middleware\ble/cy_ble_event_handler.h ****     CY_BLE_EVT_PLXSS_INDICATION_ENABLED,
1681:Generated_Source\PSoC6\pdl\middleware\ble/cy_ble_event_handler.h **** 
1682:Generated_Source\PSoC6\pdl\middleware\ble/cy_ble_event_handler.h ****     /** PLXS Server - Indication for Pulse Oximeter Service Characteristic
1683:Generated_Source\PSoC6\pdl\middleware\ble/cy_ble_event_handler.h ****      *  was disabled. The parameter of this event is a structure
1684:Generated_Source\PSoC6\pdl\middleware\ble/cy_ble_event_handler.h ****      *  of the cy_stc_ble_gls_char_value_t type.
1685:Generated_Source\PSoC6\pdl\middleware\ble/cy_ble_event_handler.h ****      */
ARM GAS  C:\Users\Brian\AppData\Local\Temp\ccRcp4rf.s 			page 38


1686:Generated_Source\PSoC6\pdl\middleware\ble/cy_ble_event_handler.h ****     CY_BLE_EVT_PLXSS_INDICATION_DISABLED,
1687:Generated_Source\PSoC6\pdl\middleware\ble/cy_ble_event_handler.h **** 
1688:Generated_Source\PSoC6\pdl\middleware\ble/cy_ble_event_handler.h ****     /** PLXS Server - Pulse Oximeter Service Characteristic
1689:Generated_Source\PSoC6\pdl\middleware\ble/cy_ble_event_handler.h ****      *  Indication was confirmed. The parameter of this event
1690:Generated_Source\PSoC6\pdl\middleware\ble/cy_ble_event_handler.h ****      *  is a structure of the cy_stc_ble_plxs_char_value_t type.
1691:Generated_Source\PSoC6\pdl\middleware\ble/cy_ble_event_handler.h ****      */
1692:Generated_Source\PSoC6\pdl\middleware\ble/cy_ble_event_handler.h ****     CY_BLE_EVT_PLXSS_INDICATION_CONFIRMED,
1693:Generated_Source\PSoC6\pdl\middleware\ble/cy_ble_event_handler.h **** 
1694:Generated_Source\PSoC6\pdl\middleware\ble/cy_ble_event_handler.h ****     /** PLXS Server - Notification for Pulse Oximeter Service Characteristic
1695:Generated_Source\PSoC6\pdl\middleware\ble/cy_ble_event_handler.h ****      *  was enabled. The parameter of this event is a structure of
1696:Generated_Source\PSoC6\pdl\middleware\ble/cy_ble_event_handler.h ****      *  the cy_stc_ble_plxs_char_value_t type.
1697:Generated_Source\PSoC6\pdl\middleware\ble/cy_ble_event_handler.h ****      */
1698:Generated_Source\PSoC6\pdl\middleware\ble/cy_ble_event_handler.h ****     CY_BLE_EVT_PLXSS_NOTIFICATION_ENABLED,
1699:Generated_Source\PSoC6\pdl\middleware\ble/cy_ble_event_handler.h **** 
1700:Generated_Source\PSoC6\pdl\middleware\ble/cy_ble_event_handler.h ****     /** PLXS Server - Notification for Pulse Oximeter Service Characteristic
1701:Generated_Source\PSoC6\pdl\middleware\ble/cy_ble_event_handler.h ****      *  was disabled. The parameter of this event is a structure
1702:Generated_Source\PSoC6\pdl\middleware\ble/cy_ble_event_handler.h ****      *  of the cy_stc_ble_plxs_char_value_t type.
1703:Generated_Source\PSoC6\pdl\middleware\ble/cy_ble_event_handler.h ****      */
1704:Generated_Source\PSoC6\pdl\middleware\ble/cy_ble_event_handler.h ****     CY_BLE_EVT_PLXSS_NOTIFICATION_DISABLED,
1705:Generated_Source\PSoC6\pdl\middleware\ble/cy_ble_event_handler.h **** 
1706:Generated_Source\PSoC6\pdl\middleware\ble/cy_ble_event_handler.h ****     /** PLXS Server - Write Request for Pulse Oximeter Service
1707:Generated_Source\PSoC6\pdl\middleware\ble/cy_ble_event_handler.h ****      *  was received. The parameter of this event is a structure
1708:Generated_Source\PSoC6\pdl\middleware\ble/cy_ble_event_handler.h ****      *  of cy_stc_ble_plxs_char_value_t type.
1709:Generated_Source\PSoC6\pdl\middleware\ble/cy_ble_event_handler.h ****      */
1710:Generated_Source\PSoC6\pdl\middleware\ble/cy_ble_event_handler.h ****     CY_BLE_EVT_PLXSS_WRITE_CHAR,
1711:Generated_Source\PSoC6\pdl\middleware\ble/cy_ble_event_handler.h **** 
1712:Generated_Source\PSoC6\pdl\middleware\ble/cy_ble_event_handler.h ****     /** PLXS Client - Pulse Oximeter Service Characteristic
1713:Generated_Source\PSoC6\pdl\middleware\ble/cy_ble_event_handler.h ****      *  Indication was received. The parameter of this event
1714:Generated_Source\PSoC6\pdl\middleware\ble/cy_ble_event_handler.h ****      *  is a structure of the cy_stc_ble_plxs_char_value_t type.
1715:Generated_Source\PSoC6\pdl\middleware\ble/cy_ble_event_handler.h ****      */
1716:Generated_Source\PSoC6\pdl\middleware\ble/cy_ble_event_handler.h ****     CY_BLE_EVT_PLXSC_INDICATION,
1717:Generated_Source\PSoC6\pdl\middleware\ble/cy_ble_event_handler.h **** 
1718:Generated_Source\PSoC6\pdl\middleware\ble/cy_ble_event_handler.h ****     /** PLXS Client - Pulse Oximeter Service Characteristic
1719:Generated_Source\PSoC6\pdl\middleware\ble/cy_ble_event_handler.h ****      *  Notification was received. The parameter of this event
1720:Generated_Source\PSoC6\pdl\middleware\ble/cy_ble_event_handler.h ****      *  is a structure of the cy_stc_ble_plxs_char_value_t type.
1721:Generated_Source\PSoC6\pdl\middleware\ble/cy_ble_event_handler.h ****      */
1722:Generated_Source\PSoC6\pdl\middleware\ble/cy_ble_event_handler.h ****     CY_BLE_EVT_PLXSC_NOTIFICATION,
1723:Generated_Source\PSoC6\pdl\middleware\ble/cy_ble_event_handler.h **** 
1724:Generated_Source\PSoC6\pdl\middleware\ble/cy_ble_event_handler.h ****     /** PLXS Client - Read Response for Read Request of Pulse Oximeter
1725:Generated_Source\PSoC6\pdl\middleware\ble/cy_ble_event_handler.h ****      *  Service Characteristic value. The parameter of this event
1726:Generated_Source\PSoC6\pdl\middleware\ble/cy_ble_event_handler.h ****      *  is a structure of the cy_stc_ble_plxs_char_value_t type.
1727:Generated_Source\PSoC6\pdl\middleware\ble/cy_ble_event_handler.h ****      */
1728:Generated_Source\PSoC6\pdl\middleware\ble/cy_ble_event_handler.h ****     CY_BLE_EVT_PLXSC_READ_CHAR_RESPONSE,
1729:Generated_Source\PSoC6\pdl\middleware\ble/cy_ble_event_handler.h **** 
1730:Generated_Source\PSoC6\pdl\middleware\ble/cy_ble_event_handler.h ****     /** PLXS Client - Write Response for Write Request of Pulse Oximeter
1731:Generated_Source\PSoC6\pdl\middleware\ble/cy_ble_event_handler.h ****      *  Service Characteristic value. The
1732:Generated_Source\PSoC6\pdl\middleware\ble/cy_ble_event_handler.h ****      *  parameter of this event is a structure of
1733:Generated_Source\PSoC6\pdl\middleware\ble/cy_ble_event_handler.h ****      *  the cy_stc_ble_plxs_char_value_t type.
1734:Generated_Source\PSoC6\pdl\middleware\ble/cy_ble_event_handler.h ****      */
1735:Generated_Source\PSoC6\pdl\middleware\ble/cy_ble_event_handler.h ****     CY_BLE_EVT_PLXSC_WRITE_CHAR_RESPONSE,
1736:Generated_Source\PSoC6\pdl\middleware\ble/cy_ble_event_handler.h **** 
1737:Generated_Source\PSoC6\pdl\middleware\ble/cy_ble_event_handler.h ****     /** PLXS Client - Read Response for Read Request of Pulse Oximeter
1738:Generated_Source\PSoC6\pdl\middleware\ble/cy_ble_event_handler.h ****      *  Service Characteristic Descriptor Read request. The
1739:Generated_Source\PSoC6\pdl\middleware\ble/cy_ble_event_handler.h ****      *  parameter of this event is a structure of
1740:Generated_Source\PSoC6\pdl\middleware\ble/cy_ble_event_handler.h ****      *  the cy_stc_ble_plxs_descr_value_t type.
1741:Generated_Source\PSoC6\pdl\middleware\ble/cy_ble_event_handler.h ****      */
1742:Generated_Source\PSoC6\pdl\middleware\ble/cy_ble_event_handler.h ****     CY_BLE_EVT_PLXSC_READ_DESCR_RESPONSE,
ARM GAS  C:\Users\Brian\AppData\Local\Temp\ccRcp4rf.s 			page 39


1743:Generated_Source\PSoC6\pdl\middleware\ble/cy_ble_event_handler.h **** 
1744:Generated_Source\PSoC6\pdl\middleware\ble/cy_ble_event_handler.h ****     /** PLXS Client - Write Response for Write Request of Pulse Oximeter
1745:Generated_Source\PSoC6\pdl\middleware\ble/cy_ble_event_handler.h ****      *  Service Characteristic Configuration Descriptor value.
1746:Generated_Source\PSoC6\pdl\middleware\ble/cy_ble_event_handler.h ****      *  The parameter of this event is a structure of
1747:Generated_Source\PSoC6\pdl\middleware\ble/cy_ble_event_handler.h ****      *  the cy_stc_ble_plxs_descr_value_t type.
1748:Generated_Source\PSoC6\pdl\middleware\ble/cy_ble_event_handler.h ****      */
1749:Generated_Source\PSoC6\pdl\middleware\ble/cy_ble_event_handler.h ****     CY_BLE_EVT_PLXSC_WRITE_DESCR_RESPONSE,
1750:Generated_Source\PSoC6\pdl\middleware\ble/cy_ble_event_handler.h **** 
1751:Generated_Source\PSoC6\pdl\middleware\ble/cy_ble_event_handler.h ****     /** PLXS Client - PLX RACP procedure timeout was received. The parameter
1752:Generated_Source\PSoC6\pdl\middleware\ble/cy_ble_event_handler.h ****      *  of this event is a structure of the cy_stc_ble_plxs_char_value_t type.
1753:Generated_Source\PSoC6\pdl\middleware\ble/cy_ble_event_handler.h ****      */
1754:Generated_Source\PSoC6\pdl\middleware\ble/cy_ble_event_handler.h ****     CY_BLE_EVT_PLXSC_TIMEOUT,
1755:Generated_Source\PSoC6\pdl\middleware\ble/cy_ble_event_handler.h **** 
1756:Generated_Source\PSoC6\pdl\middleware\ble/cy_ble_event_handler.h ****     /****************************************
1757:Generated_Source\PSoC6\pdl\middleware\ble/cy_ble_event_handler.h ****      * Running Speed and Cadence Service Events
1758:Generated_Source\PSoC6\pdl\middleware\ble/cy_ble_event_handler.h ****      ***************************************/
1759:Generated_Source\PSoC6\pdl\middleware\ble/cy_ble_event_handler.h **** 
1760:Generated_Source\PSoC6\pdl\middleware\ble/cy_ble_event_handler.h ****     /** RSCS Server - Notification for Running Speed and Cadence Service
1761:Generated_Source\PSoC6\pdl\middleware\ble/cy_ble_event_handler.h ****      *  Characteristic was enabled. The parameter of this event is a structure of
1762:Generated_Source\PSoC6\pdl\middleware\ble/cy_ble_event_handler.h ****      *  the cy_stc_ble_rscs_char_value_t type.
1763:Generated_Source\PSoC6\pdl\middleware\ble/cy_ble_event_handler.h ****      */
1764:Generated_Source\PSoC6\pdl\middleware\ble/cy_ble_event_handler.h ****     CY_BLE_EVT_RSCSS_NOTIFICATION_ENABLED,
1765:Generated_Source\PSoC6\pdl\middleware\ble/cy_ble_event_handler.h **** 
1766:Generated_Source\PSoC6\pdl\middleware\ble/cy_ble_event_handler.h ****     /** RSCS Server - Notification for Running Speed and Cadence Service
1767:Generated_Source\PSoC6\pdl\middleware\ble/cy_ble_event_handler.h ****      *  Characteristic was disabled. The parameter of this event is a structure
1768:Generated_Source\PSoC6\pdl\middleware\ble/cy_ble_event_handler.h ****      *  of the cy_stc_ble_rscs_char_value_t type.
1769:Generated_Source\PSoC6\pdl\middleware\ble/cy_ble_event_handler.h ****      */
1770:Generated_Source\PSoC6\pdl\middleware\ble/cy_ble_event_handler.h ****     CY_BLE_EVT_RSCSS_NOTIFICATION_DISABLED,
1771:Generated_Source\PSoC6\pdl\middleware\ble/cy_ble_event_handler.h **** 
1772:Generated_Source\PSoC6\pdl\middleware\ble/cy_ble_event_handler.h ****     /** RSCS Server - Indication for Running Speed and Cadence Service Characteristic
1773:Generated_Source\PSoC6\pdl\middleware\ble/cy_ble_event_handler.h ****      *  was enabled. The parameter of this event is a structure
1774:Generated_Source\PSoC6\pdl\middleware\ble/cy_ble_event_handler.h ****      *  of the cy_stc_ble_rscs_char_value_t type.
1775:Generated_Source\PSoC6\pdl\middleware\ble/cy_ble_event_handler.h ****      */
1776:Generated_Source\PSoC6\pdl\middleware\ble/cy_ble_event_handler.h ****     CY_BLE_EVT_RSCSS_INDICATION_ENABLED,
1777:Generated_Source\PSoC6\pdl\middleware\ble/cy_ble_event_handler.h **** 
1778:Generated_Source\PSoC6\pdl\middleware\ble/cy_ble_event_handler.h ****     /** RSCS Server - Indication for Running Speed and Cadence Service Characteristic
1779:Generated_Source\PSoC6\pdl\middleware\ble/cy_ble_event_handler.h ****      *  was disabled. The parameter of this event is a structure
1780:Generated_Source\PSoC6\pdl\middleware\ble/cy_ble_event_handler.h ****      *  of the cy_stc_ble_rscs_char_value_t type.
1781:Generated_Source\PSoC6\pdl\middleware\ble/cy_ble_event_handler.h ****      */
1782:Generated_Source\PSoC6\pdl\middleware\ble/cy_ble_event_handler.h ****     CY_BLE_EVT_RSCSS_INDICATION_DISABLED,
1783:Generated_Source\PSoC6\pdl\middleware\ble/cy_ble_event_handler.h **** 
1784:Generated_Source\PSoC6\pdl\middleware\ble/cy_ble_event_handler.h ****     /** RSCS Server - Running Speed and Cadence Service Characteristic
1785:Generated_Source\PSoC6\pdl\middleware\ble/cy_ble_event_handler.h ****      *  Indication was confirmed. The parameter of this event
1786:Generated_Source\PSoC6\pdl\middleware\ble/cy_ble_event_handler.h ****      *  is a structure of the cy_stc_ble_rscs_char_value_t type.
1787:Generated_Source\PSoC6\pdl\middleware\ble/cy_ble_event_handler.h ****      */
1788:Generated_Source\PSoC6\pdl\middleware\ble/cy_ble_event_handler.h ****     CY_BLE_EVT_RSCSS_INDICATION_CONFIRMATION,
1789:Generated_Source\PSoC6\pdl\middleware\ble/cy_ble_event_handler.h **** 
1790:Generated_Source\PSoC6\pdl\middleware\ble/cy_ble_event_handler.h ****     /** RSCS Server - Write Request for Running Speed and Cadence Service
1791:Generated_Source\PSoC6\pdl\middleware\ble/cy_ble_event_handler.h ****      *  Characteristic was received. The parameter of this event is a structure
1792:Generated_Source\PSoC6\pdl\middleware\ble/cy_ble_event_handler.h ****      *  of cy_stc_ble_rscs_char_value_t type.
1793:Generated_Source\PSoC6\pdl\middleware\ble/cy_ble_event_handler.h ****      */
1794:Generated_Source\PSoC6\pdl\middleware\ble/cy_ble_event_handler.h ****     CY_BLE_EVT_RSCSS_WRITE_CHAR,
1795:Generated_Source\PSoC6\pdl\middleware\ble/cy_ble_event_handler.h **** 
1796:Generated_Source\PSoC6\pdl\middleware\ble/cy_ble_event_handler.h ****     /** RSCS Client - Running Speed and Cadence Service Characteristic
1797:Generated_Source\PSoC6\pdl\middleware\ble/cy_ble_event_handler.h ****      *  Notification was received. The parameter of this event
1798:Generated_Source\PSoC6\pdl\middleware\ble/cy_ble_event_handler.h ****      *  is a structure of the cy_stc_ble_rscs_char_value_t type.
1799:Generated_Source\PSoC6\pdl\middleware\ble/cy_ble_event_handler.h ****      */
ARM GAS  C:\Users\Brian\AppData\Local\Temp\ccRcp4rf.s 			page 40


1800:Generated_Source\PSoC6\pdl\middleware\ble/cy_ble_event_handler.h ****     CY_BLE_EVT_RSCSC_NOTIFICATION,
1801:Generated_Source\PSoC6\pdl\middleware\ble/cy_ble_event_handler.h **** 
1802:Generated_Source\PSoC6\pdl\middleware\ble/cy_ble_event_handler.h ****     /** RSCS Client - Running Speed and Cadence Service Characteristic
1803:Generated_Source\PSoC6\pdl\middleware\ble/cy_ble_event_handler.h ****      *  Indication was received. The parameter of this event
1804:Generated_Source\PSoC6\pdl\middleware\ble/cy_ble_event_handler.h ****      *  is a structure of the cy_stc_ble_rscs_char_value_t type.
1805:Generated_Source\PSoC6\pdl\middleware\ble/cy_ble_event_handler.h ****      */
1806:Generated_Source\PSoC6\pdl\middleware\ble/cy_ble_event_handler.h ****     CY_BLE_EVT_RSCSC_INDICATION,
1807:Generated_Source\PSoC6\pdl\middleware\ble/cy_ble_event_handler.h **** 
1808:Generated_Source\PSoC6\pdl\middleware\ble/cy_ble_event_handler.h ****     /** RSCS Client - Read Response for Read Request of Running Speed and Cadence
1809:Generated_Source\PSoC6\pdl\middleware\ble/cy_ble_event_handler.h ****      *  Service Characteristic value. The parameter of this event
1810:Generated_Source\PSoC6\pdl\middleware\ble/cy_ble_event_handler.h ****      *  is a structure of the cy_stc_ble_rscs_char_value_t type.
1811:Generated_Source\PSoC6\pdl\middleware\ble/cy_ble_event_handler.h ****      */
1812:Generated_Source\PSoC6\pdl\middleware\ble/cy_ble_event_handler.h ****     CY_BLE_EVT_RSCSC_READ_CHAR_RESPONSE,
1813:Generated_Source\PSoC6\pdl\middleware\ble/cy_ble_event_handler.h **** 
1814:Generated_Source\PSoC6\pdl\middleware\ble/cy_ble_event_handler.h ****     /** RSCS Client - Write Response for Write Request of Running Speed and Cadence
1815:Generated_Source\PSoC6\pdl\middleware\ble/cy_ble_event_handler.h ****      *  Service Characteristic value. The parameter of this event
1816:Generated_Source\PSoC6\pdl\middleware\ble/cy_ble_event_handler.h ****      *  is a structure of the cy_stc_ble_rscs_char_value_t type.
1817:Generated_Source\PSoC6\pdl\middleware\ble/cy_ble_event_handler.h ****      */
1818:Generated_Source\PSoC6\pdl\middleware\ble/cy_ble_event_handler.h ****     CY_BLE_EVT_RSCSC_WRITE_CHAR_RESPONSE,
1819:Generated_Source\PSoC6\pdl\middleware\ble/cy_ble_event_handler.h **** 
1820:Generated_Source\PSoC6\pdl\middleware\ble/cy_ble_event_handler.h ****     /** RSCS Client - Read Response for Read Request of Running Speed and Cadence
1821:Generated_Source\PSoC6\pdl\middleware\ble/cy_ble_event_handler.h ****      *  Service Characteristic Descriptor Read request. The
1822:Generated_Source\PSoC6\pdl\middleware\ble/cy_ble_event_handler.h ****      *  parameter of this event is a structure of
1823:Generated_Source\PSoC6\pdl\middleware\ble/cy_ble_event_handler.h ****      *  the cy_stc_ble_rscs_descr_value_t type.
1824:Generated_Source\PSoC6\pdl\middleware\ble/cy_ble_event_handler.h ****      */
1825:Generated_Source\PSoC6\pdl\middleware\ble/cy_ble_event_handler.h ****     CY_BLE_EVT_RSCSC_READ_DESCR_RESPONSE,
1826:Generated_Source\PSoC6\pdl\middleware\ble/cy_ble_event_handler.h **** 
1827:Generated_Source\PSoC6\pdl\middleware\ble/cy_ble_event_handler.h ****     /** RSCS Client - Write Response for Write Request of Running Speed and Cadence
1828:Generated_Source\PSoC6\pdl\middleware\ble/cy_ble_event_handler.h ****      *  Service Characteristic Configuration Descriptor value.
1829:Generated_Source\PSoC6\pdl\middleware\ble/cy_ble_event_handler.h ****      *  The parameter of this event is a structure of
1830:Generated_Source\PSoC6\pdl\middleware\ble/cy_ble_event_handler.h ****      *  the cy_stc_ble_rscs_descr_value_t type.
1831:Generated_Source\PSoC6\pdl\middleware\ble/cy_ble_event_handler.h ****      */
1832:Generated_Source\PSoC6\pdl\middleware\ble/cy_ble_event_handler.h ****     CY_BLE_EVT_RSCSC_WRITE_DESCR_RESPONSE,
1833:Generated_Source\PSoC6\pdl\middleware\ble/cy_ble_event_handler.h **** 
1834:Generated_Source\PSoC6\pdl\middleware\ble/cy_ble_event_handler.h **** 
1835:Generated_Source\PSoC6\pdl\middleware\ble/cy_ble_event_handler.h ****     /****************************************
1836:Generated_Source\PSoC6\pdl\middleware\ble/cy_ble_event_handler.h ****      * Reference Time Update Service Events
1837:Generated_Source\PSoC6\pdl\middleware\ble/cy_ble_event_handler.h ****      ***************************************/
1838:Generated_Source\PSoC6\pdl\middleware\ble/cy_ble_event_handler.h **** 
1839:Generated_Source\PSoC6\pdl\middleware\ble/cy_ble_event_handler.h ****     /** RTUS Server - Write command request for Reference Time Update
1840:Generated_Source\PSoC6\pdl\middleware\ble/cy_ble_event_handler.h ****      *  Characteristic value. The parameter of this event
1841:Generated_Source\PSoC6\pdl\middleware\ble/cy_ble_event_handler.h ****      *  is a structure of cy_stc_ble_rtus_char_value_t type.
1842:Generated_Source\PSoC6\pdl\middleware\ble/cy_ble_event_handler.h ****      */
1843:Generated_Source\PSoC6\pdl\middleware\ble/cy_ble_event_handler.h ****     CY_BLE_EVT_RTUSS_WRITE_CHAR_CMD,
1844:Generated_Source\PSoC6\pdl\middleware\ble/cy_ble_event_handler.h **** 
1845:Generated_Source\PSoC6\pdl\middleware\ble/cy_ble_event_handler.h ****     /** RTUS Client - Read Response for Read Request of Reference Time Update
1846:Generated_Source\PSoC6\pdl\middleware\ble/cy_ble_event_handler.h ****      *  Service Characteristic value. The parameter of this event
1847:Generated_Source\PSoC6\pdl\middleware\ble/cy_ble_event_handler.h ****      *  is a structure of the cy_stc_ble_rtus_char_value_t type.
1848:Generated_Source\PSoC6\pdl\middleware\ble/cy_ble_event_handler.h ****      */
1849:Generated_Source\PSoC6\pdl\middleware\ble/cy_ble_event_handler.h ****     CY_BLE_EVT_RTUSC_READ_CHAR_RESPONSE,
1850:Generated_Source\PSoC6\pdl\middleware\ble/cy_ble_event_handler.h **** 
1851:Generated_Source\PSoC6\pdl\middleware\ble/cy_ble_event_handler.h **** 
1852:Generated_Source\PSoC6\pdl\middleware\ble/cy_ble_event_handler.h ****     /****************************************
1853:Generated_Source\PSoC6\pdl\middleware\ble/cy_ble_event_handler.h ****      * Scan Parameters Service Events
1854:Generated_Source\PSoC6\pdl\middleware\ble/cy_ble_event_handler.h ****      ***************************************/
1855:Generated_Source\PSoC6\pdl\middleware\ble/cy_ble_event_handler.h **** 
1856:Generated_Source\PSoC6\pdl\middleware\ble/cy_ble_event_handler.h ****     /** ScPS Server - Notification for Scan Refresh Characteristic
ARM GAS  C:\Users\Brian\AppData\Local\Temp\ccRcp4rf.s 			page 41


1857:Generated_Source\PSoC6\pdl\middleware\ble/cy_ble_event_handler.h ****      *  was enabled. The parameter of this event is a structure
1858:Generated_Source\PSoC6\pdl\middleware\ble/cy_ble_event_handler.h ****      *  of the cy_stc_ble_scps_char_value_t type.
1859:Generated_Source\PSoC6\pdl\middleware\ble/cy_ble_event_handler.h ****      */
1860:Generated_Source\PSoC6\pdl\middleware\ble/cy_ble_event_handler.h ****     CY_BLE_EVT_SCPSS_NOTIFICATION_ENABLED,
1861:Generated_Source\PSoC6\pdl\middleware\ble/cy_ble_event_handler.h **** 
1862:Generated_Source\PSoC6\pdl\middleware\ble/cy_ble_event_handler.h ****     /** ScPS Server - Notification for Scan Refresh Characteristic
1863:Generated_Source\PSoC6\pdl\middleware\ble/cy_ble_event_handler.h ****      *  was disabled. The parameter of this event is a structure
1864:Generated_Source\PSoC6\pdl\middleware\ble/cy_ble_event_handler.h ****      *  of the cy_stc_ble_scps_char_value_t type.
1865:Generated_Source\PSoC6\pdl\middleware\ble/cy_ble_event_handler.h ****      */
1866:Generated_Source\PSoC6\pdl\middleware\ble/cy_ble_event_handler.h ****     CY_BLE_EVT_SCPSS_NOTIFICATION_DISABLED,
1867:Generated_Source\PSoC6\pdl\middleware\ble/cy_ble_event_handler.h **** 
1868:Generated_Source\PSoC6\pdl\middleware\ble/cy_ble_event_handler.h ****     /** ScPS Client - Read Response for Scan Interval Window
1869:Generated_Source\PSoC6\pdl\middleware\ble/cy_ble_event_handler.h ****      *  Characteristic Value of Scan Parameters Service. The
1870:Generated_Source\PSoC6\pdl\middleware\ble/cy_ble_event_handler.h ****      *  parameter of this event is a structure
1871:Generated_Source\PSoC6\pdl\middleware\ble/cy_ble_event_handler.h ****      *  of the cy_stc_ble_scps_char_value_t type.
1872:Generated_Source\PSoC6\pdl\middleware\ble/cy_ble_event_handler.h ****      */
1873:Generated_Source\PSoC6\pdl\middleware\ble/cy_ble_event_handler.h ****     CY_BLE_EVT_SCPSS_SCAN_INT_WIN_WRITE_CHAR,
1874:Generated_Source\PSoC6\pdl\middleware\ble/cy_ble_event_handler.h **** 
1875:Generated_Source\PSoC6\pdl\middleware\ble/cy_ble_event_handler.h ****     /** ScPS Client - Scan Refresh Characteristic Notification
1876:Generated_Source\PSoC6\pdl\middleware\ble/cy_ble_event_handler.h ****      *  was received. The parameter of this event is a
1877:Generated_Source\PSoC6\pdl\middleware\ble/cy_ble_event_handler.h ****      *  structure of the cy_stc_ble_scps_char_value_t type.
1878:Generated_Source\PSoC6\pdl\middleware\ble/cy_ble_event_handler.h ****      */
1879:Generated_Source\PSoC6\pdl\middleware\ble/cy_ble_event_handler.h ****     CY_BLE_EVT_SCPSC_NOTIFICATION,
1880:Generated_Source\PSoC6\pdl\middleware\ble/cy_ble_event_handler.h **** 
1881:Generated_Source\PSoC6\pdl\middleware\ble/cy_ble_event_handler.h ****     /** ScPS Client - Read Response for Scan Refresh Characteristic
1882:Generated_Source\PSoC6\pdl\middleware\ble/cy_ble_event_handler.h ****      *  Descriptor Read Request. The parameter of this event is a
1883:Generated_Source\PSoC6\pdl\middleware\ble/cy_ble_event_handler.h ****      *  structure of the cy_stc_ble_scps_descr_value_t type.
1884:Generated_Source\PSoC6\pdl\middleware\ble/cy_ble_event_handler.h ****      */
1885:Generated_Source\PSoC6\pdl\middleware\ble/cy_ble_event_handler.h ****     CY_BLE_EVT_SCPSC_READ_DESCR_RESPONSE,
1886:Generated_Source\PSoC6\pdl\middleware\ble/cy_ble_event_handler.h **** 
1887:Generated_Source\PSoC6\pdl\middleware\ble/cy_ble_event_handler.h ****     /** ScPS Client - Write Response for Scan Refresh Client
1888:Generated_Source\PSoC6\pdl\middleware\ble/cy_ble_event_handler.h ****      *  Characteristic Configuration Descriptor Value. The
1889:Generated_Source\PSoC6\pdl\middleware\ble/cy_ble_event_handler.h ****      *  parameter of this event is a structure of
1890:Generated_Source\PSoC6\pdl\middleware\ble/cy_ble_event_handler.h ****      *  the cy_stc_ble_scps_descr_value_t type.
1891:Generated_Source\PSoC6\pdl\middleware\ble/cy_ble_event_handler.h ****      */
1892:Generated_Source\PSoC6\pdl\middleware\ble/cy_ble_event_handler.h ****     CY_BLE_EVT_SCPSC_WRITE_DESCR_RESPONSE,
1893:Generated_Source\PSoC6\pdl\middleware\ble/cy_ble_event_handler.h **** 
1894:Generated_Source\PSoC6\pdl\middleware\ble/cy_ble_event_handler.h **** 
1895:Generated_Source\PSoC6\pdl\middleware\ble/cy_ble_event_handler.h ****     /****************************************
1896:Generated_Source\PSoC6\pdl\middleware\ble/cy_ble_event_handler.h ****      * Tx Power Service Events
1897:Generated_Source\PSoC6\pdl\middleware\ble/cy_ble_event_handler.h ****      ***************************************/
1898:Generated_Source\PSoC6\pdl\middleware\ble/cy_ble_event_handler.h **** 
1899:Generated_Source\PSoC6\pdl\middleware\ble/cy_ble_event_handler.h ****     /** TPS Server - Notification for Tx Power Level Characteristic
1900:Generated_Source\PSoC6\pdl\middleware\ble/cy_ble_event_handler.h ****      *  was enabled. The parameter of this event is a structure of
1901:Generated_Source\PSoC6\pdl\middleware\ble/cy_ble_event_handler.h ****      *  the cy_stc_ble_tps_char_value_t type.
1902:Generated_Source\PSoC6\pdl\middleware\ble/cy_ble_event_handler.h ****      */
1903:Generated_Source\PSoC6\pdl\middleware\ble/cy_ble_event_handler.h ****     CY_BLE_EVT_TPSS_NOTIFICATION_ENABLED,
1904:Generated_Source\PSoC6\pdl\middleware\ble/cy_ble_event_handler.h **** 
1905:Generated_Source\PSoC6\pdl\middleware\ble/cy_ble_event_handler.h ****     /** TPS Server - Notification for Tx Power Level Characteristic
