ARM GAS  C:\Users\Brian\AppData\Local\Temp\cca14Ga2.s 			page 1


   1              		.syntax unified
   2              		.cpu cortex-m4
   3              		.eabi_attribute 27, 1
   4              		.fpu fpv4-sp-d16
   5              		.eabi_attribute 20, 1
   6              		.eabi_attribute 21, 1
   7              		.eabi_attribute 23, 3
   8              		.eabi_attribute 24, 1
   9              		.eabi_attribute 25, 1
  10              		.eabi_attribute 26, 1
  11              		.eabi_attribute 30, 1
  12              		.eabi_attribute 34, 1
  13              		.eabi_attribute 18, 4
  14              		.thumb
  15              		.syntax unified
  16              		.file	"filter.c"
  17              		.text
  18              	.Ltext0:
  19              		.cfi_sections	.debug_frame
  20              		.section	.text.initialize_filter,"ax",%progbits
  21              		.align	2
  22              		.global	initialize_filter
  23              		.thumb
  24              		.thumb_func
  25              		.type	initialize_filter, %function
  26              	initialize_filter:
  27              	.LFB1:
  28              		.file 1 "filter.c"
   1:filter.c      **** /* ========================================
   2:filter.c      ****  *
   3:filter.c      ****  * SEL VOLTAGE MONITOR
   4:filter.c      ****  * TEAM REMBRANDT
   5:filter.c      ****  * 
   6:filter.c      ****  * filter.c
   7:filter.c      ****  *
   8:filter.c      ****  * Generalized FIR filter
   9:filter.c      ****  * 
  10:filter.c      ****  * ========================================
  11:filter.c      **** */
  12:filter.c      **** #include "filter.h"
  13:filter.c      **** 
  14:filter.c      **** void initialize_filter(uint8_t length, int16_t * taps, uint16_t gain, uint32_t * samples, fir_filte
  15:filter.c      **** {
  29              		.loc 1 15 0
  30              		.cfi_startproc
  31              		@ args = 4, pretend = 0, frame = 0
  32              		@ frame_needed = 0, uses_anonymous_args = 0
  33              		@ link register save eliminated.
  34              	.LVL0:
  35 0000 10B4     		push	{r4}
  36              		.cfi_def_cfa_offset 4
  37              		.cfi_offset 4, -4
  38 0002 019C     		ldr	r4, [sp, #4]
  16:filter.c      ****     filter->length = length;
  39              		.loc 1 16 0
  40 0004 2070     		strb	r0, [r4]
  17:filter.c      ****     filter->taps = taps;
ARM GAS  C:\Users\Brian\AppData\Local\Temp\cca14Ga2.s 			page 2


  41              		.loc 1 17 0
  42 0006 6160     		str	r1, [r4, #4]
  18:filter.c      ****     filter->gain = gain;
  43              		.loc 1 18 0
  44 0008 2281     		strh	r2, [r4, #8]	@ movhi
  19:filter.c      ****     filter->samples = samples;
  45              		.loc 1 19 0
  46 000a E360     		str	r3, [r4, #12]
  20:filter.c      ****     filter->is_charged = false;
  47              		.loc 1 20 0
  48 000c 0023     		movs	r3, #0
  49              	.LVL1:
  50 000e 2374     		strb	r3, [r4, #16]
  21:filter.c      ****     filter->num_samples = 0;
  51              		.loc 1 21 0
  52 0010 6374     		strb	r3, [r4, #17]
  22:filter.c      **** }
  53              		.loc 1 22 0
  54 0012 5DF8044B 		ldr	r4, [sp], #4
  55              		.cfi_restore 4
  56              		.cfi_def_cfa_offset 0
  57              	.LVL2:
  58 0016 7047     		bx	lr
  59              		.cfi_endproc
  60              	.LFE1:
  61              		.size	initialize_filter, .-initialize_filter
  62              		.section	.text.insert_filter_value,"ax",%progbits
  63              		.align	2
  64              		.global	insert_filter_value
  65              		.thumb
  66              		.thumb_func
  67              		.type	insert_filter_value, %function
  68              	insert_filter_value:
  69              	.LFB2:
  23:filter.c      **** 
  24:filter.c      **** void insert_filter_value(fir_filter_t *filter, uint32_t value)
  25:filter.c      **** {
  70              		.loc 1 25 0
  71              		.cfi_startproc
  72              		@ args = 0, pretend = 0, frame = 0
  73              		@ frame_needed = 0, uses_anonymous_args = 0
  74              		@ link register save eliminated.
  75              	.LVL3:
  76 0000 10B4     		push	{r4}
  77              		.cfi_def_cfa_offset 4
  78              		.cfi_offset 4, -4
  79              	.LBB2:
  26:filter.c      ****     // Move all samples along the array.
  27:filter.c      ****     for(uint8_t i = filter->length - 1; i >= 1; --i)
  80              		.loc 1 27 0
  81 0002 0378     		ldrb	r3, [r0]	@ zero_extendqisi2
  82 0004 013B     		subs	r3, r3, #1
  83 0006 DBB2     		uxtb	r3, r3
  84              	.LVL4:
  85 0008 09E0     		b	.L4
  86              	.L5:
  28:filter.c      ****     {
ARM GAS  C:\Users\Brian\AppData\Local\Temp\cca14Ga2.s 			page 3


  29:filter.c      ****         filter->samples[i] = filter->samples[i - 1];
  87              		.loc 1 29 0 discriminator 3
  88 000a C468     		ldr	r4, [r0, #12]
  89 000c 03F18042 		add	r2, r3, #1073741824
  90 0010 013A     		subs	r2, r2, #1
  91 0012 54F82220 		ldr	r2, [r4, r2, lsl #2]
  92 0016 44F82320 		str	r2, [r4, r3, lsl #2]
  27:filter.c      ****     {
  93              		.loc 1 27 0 discriminator 3
  94 001a 013B     		subs	r3, r3, #1
  95              	.LVL5:
  96 001c DBB2     		uxtb	r3, r3
  97              	.LVL6:
  98              	.L4:
  27:filter.c      ****     {
  99              		.loc 1 27 0 is_stmt 0 discriminator 1
 100 001e 002B     		cmp	r3, #0
 101 0020 F3D1     		bne	.L5
 102              	.LBE2:
  30:filter.c      ****     }
  31:filter.c      ****     // Add newest sample to the filter.
  32:filter.c      ****     filter->samples[0] = value;
 103              		.loc 1 32 0 is_stmt 1
 104 0022 C368     		ldr	r3, [r0, #12]
 105              	.LVL7:
 106 0024 1960     		str	r1, [r3]
  33:filter.c      ****     // If filter is not yet charged, count the sample.
  34:filter.c      ****     if (!filter->is_charged)
 107              		.loc 1 34 0
 108 0026 037C     		ldrb	r3, [r0, #16]	@ zero_extendqisi2
 109 0028 43B9     		cbnz	r3, .L3
  35:filter.c      ****     {
  36:filter.c      ****         ++filter->num_samples;
 110              		.loc 1 36 0
 111 002a 437C     		ldrb	r3, [r0, #17]	@ zero_extendqisi2
 112 002c 0133     		adds	r3, r3, #1
 113 002e DBB2     		uxtb	r3, r3
 114 0030 4374     		strb	r3, [r0, #17]
  37:filter.c      ****         if (filter->num_samples == filter->length)
 115              		.loc 1 37 0
 116 0032 0278     		ldrb	r2, [r0]	@ zero_extendqisi2
 117 0034 9342     		cmp	r3, r2
 118 0036 01D1     		bne	.L3
  38:filter.c      ****         {
  39:filter.c      ****             filter->is_charged = true;
 119              		.loc 1 39 0
 120 0038 0123     		movs	r3, #1
 121 003a 0374     		strb	r3, [r0, #16]
 122              	.L3:
  40:filter.c      ****         }
  41:filter.c      ****     }
  42:filter.c      **** }
 123              		.loc 1 42 0
 124 003c 5DF8044B 		ldr	r4, [sp], #4
 125              		.cfi_restore 4
 126              		.cfi_def_cfa_offset 0
 127 0040 7047     		bx	lr
ARM GAS  C:\Users\Brian\AppData\Local\Temp\cca14Ga2.s 			page 4


 128              		.cfi_endproc
 129              	.LFE2:
 130              		.size	insert_filter_value, .-insert_filter_value
 131 0042 00BF     		.section	.text.get_filtered_value,"ax",%progbits
 132              		.align	2
 133              		.global	get_filtered_value
 134              		.thumb
 135              		.thumb_func
 136              		.type	get_filtered_value, %function
 137              	get_filtered_value:
 138              	.LFB3:
  43:filter.c      **** 
  44:filter.c      **** int32_t get_filtered_value(fir_filter_t *filter)
  45:filter.c      **** {
 139              		.loc 1 45 0
 140              		.cfi_startproc
 141              		@ args = 0, pretend = 0, frame = 0
 142              		@ frame_needed = 0, uses_anonymous_args = 0
 143              		@ link register save eliminated.
 144              	.LVL8:
 145 0000 10B4     		push	{r4}
 146              		.cfi_def_cfa_offset 4
 147              		.cfi_offset 4, -4
 148              	.LVL9:
 149              	.LBB3:
  46:filter.c      ****     int32_t result = 0;
  47:filter.c      ****     for(uint8_t i = 0; i < filter->length; ++i)
 150              		.loc 1 47 0
 151 0002 0023     		movs	r3, #0
 152              	.LBE3:
  46:filter.c      ****     int32_t result = 0;
 153              		.loc 1 46 0
 154 0004 1A46     		mov	r2, r3
 155              	.LBB4:
 156              		.loc 1 47 0
 157 0006 09E0     		b	.L9
 158              	.LVL10:
 159              	.L10:
  48:filter.c      ****     {
  49:filter.c      ****         result += (filter->samples[i] * filter->taps[i]);
 160              		.loc 1 49 0 discriminator 3
 161 0008 C168     		ldr	r1, [r0, #12]
 162 000a 51F82340 		ldr	r4, [r1, r3, lsl #2]
 163 000e 4168     		ldr	r1, [r0, #4]
 164 0010 31F91310 		ldrsh	r1, [r1, r3, lsl #1]
 165 0014 04FB0122 		mla	r2, r4, r1, r2
 166              	.LVL11:
  47:filter.c      ****     {
 167              		.loc 1 47 0 discriminator 3
 168 0018 0133     		adds	r3, r3, #1
 169              	.LVL12:
 170 001a DBB2     		uxtb	r3, r3
 171              	.LVL13:
 172              	.L9:
  47:filter.c      ****     {
 173              		.loc 1 47 0 is_stmt 0 discriminator 1
 174 001c 0178     		ldrb	r1, [r0]	@ zero_extendqisi2
ARM GAS  C:\Users\Brian\AppData\Local\Temp\cca14Ga2.s 			page 5


 175 001e 8B42     		cmp	r3, r1
 176 0020 F2D3     		bcc	.L10
 177              	.LBE4:
  50:filter.c      ****     }
  51:filter.c      ****     int32_t val = (result / filter->gain);
 178              		.loc 1 51 0 is_stmt 1
 179 0022 0089     		ldrh	r0, [r0, #8]
 180              	.LVL14:
  52:filter.c      ****     return val;
  53:filter.c      **** }
 181              		.loc 1 53 0
 182 0024 92FBF0F0 		sdiv	r0, r2, r0
 183              	.LVL15:
 184 0028 5DF8044B 		ldr	r4, [sp], #4
 185              		.cfi_restore 4
 186              		.cfi_def_cfa_offset 0
 187 002c 7047     		bx	lr
 188              		.cfi_endproc
 189              	.LFE3:
 190              		.size	get_filtered_value, .-get_filtered_value
 191 002e 00BF     		.text
 192              	.Letext0:
 193              		.file 2 "c:\\program files (x86)\\cypress\\psoc creator\\4.2\\psoc creator\\import\\gnu\\arm\\5.4.
 194              		.file 3 "c:\\program files (x86)\\cypress\\psoc creator\\4.2\\psoc creator\\import\\gnu\\arm\\5.4.
 195              		.file 4 "filter.h"