ARM GAS  C:\Users\Brian\AppData\Local\Temp\cc5DU1bK.s 			page 1


   1              		.syntax unified
   2              		.cpu cortex-m4
   3              		.eabi_attribute 27, 1
   4              		.fpu fpv4-sp-d16
   5              		.eabi_attribute 20, 1
   6              		.eabi_attribute 21, 1
   7              		.eabi_attribute 23, 3
   8              		.eabi_attribute 24, 1
   9              		.eabi_attribute 25, 1
  10              		.eabi_attribute 26, 1
  11              		.eabi_attribute 30, 1
  12              		.eabi_attribute 34, 1
  13              		.eabi_attribute 18, 4
  14              		.thumb
  15              		.syntax unified
  16              		.file	"ipc_cm4.c"
  17              		.text
  18              	.Ltext0:
  19              		.cfi_sections	.debug_frame
  20              		.section	.text.CM4_ReleaseCallback,"ax",%progbits
  21              		.align	2
  22              		.global	CM4_ReleaseCallback
  23              		.thumb
  24              		.thumb_func
  25              		.type	CM4_ReleaseCallback, %function
  26              	CM4_ReleaseCallback:
  27              	.LFB523:
  28              		.file 1 "ipc_cm4.c"
   1:ipc_cm4.c     **** /* ========================================
   2:ipc_cm4.c     ****  *
   3:ipc_cm4.c     ****  * SEL VOLTAGE MONITOR
   4:ipc_cm4.c     ****  * TEAM REMBRANDT
   5:ipc_cm4.c     ****  * 
   6:ipc_cm4.c     ****  * ipc_cm4.c
   7:ipc_cm4.c     ****  * 
   8:ipc_cm4.c     ****  * This file initilizes the varaibles and defines the functions
   9:ipc_cm4.c     ****  * needed for the CM4 processor to send data to the CMO+.
  10:ipc_cm4.c     ****  *
  11:ipc_cm4.c     ****  * ========================================
  12:ipc_cm4.c     **** */
  13:ipc_cm4.c     **** #include "ipc_cm4.h"
  14:ipc_cm4.c     **** 
  15:ipc_cm4.c     **** // Variable to ensure messages don't overlap
  16:ipc_cm4.c     **** volatile bool rdyToRecvMsg = true;
  17:ipc_cm4.c     **** 
  18:ipc_cm4.c     **** // Message structure for IPC
  19:ipc_cm4.c     **** ipc_msg_t ipcMsgForCM0 = {
  20:ipc_cm4.c     ****     .clientId = IPC_CM4_TO_CM0_CLIENT_ID,
  21:ipc_cm4.c     ****     .userCode = 0,
  22:ipc_cm4.c     ****     .intrMask = CY_IPC_CYPIPE_INTR_MASK,
  23:ipc_cm4.c     ****     .type = 0,
  24:ipc_cm4.c     ****     .data   = {0}
  25:ipc_cm4.c     **** };
  26:ipc_cm4.c     **** 
  27:ipc_cm4.c     **** // Callback function when a message gets sent to the CM4
  28:ipc_cm4.c     **** void CM4_MessageCallback(uint32_t *msg)
  29:ipc_cm4.c     **** {
ARM GAS  C:\Users\Brian\AppData\Local\Temp\cc5DU1bK.s 			page 2


  30:ipc_cm4.c     ****     uint32_t type;
  31:ipc_cm4.c     ****     ipc_msg_t * msgPtr = (ipc_msg_t *)msg;
  32:ipc_cm4.c     ****     uint16_t val;
  33:ipc_cm4.c     ****     if (msgPtr != NULL)
  34:ipc_cm4.c     ****     {
  35:ipc_cm4.c     ****         type = msgPtr->type;
  36:ipc_cm4.c     ****         switch (type)
  37:ipc_cm4.c     ****         {
  38:ipc_cm4.c     ****             case UPPER_THRESHOLD:
  39:ipc_cm4.c     ****                 val = msgPtr->data[0] + 256 * msgPtr->data[1];
  40:ipc_cm4.c     ****                 upper_threshold = val;
  41:ipc_cm4.c     ****                 printf("New Upper Threshold: %" PRIx16, val);
  42:ipc_cm4.c     ****                 printf("\r\n");
  43:ipc_cm4.c     ****                 break;
  44:ipc_cm4.c     ****             case LOWER_THRESHOLD:
  45:ipc_cm4.c     ****                 val = msgPtr->data[0] + 0x100 * msgPtr->data[1];
  46:ipc_cm4.c     ****                 lower_threshold = val;
  47:ipc_cm4.c     ****                 printf("New Lower Threshold: %" PRIx16, val);
  48:ipc_cm4.c     ****                 printf("\r\n");
  49:ipc_cm4.c     ****                 break;
  50:ipc_cm4.c     ****             case TRIGGER:
  51:ipc_cm4.c     ****                 printf("TRIGGER\r\n");
  52:ipc_cm4.c     ****                 printf("[");
  53:ipc_cm4.c     ****                 for (uint8_t i = 0; i < 96; ++i)
  54:ipc_cm4.c     ****                 {
  55:ipc_cm4.c     ****                     printf("%" PRId16, ring_buffer.buffer[i]);
  56:ipc_cm4.c     ****                     printf(",");
  57:ipc_cm4.c     ****                 }
  58:ipc_cm4.c     ****                 printf("]\r\n");
  59:ipc_cm4.c     ****                 //trigger();
  60:ipc_cm4.c     ****                 break;
  61:ipc_cm4.c     ****             case ENABLE:
  62:ipc_cm4.c     ****                 if (msgPtr->data[0])
  63:ipc_cm4.c     ****                 {
  64:ipc_cm4.c     ****                     trigger_enable = true;
  65:ipc_cm4.c     ****                 }
  66:ipc_cm4.c     ****                 else
  67:ipc_cm4.c     ****                 {
  68:ipc_cm4.c     ****                     trigger_enable = false;
  69:ipc_cm4.c     ****                 }
  70:ipc_cm4.c     ****                 printf("Enable: %s", trigger_enable ? "TRUE" : "FALSE");
  71:ipc_cm4.c     ****                 printf("\r\n");
  72:ipc_cm4.c     ****             default:
  73:ipc_cm4.c     ****                 break;
  74:ipc_cm4.c     ****         }
  75:ipc_cm4.c     ****     }
  76:ipc_cm4.c     **** }
  77:ipc_cm4.c     **** 
  78:ipc_cm4.c     **** // Release function when IPC message has been sent to CM0+ successfully
  79:ipc_cm4.c     **** void CM4_ReleaseCallback(void)
  80:ipc_cm4.c     **** {
  29              		.loc 1 80 0
  30              		.cfi_startproc
  31              		@ args = 0, pretend = 0, frame = 0
  32              		@ frame_needed = 0, uses_anonymous_args = 0
  33              		@ link register save eliminated.
  81:ipc_cm4.c     ****     rdyToRecvMsg = true;
ARM GAS  C:\Users\Brian\AppData\Local\Temp\cc5DU1bK.s 			page 3


  34              		.loc 1 81 0
  35 0000 0122     		movs	r2, #1
  36 0002 014B     		ldr	r3, .L2
  37 0004 1A70     		strb	r2, [r3]
  38 0006 7047     		bx	lr
  39              	.L3:
  40              		.align	2
  41              	.L2:
  42 0008 00000000 		.word	.LANCHOR0
  43              		.cfi_endproc
  44              	.LFE523:
  45              		.size	CM4_ReleaseCallback, .-CM4_ReleaseCallback
  46              		.section	.text.CM4_MessageCallback,"ax",%progbits
  47              		.align	2
  48              		.global	CM4_MessageCallback
  49              		.thumb
  50              		.thumb_func
  51              		.type	CM4_MessageCallback, %function
  52              	CM4_MessageCallback:
  53              	.LFB522:
  29:ipc_cm4.c     ****     uint32_t type;
  54              		.loc 1 29 0
  55              		.cfi_startproc
  56              		@ args = 0, pretend = 0, frame = 0
  57              		@ frame_needed = 0, uses_anonymous_args = 0
  58              	.LVL0:
  59 0000 10B5     		push	{r4, lr}
  60              		.cfi_def_cfa_offset 8
  61              		.cfi_offset 4, -8
  62              		.cfi_offset 14, -4
  63              	.LVL1:
  33:ipc_cm4.c     ****     {
  64              		.loc 1 33 0
  65 0002 0028     		cmp	r0, #0
  66 0004 52D0     		beq	.L4
  35:ipc_cm4.c     ****         switch (type)
  67              		.loc 1 35 0
  68 0006 4368     		ldr	r3, [r0, #4]
  69              	.LVL2:
  36:ipc_cm4.c     ****         {
  70              		.loc 1 36 0
  71 0008 023B     		subs	r3, r3, #2
  72              	.LVL3:
  73 000a 032B     		cmp	r3, #3
  74 000c 4ED8     		bhi	.L4
  75 000e DFE803F0 		tbb	[pc, r3]
  76              	.L7:
  77 0012 02       		.byte	(.L6-.L7)/2
  78 0013 10       		.byte	(.L8-.L7)/2
  79 0014 1E       		.byte	(.L9-.L7)/2
  80 0015 38       		.byte	(.L10-.L7)/2
  81              		.p2align 1
  82              	.L6:
  39:ipc_cm4.c     ****                 upper_threshold = val;
  83              		.loc 1 39 0
  84 0016 037A     		ldrb	r3, [r0, #8]	@ zero_extendqisi2
  85 0018 417A     		ldrb	r1, [r0, #9]	@ zero_extendqisi2
ARM GAS  C:\Users\Brian\AppData\Local\Temp\cc5DU1bK.s 			page 4


  86 001a 03EB0121 		add	r1, r3, r1, lsl #8
  87 001e 89B2     		uxth	r1, r1
  88              	.LVL4:
  40:ipc_cm4.c     ****                 printf("New Upper Threshold: %" PRIx16, val);
  89              		.loc 1 40 0
  90 0020 234B     		ldr	r3, .L18
  91 0022 1980     		strh	r1, [r3]	@ movhi
  41:ipc_cm4.c     ****                 printf("\r\n");
  92              		.loc 1 41 0
  93 0024 2348     		ldr	r0, .L18+4
  94              	.LVL5:
  95 0026 FFF7FEFF 		bl	printf
  96              	.LVL6:
  42:ipc_cm4.c     ****                 break;
  97              		.loc 1 42 0
  98 002a 2348     		ldr	r0, .L18+8
  99 002c FFF7FEFF 		bl	puts
 100              	.LVL7:
  43:ipc_cm4.c     ****             case LOWER_THRESHOLD:
 101              		.loc 1 43 0
 102 0030 10BD     		pop	{r4, pc}
 103              	.LVL8:
 104              	.L8:
  45:ipc_cm4.c     ****                 lower_threshold = val;
 105              		.loc 1 45 0
 106 0032 037A     		ldrb	r3, [r0, #8]	@ zero_extendqisi2
 107 0034 417A     		ldrb	r1, [r0, #9]	@ zero_extendqisi2
 108 0036 03EB0121 		add	r1, r3, r1, lsl #8
 109 003a 89B2     		uxth	r1, r1
 110              	.LVL9:
  46:ipc_cm4.c     ****                 printf("New Lower Threshold: %" PRIx16, val);
 111              		.loc 1 46 0
 112 003c 1F4B     		ldr	r3, .L18+12
 113 003e 1980     		strh	r1, [r3]	@ movhi
  47:ipc_cm4.c     ****                 printf("\r\n");
 114              		.loc 1 47 0
 115 0040 1F48     		ldr	r0, .L18+16
 116              	.LVL10:
 117 0042 FFF7FEFF 		bl	printf
 118              	.LVL11:
  48:ipc_cm4.c     ****                 break;
 119              		.loc 1 48 0
 120 0046 1C48     		ldr	r0, .L18+8
 121 0048 FFF7FEFF 		bl	puts
 122              	.LVL12:
  49:ipc_cm4.c     ****             case TRIGGER:
 123              		.loc 1 49 0
 124 004c 10BD     		pop	{r4, pc}
 125              	.LVL13:
 126              	.L9:
  51:ipc_cm4.c     ****                 printf("[");
 127              		.loc 1 51 0
 128 004e 1D48     		ldr	r0, .L18+20
 129              	.LVL14:
 130 0050 FFF7FEFF 		bl	puts
 131              	.LVL15:
  52:ipc_cm4.c     ****                 for (uint8_t i = 0; i < 96; ++i)
ARM GAS  C:\Users\Brian\AppData\Local\Temp\cc5DU1bK.s 			page 5


 132              		.loc 1 52 0
 133 0054 5B20     		movs	r0, #91
 134 0056 FFF7FEFF 		bl	putchar
 135              	.LVL16:
 136              	.LBB2:
  53:ipc_cm4.c     ****                 {
 137              		.loc 1 53 0
 138 005a 0024     		movs	r4, #0
 139 005c 0BE0     		b	.L11
 140              	.LVL17:
 141              	.L12:
  55:ipc_cm4.c     ****                     printf(",");
 142              		.loc 1 55 0 discriminator 3
 143 005e 1A4B     		ldr	r3, .L18+24
 144 0060 1B68     		ldr	r3, [r3]
 145 0062 33F91410 		ldrsh	r1, [r3, r4, lsl #1]
 146 0066 1948     		ldr	r0, .L18+28
 147 0068 FFF7FEFF 		bl	printf
 148              	.LVL18:
  56:ipc_cm4.c     ****                 }
 149              		.loc 1 56 0 discriminator 3
 150 006c 2C20     		movs	r0, #44
 151 006e FFF7FEFF 		bl	putchar
 152              	.LVL19:
  53:ipc_cm4.c     ****                 {
 153              		.loc 1 53 0 discriminator 3
 154 0072 0134     		adds	r4, r4, #1
 155              	.LVL20:
 156 0074 E4B2     		uxtb	r4, r4
 157              	.LVL21:
 158              	.L11:
  53:ipc_cm4.c     ****                 {
 159              		.loc 1 53 0 is_stmt 0 discriminator 1
 160 0076 5F2C     		cmp	r4, #95
 161 0078 F1D9     		bls	.L12
 162              	.LBE2:
  58:ipc_cm4.c     ****                 //trigger();
 163              		.loc 1 58 0 is_stmt 1
 164 007a 1548     		ldr	r0, .L18+32
 165 007c FFF7FEFF 		bl	puts
 166              	.LVL22:
  60:ipc_cm4.c     ****             case ENABLE:
 167              		.loc 1 60 0
 168 0080 10BD     		pop	{r4, pc}
 169              	.LVL23:
 170              	.L10:
  62:ipc_cm4.c     ****                 {
 171              		.loc 1 62 0
 172 0082 037A     		ldrb	r3, [r0, #8]	@ zero_extendqisi2
 173 0084 1BB1     		cbz	r3, .L13
  64:ipc_cm4.c     ****                 }
 174              		.loc 1 64 0
 175 0086 0122     		movs	r2, #1
 176 0088 124B     		ldr	r3, .L18+36
 177 008a 1A70     		strb	r2, [r3]
 178 008c 02E0     		b	.L14
 179              	.L13:
ARM GAS  C:\Users\Brian\AppData\Local\Temp\cc5DU1bK.s 			page 6


  68:ipc_cm4.c     ****                 }
 180              		.loc 1 68 0
 181 008e 0022     		movs	r2, #0
 182 0090 104B     		ldr	r3, .L18+36
 183 0092 1A70     		strb	r2, [r3]
 184              	.L14:
  70:ipc_cm4.c     ****                 printf("\r\n");
 185              		.loc 1 70 0
 186 0094 0F4B     		ldr	r3, .L18+36
 187 0096 1B78     		ldrb	r3, [r3]	@ zero_extendqisi2
 188 0098 0BB1     		cbz	r3, .L16
 189 009a 0F49     		ldr	r1, .L18+40
 190 009c 00E0     		b	.L15
 191              	.L16:
 192 009e 0F49     		ldr	r1, .L18+44
 193              	.L15:
  70:ipc_cm4.c     ****                 printf("\r\n");
 194              		.loc 1 70 0 is_stmt 0 discriminator 4
 195 00a0 0F48     		ldr	r0, .L18+48
 196              	.LVL24:
 197 00a2 FFF7FEFF 		bl	printf
 198              	.LVL25:
  71:ipc_cm4.c     ****             default:
 199              		.loc 1 71 0 is_stmt 1 discriminator 4
 200 00a6 0448     		ldr	r0, .L18+8
 201 00a8 FFF7FEFF 		bl	puts
 202              	.LVL26:
 203              	.L4:
 204 00ac 10BD     		pop	{r4, pc}
 205              	.L19:
 206 00ae 00BF     		.align	2
 207              	.L18:
 208 00b0 00000000 		.word	upper_threshold
 209 00b4 10000000 		.word	.LC2
 210 00b8 2C000000 		.word	.LC3
 211 00bc 00000000 		.word	lower_threshold
 212 00c0 30000000 		.word	.LC4
 213 00c4 4C000000 		.word	.LC5
 214 00c8 00000000 		.word	ring_buffer
 215 00cc 58000000 		.word	.LC6
 216 00d0 5C000000 		.word	.LC7
 217 00d4 00000000 		.word	trigger_enable
 218 00d8 00000000 		.word	.LC0
 219 00dc 08000000 		.word	.LC1
 220 00e0 60000000 		.word	.LC8
 221              		.cfi_endproc
 222              	.LFE522:
 223              		.size	CM4_MessageCallback, .-CM4_MessageCallback
 224              		.section	.text.send_voltage,"ax",%progbits
 225              		.align	2
 226              		.global	send_voltage
 227              		.thumb
 228              		.thumb_func
 229              		.type	send_voltage, %function
 230              	send_voltage:
 231              	.LFB524:
  82:ipc_cm4.c     **** }
ARM GAS  C:\Users\Brian\AppData\Local\Temp\cc5DU1bK.s 			page 7


  83:ipc_cm4.c     **** 
  84:ipc_cm4.c     **** // Function for sending RMS voltage to CM0+
  85:ipc_cm4.c     **** void send_voltage(uint16_t * voltage)
  86:ipc_cm4.c     **** {
 232              		.loc 1 86 0
 233              		.cfi_startproc
 234              		@ args = 0, pretend = 0, frame = 0
 235              		@ frame_needed = 0, uses_anonymous_args = 0
 236              	.LVL27:
 237 0000 08B5     		push	{r3, lr}
 238              		.cfi_def_cfa_offset 8
 239              		.cfi_offset 3, -8
 240              		.cfi_offset 14, -4
 241              	.L21:
  87:ipc_cm4.c     ****     // Wait for previous message to send
  88:ipc_cm4.c     ****     while (rdyToRecvMsg == false) {};
 242              		.loc 1 88 0 discriminator 1
 243 0002 0B4B     		ldr	r3, .L24
 244 0004 1B78     		ldrb	r3, [r3]	@ zero_extendqisi2
 245 0006 13F0FF0F 		tst	r3, #255
 246 000a FAD0     		beq	.L21
  89:ipc_cm4.c     ****     rdyToRecvMsg = false;
 247              		.loc 1 89 0
 248 000c 084B     		ldr	r3, .L24
 249 000e 0022     		movs	r2, #0
 250 0010 1A70     		strb	r2, [r3]
  90:ipc_cm4.c     ****     // Prepare message struct
  91:ipc_cm4.c     ****     cy_en_ipc_pipe_status_t result;
  92:ipc_cm4.c     ****     ipcMsgForCM0.type = VOLTAGE;
 251              		.loc 1 92 0
 252 0012 9A60     		str	r2, [r3, #8]
  93:ipc_cm4.c     ****     ipcMsgForCM0.data[0] = ((uint8_t *)voltage)[0];
 253              		.loc 1 93 0
 254 0014 0278     		ldrb	r2, [r0]	@ zero_extendqisi2
 255 0016 1A73     		strb	r2, [r3, #12]
  94:ipc_cm4.c     ****     ipcMsgForCM0.data[1] = ((uint8_t *)voltage)[1];
 256              		.loc 1 94 0
 257 0018 4278     		ldrb	r2, [r0, #1]	@ zero_extendqisi2
 258 001a 5A73     		strb	r2, [r3, #13]
 259              	.LVL28:
 260              	.L22:
  95:ipc_cm4.c     ****     // Send message
  96:ipc_cm4.c     ****     do
  97:ipc_cm4.c     ****     {
  98:ipc_cm4.c     ****     result = Cy_IPC_Pipe_SendMessage(CY_IPC_EP_CYPIPE_CM0_ADDR, 
 261              		.loc 1 98 0 discriminator 1
 262 001c 054B     		ldr	r3, .L24+4
 263 001e 064A     		ldr	r2, .L24+8
 264 0020 0121     		movs	r1, #1
 265 0022 0020     		movs	r0, #0
 266 0024 FFF7FEFF 		bl	Cy_IPC_Pipe_SendMessage
 267              	.LVL29:
  99:ipc_cm4.c     ****                                      CY_IPC_EP_CYPIPE_CM4_ADDR, 
 100:ipc_cm4.c     ****                                      &ipcMsgForCM0, CM4_ReleaseCallback);
 101:ipc_cm4.c     ****     } while (result == CY_IPC_PIPE_ERROR_SEND_BUSY);
 268              		.loc 1 101 0 discriminator 1
 269 0028 044B     		ldr	r3, .L24+12
ARM GAS  C:\Users\Brian\AppData\Local\Temp\cc5DU1bK.s 			page 8


 270 002a 9842     		cmp	r0, r3
 271 002c F6D0     		beq	.L22
 102:ipc_cm4.c     **** }
 272              		.loc 1 102 0
 273 002e 08BD     		pop	{r3, pc}
 274              	.L25:
 275              		.align	2
 276              	.L24:
 277 0030 00000000 		.word	.LANCHOR0
 278 0034 00000000 		.word	CM4_ReleaseCallback
 279 0038 04000000 		.word	.LANCHOR0+4
 280 003c 07028A00 		.word	9044487
 281              		.cfi_endproc
 282              	.LFE524:
 283              		.size	send_voltage, .-send_voltage
 284              		.section	.text.send_event,"ax",%progbits
 285              		.align	2
 286              		.global	send_event
 287              		.thumb
 288              		.thumb_func
 289              		.type	send_event, %function
 290              	send_event:
 291              	.LFB525:
 103:ipc_cm4.c     **** 
 104:ipc_cm4.c     **** // Function for sending complete event to CM0+
 105:ipc_cm4.c     **** void send_event(uint16_t * event, uint8_t event_num)
 106:ipc_cm4.c     **** {
 292              		.loc 1 106 0
 293              		.cfi_startproc
 294              		@ args = 0, pretend = 0, frame = 8
 295              		@ frame_needed = 0, uses_anonymous_args = 0
 296              	.LVL30:
 297              	.L27:
 107:ipc_cm4.c     ****     // Wait for previous message to send
 108:ipc_cm4.c     ****     while (rdyToRecvMsg == false) {};
 298              		.loc 1 108 0 discriminator 1
 299 0000 144B     		ldr	r3, .L32
 300 0002 1B78     		ldrb	r3, [r3]	@ zero_extendqisi2
 301 0004 13F0FF0F 		tst	r3, #255
 302 0008 FAD0     		beq	.L27
 106:ipc_cm4.c     ****     // Wait for previous message to send
 303              		.loc 1 106 0
 304 000a 30B5     		push	{r4, r5, lr}
 305              		.cfi_def_cfa_offset 12
 306              		.cfi_offset 4, -12
 307              		.cfi_offset 5, -8
 308              		.cfi_offset 14, -4
 309 000c 83B0     		sub	sp, sp, #12
 310              		.cfi_def_cfa_offset 24
 109:ipc_cm4.c     ****     rdyToRecvMsg = false;
 311              		.loc 1 109 0
 312 000e 114A     		ldr	r2, .L32
 313 0010 0023     		movs	r3, #0
 314 0012 1370     		strb	r3, [r2]
 110:ipc_cm4.c     ****     // Prepare message struct
 111:ipc_cm4.c     ****     cy_en_ipc_pipe_status_t result;
 112:ipc_cm4.c     ****     ipcMsgForCM0.type = EVENT;
ARM GAS  C:\Users\Brian\AppData\Local\Temp\cc5DU1bK.s 			page 9


 315              		.loc 1 112 0
 316 0014 0123     		movs	r3, #1
 317 0016 9360     		str	r3, [r2, #8]
 113:ipc_cm4.c     ****     uint16_t entry;
 114:ipc_cm4.c     ****     ipcMsgForCM0.data[0] = event_num;
 318              		.loc 1 114 0
 319 0018 1173     		strb	r1, [r2, #12]
 320              	.LVL31:
 321              	.LBB3:
 115:ipc_cm4.c     ****     for (int i = 1; i < 145; ++i)
 322              		.loc 1 115 0
 323 001a 1946     		mov	r1, r3
 324              	.LVL32:
 325 001c 0CE0     		b	.L28
 326              	.LVL33:
 327              	.L29:
 116:ipc_cm4.c     ****     {
 117:ipc_cm4.c     ****         entry = event[i];
 328              		.loc 1 117 0 discriminator 3
 329 001e 30F81120 		ldrh	r2, [r0, r1, lsl #1]
 330 0022 ADF80620 		strh	r2, [sp, #6]	@ movhi
 118:ipc_cm4.c     ****         ipcMsgForCM0.data[2 * i] = ((uint8_t *)&entry)[0];
 331              		.loc 1 118 0 discriminator 3
 332 0026 4B00     		lsls	r3, r1, #1
 333 0028 0A4C     		ldr	r4, .L32
 334 002a E518     		adds	r5, r4, r3
 335 002c 2A73     		strb	r2, [r5, #12]
 119:ipc_cm4.c     ****         ipcMsgForCM0.data[2 * i + 1] = ((uint8_t *)&entry)[1];
 336              		.loc 1 119 0 discriminator 3
 337 002e 0133     		adds	r3, r3, #1
 338 0030 2344     		add	r3, r3, r4
 339 0032 120A     		lsrs	r2, r2, #8
 340 0034 1A73     		strb	r2, [r3, #12]
 115:ipc_cm4.c     ****     {
 341              		.loc 1 115 0 discriminator 3
 342 0036 0131     		adds	r1, r1, #1
 343              	.LVL34:
 344              	.L28:
 115:ipc_cm4.c     ****     {
 345              		.loc 1 115 0 is_stmt 0 discriminator 1
 346 0038 9029     		cmp	r1, #144
 347 003a F0DD     		ble	.L29
 348              	.LVL35:
 349              	.L30:
 350              	.LBE3:
 120:ipc_cm4.c     ****     }
 121:ipc_cm4.c     ****     // Send message
 122:ipc_cm4.c     ****     do
 123:ipc_cm4.c     ****     {
 124:ipc_cm4.c     ****     result = Cy_IPC_Pipe_SendMessage(CY_IPC_EP_CYPIPE_CM0_ADDR, 
 351              		.loc 1 124 0 is_stmt 1 discriminator 1
 352 003c 064B     		ldr	r3, .L32+4
 353 003e 074A     		ldr	r2, .L32+8
 354 0040 0121     		movs	r1, #1
 355 0042 0020     		movs	r0, #0
 356 0044 FFF7FEFF 		bl	Cy_IPC_Pipe_SendMessage
 357              	.LVL36:
ARM GAS  C:\Users\Brian\AppData\Local\Temp\cc5DU1bK.s 			page 10


 125:ipc_cm4.c     ****                             CY_IPC_EP_CYPIPE_CM4_ADDR, 
 126:ipc_cm4.c     ****                             &ipcMsgForCM0, CM4_ReleaseCallback);
 127:ipc_cm4.c     ****     } while (result == CY_IPC_PIPE_ERROR_SEND_BUSY);
 358              		.loc 1 127 0 discriminator 1
 359 0048 054B     		ldr	r3, .L32+12
 360 004a 9842     		cmp	r0, r3
 361 004c F6D0     		beq	.L30
 128:ipc_cm4.c     **** }
 362              		.loc 1 128 0
 363 004e 03B0     		add	sp, sp, #12
 364              		.cfi_def_cfa_offset 12
 365              		@ sp needed
 366 0050 30BD     		pop	{r4, r5, pc}
 367              	.L33:
 368 0052 00BF     		.align	2
 369              	.L32:
 370 0054 00000000 		.word	.LANCHOR0
 371 0058 00000000 		.word	CM4_ReleaseCallback
 372 005c 04000000 		.word	.LANCHOR0+4
 373 0060 07028A00 		.word	9044487
 374              		.cfi_endproc
 375              	.LFE525:
 376              		.size	send_event, .-send_event
 377              		.global	ipcMsgForCM0
 378              		.global	rdyToRecvMsg
 379              		.comm	lower_threshold,2,2
 380              		.comm	upper_threshold,2,2
 381              		.comm	trigger_enable,1,1
 382              		.comm	sample_counter,1,1
 383              		.comm	ring_buffer,12,4
 384              		.comm	arr,1600,4
 385              		.comm	next_event_index,1,1
 386              		.comm	event,288,4
 387              		.data
 388              		.align	2
 389              		.set	.LANCHOR0,. + 0
 390              		.type	rdyToRecvMsg, %object
 391              		.size	rdyToRecvMsg, 1
 392              	rdyToRecvMsg:
 393 0000 01       		.byte	1
 394 0001 000000   		.space	3
 395              		.type	ipcMsgForCM0, %object
 396              		.size	ipcMsgForCM0, 300
 397              	ipcMsgForCM0:
 398 0004 01       		.byte	1
 399 0005 00       		.byte	0
 400 0006 6000     		.short	96
 401 0008 00000000 		.word	0
 402 000c 00       		.byte	0
 403 000d 00000000 		.space	289
 403      00000000 
 403      00000000 
 403      00000000 
 403      00000000 
 404 012e 0000     		.space	2
 405              		.section	.rodata.str1.4,"aMS",%progbits,1
 406              		.align	2
ARM GAS  C:\Users\Brian\AppData\Local\Temp\cc5DU1bK.s 			page 11


 407              	.LC0:
 408 0000 54525545 		.ascii	"TRUE\000"
 408      00
 409 0005 000000   		.space	3
 410              	.LC1:
 411 0008 46414C53 		.ascii	"FALSE\000"
 411      4500
 412 000e 0000     		.space	2
 413              	.LC2:
 414 0010 4E657720 		.ascii	"New Upper Threshold: %hx\000"
 414      55707065 
 414      72205468 
 414      72657368 
 414      6F6C643A 
 415 0029 000000   		.space	3
 416              	.LC3:
 417 002c 0D00     		.ascii	"\015\000"
 418 002e 0000     		.space	2
 419              	.LC4:
 420 0030 4E657720 		.ascii	"New Lower Threshold: %hx\000"
 420      4C6F7765 
 420      72205468 
 420      72657368 
 420      6F6C643A 
 421 0049 000000   		.space	3
 422              	.LC5:
 423 004c 54524947 		.ascii	"TRIGGER\015\000"
 423      4745520D 
 423      00
 424 0055 000000   		.space	3
 425              	.LC6:
 426 0058 25686400 		.ascii	"%hd\000"
 427              	.LC7:
 428 005c 5D0D00   		.ascii	"]\015\000"
 429 005f 00       		.space	1
 430              	.LC8:
 431 0060 456E6162 		.ascii	"Enable: %s\000"
 431      6C653A20 
 431      257300
 432              		.text
 433              	.Letext0:
 434              		.file 2 "c:\\program files (x86)\\cypress\\psoc creator\\4.2\\psoc creator\\import\\gnu\\arm\\5.4.
 435              		.file 3 "c:\\program files (x86)\\cypress\\psoc creator\\4.2\\psoc creator\\import\\gnu\\arm\\5.4.
 436              		.file 4 "Generated_Source\\PSoC6\\pdl\\drivers/peripheral/ipc/cy_ipc_pipe.h"
 437              		.file 5 "Generated_Source\\PSoC6\\pdl\\drivers/peripheral/scb/cy_scb_uart.h"
 438              		.file 6 "Generated_Source\\PSoC6\\pdl\\drivers/peripheral/sar/cy_sar.h"
 439              		.file 7 "Generated_Source\\PSoC6/ADC.h"
 440              		.file 8 "ring_buffer.h"
 441              		.file 9 "ipc_shared.h"
 442              		.file 10 "Generated_Source\\PSoC6\\pdl\\cmsis/include/core_cm4.h"
 443              		.file 11 "Generated_Source\\PSoC6/UART.h"
 444              		.file 12 "voltage_monitor.h"
 445              		.file 13 "<built-in>"
 446              		.file 14 "c:\\program files (x86)\\cypress\\psoc creator\\4.2\\psoc creator\\import\\gnu\\arm\\5.4