ARM GAS  C:\Users\Brian\AppData\Local\Temp\cc1DiLHn.s 			page 1


   1              		.syntax unified
   2              		.cpu cortex-m4
   3              		.eabi_attribute 27, 1
   4              		.fpu fpv4-sp-d16
   5              		.eabi_attribute 20, 1
   6              		.eabi_attribute 21, 1
   7              		.eabi_attribute 23, 3
   8              		.eabi_attribute 24, 1
   9              		.eabi_attribute 25, 1
  10              		.eabi_attribute 26, 1
  11              		.eabi_attribute 30, 1
  12              		.eabi_attribute 34, 1
  13              		.eabi_attribute 18, 4
  14              		.thumb
  15              		.syntax unified
  16              		.file	"ring_buffer.c"
  17              		.text
  18              	.Ltext0:
  19              		.cfi_sections	.debug_frame
  20              		.section	.text.ring_buf_push,"ax",%progbits
  21              		.align	2
  22              		.global	ring_buf_push
  23              		.thumb
  24              		.thumb_func
  25              		.type	ring_buf_push, %function
  26              	ring_buf_push:
  27              	.LFB0:
  28              		.file 1 "ring_buffer.c"
   1:ring_buffer.c **** /* ========================================
   2:ring_buffer.c ****  *
   3:ring_buffer.c ****  * SEL VOLTAGE MONITOR
   4:ring_buffer.c ****  * TEAM REMBRANDT
   5:ring_buffer.c ****  * 
   6:ring_buffer.c ****  * ring_buffer.c
   7:ring_buffer.c ****  * 
   8:ring_buffer.c ****  * Defines the push function for the ring buffer, as well as a function
   9:ring_buffer.c ****  * for extracting events from the buffer.
  10:ring_buffer.c ****  *
  11:ring_buffer.c ****  * ========================================
  12:ring_buffer.c **** */
  13:ring_buffer.c **** #include "ring_buffer.h"
  14:ring_buffer.c **** 
  15:ring_buffer.c **** void ring_buf_push(ring_buf_t *c, uint16_t data)
  16:ring_buffer.c **** {
  29              		.loc 1 16 0
  30              		.cfi_startproc
  31              		@ args = 0, pretend = 0, frame = 0
  32              		@ frame_needed = 0, uses_anonymous_args = 0
  33              		@ link register save eliminated.
  34              	.LVL0:
  35 0000 30B4     		push	{r4, r5}
  36              		.cfi_def_cfa_offset 8
  37              		.cfi_offset 4, -8
  38              		.cfi_offset 5, -4
  17:ring_buffer.c ****     uint8_t next;
  18:ring_buffer.c ****     //Next is where head will point to after this write.
  19:ring_buffer.c ****     next = c->head + 1;
ARM GAS  C:\Users\Brian\AppData\Local\Temp\cc1DiLHn.s 			page 2


  39              		.loc 1 19 0
  40 0002 0279     		ldrb	r2, [r0, #4]	@ zero_extendqisi2
  41 0004 531C     		adds	r3, r2, #1
  42 0006 DBB2     		uxtb	r3, r3
  43              	.LVL1:
  20:ring_buffer.c ****     if (next >= c->maxlen)
  44              		.loc 1 20 0
  45 0008 9DB2     		uxth	r5, r3
  46 000a C488     		ldrh	r4, [r0, #6]
  47 000c A542     		cmp	r5, r4
  48 000e 00D3     		bcc	.L2
  21:ring_buffer.c ****         next = 0;
  49              		.loc 1 21 0
  50 0010 0023     		movs	r3, #0
  51              	.LVL2:
  52              	.L2:
  22:ring_buffer.c ****     // Load data and then move
  23:ring_buffer.c ****     c->buffer[c->head] = data;
  53              		.loc 1 23 0
  54 0012 0468     		ldr	r4, [r0]
  55 0014 24F81210 		strh	r1, [r4, r2, lsl #1]	@ movhi
  24:ring_buffer.c ****     // Head to next data offset. // return success to indicate successful push.
  25:ring_buffer.c ****     c->head = next;
  56              		.loc 1 25 0
  57 0018 0371     		strb	r3, [r0, #4]
  26:ring_buffer.c **** }
  58              		.loc 1 26 0
  59 001a 30BC     		pop	{r4, r5}
  60              		.cfi_restore 5
  61              		.cfi_restore 4
  62              		.cfi_def_cfa_offset 0
  63 001c 7047     		bx	lr
  64              		.cfi_endproc
  65              	.LFE0:
  66              		.size	ring_buf_push, .-ring_buf_push
  67              		.section	.text.extract_event,"ax",%progbits
  68              		.align	2
  69              		.global	extract_event
  70              		.thumb
  71              		.thumb_func
  72              		.type	extract_event, %function
  73              	extract_event:
  74              	.LFB1:
  27:ring_buffer.c **** 
  28:ring_buffer.c **** void extract_event(uint8_t event_index, uint16_t * events, ring_buf_t * rbuf)
  29:ring_buffer.c **** {
  75              		.loc 1 29 0
  76              		.cfi_startproc
  77              		@ args = 0, pretend = 0, frame = 0
  78              		@ frame_needed = 0, uses_anonymous_args = 0
  79              		@ link register save eliminated.
  80              	.LVL3:
  81 0000 7047     		bx	lr
  82              		.cfi_endproc
  83              	.LFE1:
  84              		.size	extract_event, .-extract_event
  85 0002 00BF     		.text
ARM GAS  C:\Users\Brian\AppData\Local\Temp\cc1DiLHn.s 			page 3


  86              	.Letext0:
  87              		.file 2 "c:\\program files (x86)\\cypress\\psoc creator\\4.2\\psoc creator\\import\\gnu\\arm\\5.4.
  88              		.file 3 "c:\\program files (x86)\\cypress\\psoc creator\\4.2\\psoc creator\\import\\gnu\\arm\\5.4.
  89              		.file 4 "ring_buffer.h"